

Microchip MPLAB XC8 Assembler V2.30 build 20200825195618 
                                                                                               Thu Jun  1 08:48:41 2023

Microchip MPLAB XC8 C Compiler v2.30 (Free license) build 20200825195618 Og1 
     1                           	processor	18F4620
     2                           	fnconf	rparam,??,?,0
     3                           	pagewidth 120
     4                           	opt	flic
     5                           	psect	idataCOMRAM,global,class=CODE,delta=1,noexec
     6                           	psect	idataBANK0,global,class=CODE,delta=1,noexec
     7                           	psect	smallconst,global,reloc=2,class=SMALLCONST,delta=1,noexec
     8                           	psect	cinit,global,reloc=2,class=CODE,delta=1
     9                           	psect	bssCOMRAM,global,class=COMRAM,space=1,delta=1,lowdata,noexec
    10                           	psect	dataCOMRAM,global,class=COMRAM,space=1,delta=1,lowdata,noexec
    11                           	psect	bssBANK0,global,class=BANK0,space=1,delta=1,lowdata,noexec
    12                           	psect	dataBANK0,global,class=BANK0,space=1,delta=1,lowdata,noexec
    13                           	psect	bssBANK1,global,class=BANK1,space=1,delta=1,lowdata,noexec
    14                           	psect	cstackBANK0,global,class=BANK0,space=1,delta=1,lowdata,noexec
    15                           	psect	cstackCOMRAM,global,class=COMRAM,space=1,delta=1,lowdata,noexec
    16                           	psect	text0,global,reloc=2,class=CODE,delta=1
    17                           	psect	text1,global,reloc=2,class=CODE,delta=1
    18                           	psect	text2,global,reloc=2,class=CODE,delta=1
    19                           	psect	text3,global,reloc=2,class=CODE,delta=1
    20                           	psect	text4,global,reloc=2,class=CODE,delta=1
    21                           	psect	text5,global,reloc=2,class=CODE,delta=1
    22                           	psect	text6,global,reloc=2,class=CODE,delta=1
    23                           	psect	text7,global,reloc=2,class=CODE,delta=1
    24                           	psect	text8,global,reloc=2,class=CODE,delta=1
    25                           	psect	text9,global,reloc=2,class=CODE,delta=1
    26                           	psect	text10,global,reloc=2,class=CODE,delta=1
    27                           	psect	intcode,global,reloc=2,class=CODE,delta=1
    28                           	psect	intcode_body,global,reloc=2,class=CODE,delta=1
    29                           	psect	text12,global,reloc=2,class=CODE,delta=1
    30                           	psect	text13,global,reloc=2,class=CODE,delta=1
    31                           	psect	text14,global,reloc=2,class=CODE,delta=1
    32                           	psect	text15,global,reloc=2,class=CODE,delta=1
    33                           	psect	text16,global,reloc=2,class=CODE,delta=1
    34                           	psect	text17,global,reloc=2,class=CODE,delta=1,group=1
    35                           	psect	text18,global,reloc=2,class=CODE,delta=1
    36                           	psect	text19,global,reloc=2,class=CODE,delta=1
    37                           	psect	text20,global,reloc=2,class=CODE,delta=1
    38                           	psect	text21,global,reloc=2,class=CODE,delta=1
    39                           	psect	text22,global,reloc=2,class=CODE,delta=1
    40                           	psect	text23,global,reloc=2,class=CODE,delta=1
    41                           	psect	text24,global,reloc=2,class=CODE,delta=1
    42                           	psect	text25,global,reloc=2,class=CODE,delta=1
    43                           	psect	text26,global,reloc=2,class=CODE,delta=1
    44                           	psect	text27,global,reloc=2,class=CODE,delta=1
    45                           	psect	text28,global,reloc=2,class=CODE,delta=1
    46                           	psect	text29,global,reloc=2,class=CODE,delta=1
    47                           	psect	text30,global,reloc=2,class=CODE,delta=1
    48                           	psect	text31,global,reloc=2,class=CODE,delta=1
    49                           	psect	text32,global,reloc=2,class=CODE,delta=1
    50                           	psect	text33,global,reloc=2,class=CODE,delta=1
    51                           	psect	text34,global,reloc=2,class=CODE,delta=1
    52                           	psect	intsave_regs,global,class=BIGRAM,space=1,delta=1,noexec
    53                           	psect	rparam,global,class=COMRAM,space=1,delta=1,noexec
    54                           	psect	temp,global,ovrld,common,class=COMRAM,space=1,delta=1
    55                           	psect	idloc,global,abs,ovrld,class=IDLOC,space=5,delta=1,noexec
    56                           	psect	config,global,abs,ovrld,class=CONFIG,space=4,delta=1,noexec
    57  0000                     
    58                           ; Version 2.20
    59                           ; Generated 12/02/2020 GMT
    60                           ; 
    61                           ; Copyright © 2020, Microchip Technology Inc. and its subsidiaries ("Microchip")
    62                           ; All rights reserved.
    63                           ; 
    64                           ; This software is developed by Microchip Technology Inc. and its subsidiaries ("Microch
      +                          ip").
    65                           ; 
    66                           ; Redistribution and use in source and binary forms, with or without modification, are
    67                           ; permitted provided that the following conditions are met:
    68                           ; 
    69                           ;     1. Redistributions of source code must retain the above copyright notice, this lis
      +                          t of
    70                           ;        conditions and the following disclaimer.
    71                           ; 
    72                           ;     2. Redistributions in binary form must reproduce the above copyright notice, this 
      +                          list
    73                           ;        of conditions and the following disclaimer in the documentation and/or other
    74                           ;        materials provided with the distribution.
    75                           ; 
    76                           ;     3. Microchip's name may not be used to endorse or promote products derived from th
      +                          is
    77                           ;        software without specific prior written permission.
    78                           ; 
    79                           ; THIS SOFTWARE IS PROVIDED BY MICROCHIP "AS IS" AND ANY EXPRESS OR IMPLIED WARRANTIES,
    80                           ; INCLUDING, BUT NOT LIMITED TO, THE IMPLIED WARRANTIES OF MERCHANTABILITY AND FITNESS F
      +                          OR
    81                           ; PURPOSE ARE DISCLAIMED.  IN NO EVENT SHALL MICROCHIP BE LIABLE FOR ANY DIRECT, INDIREC
      +                          T,
    82                           ; INCIDENTAL, SPECIAL, EXEMPLARY, OR CONSEQUENTIAL DAMAGES (INCLUDING BUT NOT LIMITED TO
    83                           ; PROCUREMENT OF SUBSTITUTE GOODS OR SERVICES; LOSS OF USE, DATA OR PROFITS; OR BUSINESS
    84                           ; INTERRUPTION) HOWSOEVER CAUSED AND ON ANY THEORY OF LIABILITY, WHETHER IN CONTRACT, ST
      +                          RICT
    85                           ; LIABILITY, OR TORT (INCLUDING NEGLIGENCE OR OTHERWISE) ARISING IN ANY WAY OUT OF THE U
      +                          SE OF
    86                           ; THIS SOFTWARE, EVEN IF ADVISED OF THE POSSIBILITY OF SUCH DAMAGE.
    87                           ; 
    88                           ; 
    89                           ; Code-generator required, PIC18F4620 Definitions
    90                           ; 
    91                           ; SFR Addresses
    92  0000                     
    93                           	psect	idataCOMRAM
    94  002F0A                     __pidataCOMRAM:
    95                           	callstack 0
    96                           
    97                           ;initializer for _gameState
    98  002F0A  0003               	dw	3
    99  002F0C  0002               	dw	2
   100  002F0E  0003               	dw	3
   101  002F10  0003               	dw	3
   102  002F12  000E               	dw	14
   103  002F14  0002               	dw	2
   104  002F16  000E               	dw	14
   105  002F18  0003               	dw	3
   106  002F1A  0009               	dw	9
   107  002F1C  0002               	dw	2
   108  002F1E  0000               	dw	0
   109  002F20  0000               	dw	0
   110  002F22  0000               	dw	0
   111  002F24  0001               	dw	1
   112                           
   113                           ;initializer for _digits
   114  002F26  3F                 	db	63
   115  002F27  06                 	db	6
   116  002F28  5B                 	db	91
   117  002F29  4F                 	db	79
   118  002F2A  66                 	db	102
   119  002F2B  6D                 	db	109
   120  002F2C  7D                 	db	125
   121  002F2D  07                 	db	7
   122  002F2E  7F                 	db	127
   123  002F2F  6F                 	db	111
   124                           
   125                           ;initializer for _TIMER2_INITIAL_VALUE
   126  002F30  009F               	dw	159
   127                           
   128                           ;initializer for _dash
   129  002F32  40                 	db	64
   130                           
   131                           ;initializer for _lcd_y
   132  002F33  01                 	db	1
   133                           
   134                           ;initializer for _lcd_x
   135  002F34  01                 	db	1
   136                           
   137                           	psect	idataBANK0
   138  002E20                     __pidataBANK0:
   139                           	callstack 0
   140                           
   141                           ;initializer for _frisbee_target
   142  002E20  0E                 	db	14
   143  002E21  11                 	db	17
   144  002E22  11                 	db	17
   145  002E23  11                 	db	17
   146  002E24  0E                 	db	14
   147  002E25  00                 	db	0
   148  002E26  00                 	db	0
   149  002E27  00                 	db	0
   150                           
   151                           ;initializer for _frisbee
   152  002E28  0E                 	db	14
   153  002E29  1F                 	db	31
   154  002E2A  1F                 	db	31
   155  002E2B  1F                 	db	31
   156  002E2C  0E                 	db	14
   157  002E2D  00                 	db	0
   158  002E2E  00                 	db	0
   159  002E2F  00                 	db	0
   160                           
   161                           ;initializer for _selected_teamB_player_with_frisbee
   162  002E30  1F                 	db	31
   163  002E31  15                 	db	21
   164  002E32  0A                 	db	10
   165  002E33  04                 	db	4
   166  002E34  0E                 	db	14
   167  002E35  1F                 	db	31
   168  002E36  0A                 	db	10
   169  002E37  1F                 	db	31
   170                           
   171                           ;initializer for _selected_teamA_player_with_frisbee
   172  002E38  1F                 	db	31
   173  002E39  15                 	db	21
   174  002E3A  0A                 	db	10
   175  002E3B  04                 	db	4
   176  002E3C  04                 	db	4
   177  002E3D  04                 	db	4
   178  002E3E  0A                 	db	10
   179  002E3F  1F                 	db	31
   180                           
   181                           ;initializer for _selected_teamB_player
   182  002E40  11                 	db	17
   183  002E41  15                 	db	21
   184  002E42  0A                 	db	10
   185  002E43  04                 	db	4
   186  002E44  0E                 	db	14
   187  002E45  1F                 	db	31
   188  002E46  0A                 	db	10
   189  002E47  1F                 	db	31
   190                           
   191                           ;initializer for _selected_teamA_player
   192  002E48  11                 	db	17
   193  002E49  15                 	db	21
   194  002E4A  0A                 	db	10
   195  002E4B  04                 	db	4
   196  002E4C  04                 	db	4
   197  002E4D  04                 	db	4
   198  002E4E  0A                 	db	10
   199  002E4F  1F                 	db	31
   200                           
   201                           ;initializer for _teamB_player
   202  002E50  11                 	db	17
   203  002E51  15                 	db	21
   204  002E52  0A                 	db	10
   205  002E53  04                 	db	4
   206  002E54  0E                 	db	14
   207  002E55  1F                 	db	31
   208  002E56  0A                 	db	10
   209  002E57  0A                 	db	10
   210                           
   211                           ;initializer for _teamA_player
   212  002E58  11                 	db	17
   213  002E59  15                 	db	21
   214  002E5A  0A                 	db	10
   215  002E5B  04                 	db	4
   216  002E5C  04                 	db	4
   217  002E5D  04                 	db	4
   218  002E5E  0A                 	db	10
   219  002E5F  0A                 	db	10
   220  0000                     _TMR0	set	4054
   221  0000                     _TMR1	set	4046
   222  0000                     _T0CONbits	set	4053
   223  0000                     _T2CONbits	set	4042
   224  0000                     _TMR2	set	4044
   225  0000                     _T2CON	set	4042
   226  0000                     _T1CONbits	set	4045
   227  0000                     _T1CON	set	4045
   228  0000                     _T0CON	set	4053
   229  0000                     _INTCON3bits	set	4080
   230  0000                     _INTCONbits	set	4082
   231  0000                     _LATB	set	3978
   232  0000                     _TRISBbits	set	3987
   233  0000                     _TRISB	set	3987
   234  0000                     _PORTB	set	3969
   235  0000                     _LATD	set	3980
   236  0000                     _TRISA	set	3986
   237  0000                     _LATA	set	3977
   238  0000                     _TRISD	set	3989
   239  0000                     _TRISEbits	set	3990
   240  0000                     _PORTD	set	3971
   241  0000                     _PORTEbits	set	3972
   242  0000                     _ADCON2bits	set	4032
   243  0000                     _TRISAbits	set	3986
   244  0000                     _ADCON1bits	set	4033
   245  0000                     _ADRESL	set	4035
   246  0000                     _ADRESH	set	4036
   247  0000                     _PIR1bits	set	3998
   248  0000                     _ADCON0bits	set	4034
   249  0000                     _TMR0IF	set	32658
   250                           
   251                           	psect	smallconst
   252  001000                     __psmallconst:
   253                           	callstack 0
   254  001000  00                 	db	0
   255  001001                     STR_1:
   256  001001  20                 	db	32
   257  001002  00                 	db	0
   258  001003  00                 	db	0	; dummy byte at the end
   259  0000                     
   260                           ; #config settings
   261                           
   262                           	psect	cinit
   263  002A9A                     __pcinit:
   264                           	callstack 0
   265  002A9A                     start_initialization:
   266                           	callstack 0
   267  002A9A                     __initialization:
   268                           	callstack 0
   269                           
   270                           ; Initialize objects allocated to BANK0 (64 bytes)
   271                           ; load TBLPTR registers with __pidataBANK0
   272  002A9A  0E20               	movlw	low __pidataBANK0
   273  002A9C  6EF6               	movwf	tblptrl,c
   274  002A9E  0E2E               	movlw	high __pidataBANK0
   275  002AA0  6EF7               	movwf	tblptrh,c
   276  002AA2  0E00               	movlw	low (__pidataBANK0 shr (0+16))
   277  002AA4  6EF8               	movwf	tblptru,c
   278  002AA6  EE00  F080         	lfsr	0,__pdataBANK0
   279  002AAA  EE10 F040          	lfsr	1,64
   280  002AAE                     copy_data0:
   281  002AAE  0009               	tblrd		*+
   282  002AB0  CFF5 FFEE          	movff	tablat,postinc0
   283  002AB4  50E5               	movf	postdec1,w,c
   284  002AB6  50E1               	movf	fsr1l,w,c
   285  002AB8  E1FA               	bnz	copy_data0
   286                           
   287                           ; Initialize objects allocated to COMRAM (43 bytes)
   288                           ; load TBLPTR registers with __pidataCOMRAM
   289  002ABA  0E0A               	movlw	low __pidataCOMRAM
   290  002ABC  6EF6               	movwf	tblptrl,c
   291  002ABE  0E2F               	movlw	high __pidataCOMRAM
   292  002AC0  6EF7               	movwf	tblptrh,c
   293  002AC2  0E00               	movlw	low (__pidataCOMRAM shr (0+16))
   294  002AC4  6EF8               	movwf	tblptru,c
   295  002AC6  EE00  F040         	lfsr	0,__pdataCOMRAM
   296  002ACA  EE10 F02B          	lfsr	1,43
   297  002ACE                     copy_data1:
   298  002ACE  0009               	tblrd		*+
   299  002AD0  CFF5 FFEE          	movff	tablat,postinc0
   300  002AD4  50E5               	movf	postdec1,w,c
   301  002AD6  50E1               	movf	fsr1l,w,c
   302  002AD8  E1FA               	bnz	copy_data1
   303                           
   304                           ; Clear objects allocated to BANK1 (60 bytes)
   305  002ADA  EE01  F000         	lfsr	0,__pbssBANK1
   306  002ADE  0E3C               	movlw	60
   307  002AE0                     clear_0:
   308  002AE0  6AEE               	clrf	postinc0,c
   309  002AE2  06E8               	decf	wreg,f,c
   310  002AE4  E1FD               	bnz	clear_0
   311                           
   312                           ; Clear objects allocated to BANK0 (12 bytes)
   313  002AE6  EE00  F0C0         	lfsr	0,__pbssBANK0
   314  002AEA  0E0C               	movlw	12
   315  002AEC                     clear_1:
   316  002AEC  6AEE               	clrf	postinc0,c
   317  002AEE  06E8               	decf	wreg,f,c
   318  002AF0  E1FD               	bnz	clear_1
   319                           
   320                           ; Clear objects allocated to COMRAM (17 bytes)
   321  002AF2  EE00  F06B         	lfsr	0,__pbssCOMRAM
   322  002AF6  0E11               	movlw	17
   323  002AF8                     clear_2:
   324  002AF8  6AEE               	clrf	postinc0,c
   325  002AFA  06E8               	decf	wreg,f,c
   326  002AFC  E1FD               	bnz	clear_2
   327  002AFE                     end_of_initialization:
   328                           	callstack 0
   329  002AFE                     __end_of__initialization:
   330                           	callstack 0
   331  002AFE  907C               	bcf	int$flags,0,c	;clear compiler interrupt flag (level 1)
   332  002B00  927C               	bcf	int$flags,1,c	;clear compiler interrupt flag (level 2)
   333  002B02  0E00               	movlw	low (__Lmediumconst shr (0+16))
   334  002B04  6EF8               	movwf	tblptru,c
   335  002B06  0100               	movlb	0
   336  002B08  EF62  F013         	goto	_main	;jump to C main() function
   337                           
   338                           	psect	bssCOMRAM
   339  00006B                     __pbssCOMRAM:
   340                           	callstack 0
   341  00006B                     _display_state:
   342                           	callstack 0
   343  00006B                     	ds	2
   344  00006D                     _blink_flag:
   345                           	callstack 0
   346  00006D                     	ds	2
   347  00006F                     _current_step:
   348                           	callstack 0
   349  00006F                     	ds	2
   350  000071                     _frisbee_held:
   351                           	callstack 0
   352  000071                     	ds	2
   353  000073                     _TIMER0_INITIAL_VALUE:
   354                           	callstack 0
   355  000073                     	ds	2
   356  000075                     _target_y:
   357                           	callstack 0
   358  000075                     	ds	2
   359  000077                     _target_x:
   360                           	callstack 0
   361  000077                     	ds	2
   362  000079                     _previous_portb:
   363                           	callstack 0
   364  000079                     	ds	1
   365  00007A                     _gamepad_button_pressed:
   366                           	callstack 0
   367  00007A                     	ds	1
   368  00007B                     _CONVERT:
   369                           	callstack 0
   370  00007B                     	ds	1
   371                           
   372                           	psect	dataCOMRAM
   373  000040                     __pdataCOMRAM:
   374                           	callstack 0
   375  000040                     _gameState:
   376                           	callstack 0
   377  000040                     	ds	28
   378  00005C                     _digits:
   379                           	callstack 0
   380  00005C                     	ds	10
   381  000066                     _TIMER2_INITIAL_VALUE:
   382                           	callstack 0
   383  000066                     	ds	2
   384  000068                     _dash:
   385                           	callstack 0
   386  000068                     	ds	1
   387  000069                     _lcd_y:
   388                           	callstack 0
   389  000069                     	ds	1
   390  00006A                     _lcd_x:
   391                           	callstack 0
   392  00006A                     	ds	1
   393                           
   394                           	psect	bssBANK0
   395  0000C0                     __pbssBANK0:
   396                           	callstack 0
   397  0000C0                     _values:
   398                           	callstack 0
   399  0000C0                     	ds	10
   400  0000CA                     _adc:
   401                           	callstack 0
   402  0000CA                     	ds	2
   403                           
   404                           	psect	dataBANK0
   405  000080                     __pdataBANK0:
   406                           	callstack 0
   407  000080                     _frisbee_target:
   408                           	callstack 0
   409  000080                     	ds	8
   410  000088                     _frisbee:
   411                           	callstack 0
   412  000088                     	ds	8
   413  000090                     _selected_teamB_player_with_frisbee:
   414                           	callstack 0
   415  000090                     	ds	8
   416  000098                     _selected_teamA_player_with_frisbee:
   417                           	callstack 0
   418  000098                     	ds	8
   419  0000A0                     _selected_teamB_player:
   420                           	callstack 0
   421  0000A0                     	ds	8
   422  0000A8                     _selected_teamA_player:
   423                           	callstack 0
   424  0000A8                     	ds	8
   425  0000B0                     _teamB_player:
   426                           	callstack 0
   427  0000B0                     	ds	8
   428  0000B8                     _teamA_player:
   429                           	callstack 0
   430  0000B8                     	ds	8
   431                           
   432                           	psect	bssBANK1
   433  000100                     __pbssBANK1:
   434                           	callstack 0
   435  000100                     _frisbee_steps:
   436                           	callstack 0
   437  000100                     	ds	60
   438                           
   439                           	psect	cstackBANK0
   440  0000CC                     __pcstackBANK0:
   441                           	callstack 0
   442  0000CC                     ??_display_7seg:
   443  0000CC                     ?_readADCChannel:
   444                           	callstack 0
   445  0000CC                     LCDCmd@cmd:
   446                           	callstack 0
   447  0000CC                     LCDDat@dat:
   448                           	callstack 0
   449                           
   450                           ; 1 bytes @ 0x0
   451  0000CC                     	ds	1
   452  0000CD                     LCDGoto@p_1:
   453                           	callstack 0
   454  0000CD                     LCDAddSpecialCharacter@data:
   455                           	callstack 0
   456                           
   457                           ; 2 bytes @ 0x1
   458  0000CD                     	ds	1
   459  0000CE                     ??_readADCChannel:
   460  0000CE                     LCDGoto@p_2:
   461                           	callstack 0
   462                           
   463                           ; 1 bytes @ 0x2
   464  0000CE                     	ds	1
   465  0000CF                     LCDAddSpecialCharacter@character_index:
   466                           	callstack 0
   467                           
   468                           ; 1 bytes @ 0x3
   469  0000CF                     	ds	1
   470  0000D0                     readADCChannel@channel:
   471                           	callstack 0
   472  0000D0                     LCDAddSpecialCharacter@i:
   473                           	callstack 0
   474                           
   475                           ; 1 bytes @ 0x4
   476  0000D0                     	ds	1
   477  0000D1                     
   478                           ; 1 bytes @ 0x5
   479                           
   480                           	psect	cstackCOMRAM
   481  000001                     __pcstackCOMRAM:
   482                           	callstack 0
   483  000001                     ?_bitChangedToZero:
   484                           	callstack 0
   485  000001                     ?_isThereOtherPlayer:
   486                           	callstack 0
   487  000001                     ?_frisbeeHeld:
   488                           	callstack 0
   489  000001                     ?_hasPlayerLeftFrisbeeLocation:
   490                           	callstack 0
   491  000001                     ?_isThereAnyPlayer:
   492                           	callstack 0
   493  000001                     ?_ifSelectedPlayerHold:
   494                           	callstack 0
   495  000001                     ?___lwmod:
   496                           	callstack 0
   497  000001                     bitChangedToZero@curr:
   498                           	callstack 0
   499  000001                     i2LCDCmd@cmd:
   500                           	callstack 0
   501  000001                     i2LCDDat@dat:
   502                           	callstack 0
   503  000001                     isThereOtherPlayer@oldX:
   504                           	callstack 0
   505  000001                     isThereAnyPlayer@x:
   506                           	callstack 0
   507  000001                     ___lwmod@dividend:
   508                           	callstack 0
   509                           
   510                           ; 2 bytes @ 0x0
   511  000001                     	ds	1
   512  000002                     i2LCDGoto@p_1:
   513                           	callstack 0
   514  000002                     LCDStr@str:
   515                           	callstack 0
   516  000002                     bitChangedToZero@bit:
   517                           	callstack 0
   518                           
   519                           ; 2 bytes @ 0x1
   520  000002                     	ds	1
   521  000003                     ??_frisbeeHeld:
   522  000003                     ??_hasPlayerLeftFrisbeeLocation:
   523  000003                     ??_ifSelectedPlayerHold:
   524  000003                     i2LCDGoto@p_2:
   525                           	callstack 0
   526  000003                     isThereOtherPlayer@oldY:
   527                           	callstack 0
   528  000003                     isThereAnyPlayer@y:
   529                           	callstack 0
   530  000003                     ___lwmod@divisor:
   531                           	callstack 0
   532                           
   533                           ; 2 bytes @ 0x2
   534  000003                     	ds	1
   535  000004                     ??_LCDStr:
   536  000004                     ??_bitChangedToZero:
   537  000004                     _blink$889:
   538                           	callstack 0
   539                           
   540                           ; 2 bytes @ 0x3
   541  000004                     	ds	1
   542  000005                     ??_isThereOtherPlayer:
   543  000005                     ??_isThereAnyPlayer:
   544  000005                     ___lwmod@counter:
   545                           	callstack 0
   546                           
   547                           ; 1 bytes @ 0x4
   548  000005                     	ds	1
   549  000006                     ?_random_generator:
   550                           	callstack 0
   551  000006                     LCDStr@i:
   552                           	callstack 0
   553  000006                     bitChangedToZero@prev:
   554                           	callstack 0
   555  000006                     random_generator@modulo:
   556                           	callstack 0
   557                           
   558                           ; 2 bytes @ 0x5
   559  000006                     	ds	1
   560  000007                     ??_switchSelectedPlayer:
   561  000007                     _bitChangedToZero$758:
   562                           	callstack 0
   563  000007                     _ifSelectedPlayerHold$881:
   564                           	callstack 0
   565  000007                     moveSelectedPlayerPositionOnLCD@oldX:
   566                           	callstack 0
   567  000007                     frisbeeHeld@selected_player:
   568                           	callstack 0
   569  000007                     hasPlayerLeftFrisbeeLocation@selected_player:
   570                           	callstack 0
   571  000007                     frisbeeHeldOnLCD@selected_player:
   572                           	callstack 0
   573                           
   574                           ; 2 bytes @ 0x6
   575  000007                     	ds	1
   576  000008                     ??_random_generator:
   577  000008                     ifSelectedPlayerHold@selected_player:
   578                           	callstack 0
   579                           
   580                           ; 2 bytes @ 0x7
   581  000008                     	ds	1
   582  000009                     moveSelectedPlayerPositionOnLCD@oldY:
   583                           	callstack 0
   584  000009                     isThereOtherPlayer@i:
   585                           	callstack 0
   586  000009                     _frisbeeHeldOnLCD$785:
   587                           	callstack 0
   588  000009                     frisbeeReleasedOnLCD@frisbeeX:
   589                           	callstack 0
   590  000009                     _switchSelectedPlayer$859:
   591                           	callstack 0
   592  000009                     isThereAnyPlayer@i:
   593                           	callstack 0
   594                           
   595                           ; 2 bytes @ 0x8
   596  000009                     	ds	2
   597  00000B                     ??_moveFrisbee:
   598  00000B                     ?_isValidNPCMove:
   599                           	callstack 0
   600  00000B                     moveSelectedPlayerPositionOnLCD@newX:
   601                           	callstack 0
   602  00000B                     frisbeeHeldOnLCD@frisbeeX:
   603                           	callstack 0
   604  00000B                     frisbeeReleasedOnLCD@frisbeeY:
   605                           	callstack 0
   606  00000B                     _switchSelectedPlayer$861:
   607                           	callstack 0
   608  00000B                     isValidNPCMove@selected_npc:
   609                           	callstack 0
   610                           
   611                           ; 2 bytes @ 0xA
   612  00000B                     	ds	1
   613  00000C                     random_generator@pseudo_random:
   614                           	callstack 0
   615                           
   616                           ; 2 bytes @ 0xB
   617  00000C                     	ds	1
   618  00000D                     moveSelectedPlayerPositionOnLCD@newY:
   619                           	callstack 0
   620  00000D                     frisbeeHeldOnLCD@frisbeeY:
   621                           	callstack 0
   622  00000D                     switchSelectedPlayer@oldX:
   623                           	callstack 0
   624  00000D                     isValidNPCMove@random_direction:
   625                           	callstack 0
   626                           
   627                           ; 2 bytes @ 0xC
   628  00000D                     	ds	1
   629  00000E                     random_generator@rotated_value:
   630                           	callstack 0
   631                           
   632                           ; 2 bytes @ 0xD
   633  00000E                     	ds	1
   634  00000F                     ??_isValidNPCMove:
   635  00000F                     moveSelectedPlayerPositionOnLCD@selectedPlayer:
   636                           	callstack 0
   637  00000F                     switchSelectedPlayer@oldY:
   638                           	callstack 0
   639  00000F                     _moveFrisbee$886:
   640                           	callstack 0
   641                           
   642                           ; 2 bytes @ 0xE
   643  00000F                     	ds	1
   644  000010                     random_generator@timer_value:
   645                           	callstack 0
   646                           
   647                           ; 2 bytes @ 0xF
   648  000010                     	ds	1
   649  000011                     _moveSelectedPlayerPositionOnLCD$768:
   650                           	callstack 0
   651  000011                     switchSelectedPlayer@newX:
   652                           	callstack 0
   653  000011                     isValidNPCMove@x:
   654                           	callstack 0
   655                           
   656                           ; 2 bytes @ 0x10
   657  000011                     	ds	1
   658  000012                     compute_frisbee_target_and_route@current_fisbee_x_position:
   659                           	callstack 0
   660                           
   661                           ; 2 bytes @ 0x11
   662  000012                     	ds	1
   663  000013                     ??_gamepadPressed:
   664  000013                     switchSelectedPlayer@newY:
   665                           	callstack 0
   666  000013                     isValidNPCMove@y:
   667                           	callstack 0
   668                           
   669                           ; 2 bytes @ 0x12
   670  000013                     	ds	1
   671  000014                     compute_frisbee_target_and_route@current_fisbee_y_position:
   672                           	callstack 0
   673                           
   674                           ; 2 bytes @ 0x13
   675  000014                     	ds	1
   676  000015                     ??_npcMove:
   677  000015                     switchSelectedPlayer@selected_player:
   678                           	callstack 0
   679                           
   680                           ; 2 bytes @ 0x14
   681  000015                     	ds	1
   682  000016                     ??_compute_frisbee_target_and_route:
   683                           
   684                           ; 1 bytes @ 0x15
   685  000016                     	ds	1
   686  000017                     gamepadPressed@oldX:
   687                           	callstack 0
   688                           
   689                           ; 2 bytes @ 0x16
   690  000017                     	ds	1
   691  000018                     compute_frisbee_target_and_route@i:
   692                           	callstack 0
   693                           
   694                           ; 2 bytes @ 0x17
   695  000018                     	ds	1
   696  000019                     gamepadPressed@oldY:
   697                           	callstack 0
   698  000019                     npcMove@selected_player:
   699                           	callstack 0
   700                           
   701                           ; 2 bytes @ 0x18
   702  000019                     	ds	1
   703  00001A                     compute_frisbee_target_and_route@i_719:
   704                           	callstack 0
   705                           
   706                           ; 2 bytes @ 0x19
   707  00001A                     	ds	1
   708  00001B                     gamepadPressed@current_portb:
   709                           	callstack 0
   710  00001B                     npcMove@oldX:
   711                           	callstack 0
   712                           
   713                           ; 2 bytes @ 0x1A
   714  00001B                     	ds	1
   715  00001C                     compute_frisbee_target_and_route@i_720:
   716                           	callstack 0
   717                           
   718                           ; 2 bytes @ 0x1B
   719  00001C                     	ds	1
   720  00001D                     npcMove@oldY:
   721                           	callstack 0
   722                           
   723                           ; 2 bytes @ 0x1C
   724  00001D                     	ds	1
   725  00001E                     compute_frisbee_target_and_route@i_722:
   726                           	callstack 0
   727                           
   728                           ; 2 bytes @ 0x1D
   729  00001E                     	ds	1
   730  00001F                     _npcMove$903:
   731                           	callstack 0
   732                           
   733                           ; 2 bytes @ 0x1E
   734  00001F                     	ds	1
   735  000020                     compute_frisbee_target_and_route@i_723:
   736                           	callstack 0
   737                           
   738                           ; 2 bytes @ 0x1F
   739  000020                     	ds	1
   740  000021                     npcMove@random_direction:
   741                           	callstack 0
   742                           
   743                           ; 2 bytes @ 0x20
   744  000021                     	ds	1
   745  000022                     compute_frisbee_target_and_route@i_724:
   746                           	callstack 0
   747                           
   748                           ; 2 bytes @ 0x21
   749  000022                     	ds	1
   750  000023                     npcMove@isValidMove:
   751                           	callstack 0
   752                           
   753                           ; 2 bytes @ 0x22
   754  000023                     	ds	1
   755  000024                     compute_frisbee_target_and_route@number_of_steps:
   756                           	callstack 0
   757                           
   758                           ; 2 bytes @ 0x23
   759  000024                     	ds	1
   760  000025                     npcMove@i:
   761                           	callstack 0
   762                           
   763                           ; 2 bytes @ 0x24
   764  000025                     	ds	1
   765  000026                     compute_frisbee_target_and_route@x:
   766                           	callstack 0
   767                           
   768                           ; 2 bytes @ 0x25
   769  000026                     	ds	2
   770  000028                     compute_frisbee_target_and_route@y:
   771                           	callstack 0
   772                           
   773                           ; 2 bytes @ 0x27
   774  000028                     	ds	2
   775  00002A                     compute_frisbee_target_and_route@x_step_size:
   776                           	callstack 0
   777                           
   778                           ; 2 bytes @ 0x29
   779  00002A                     	ds	2
   780  00002C                     compute_frisbee_target_and_route@y_step_size:
   781                           	callstack 0
   782                           
   783                           ; 2 bytes @ 0x2B
   784  00002C                     	ds	2
   785  00002E                     ??_throwFrisbee:
   786                           
   787                           ; 1 bytes @ 0x2D
   788  00002E                     	ds	2
   789  000030                     _throwFrisbee$871:
   790                           	callstack 0
   791                           
   792                           ; 2 bytes @ 0x2F
   793  000030                     	ds	2
   794  000032                     throwFrisbee@selected_player_x:
   795                           	callstack 0
   796                           
   797                           ; 2 bytes @ 0x31
   798  000032                     	ds	2
   799  000034                     throwFrisbee@selected_player_y:
   800                           	callstack 0
   801                           
   802                           ; 2 bytes @ 0x33
   803  000034                     	ds	2
   804  000036                     throwFrisbee@selected_player:
   805                           	callstack 0
   806                           
   807                           ; 2 bytes @ 0x35
   808  000036                     	ds	2
   809  000038                     ??_FNC:
   810                           
   811                           ; 1 bytes @ 0x37
   812  000038                     	ds	8
   813                           
   814 ;;
   815 ;;Main: autosize = 0, tempsize = 0, incstack = 0, save=0
   816 ;;
   817 ;; *************** function _main *****************
   818 ;; Defined at:
   819 ;;		line 610 in file "newmain.c"
   820 ;; Parameters:    Size  Location     Type
   821 ;;		None
   822 ;; Auto vars:     Size  Location     Type
   823 ;;		None
   824 ;; Return value:  Size  Location     Type
   825 ;;                  1    wreg      void 
   826 ;; Registers used:
   827 ;;		wreg, fsr2l, fsr2h, status,2, status,0, prodl, prodh, cstack
   828 ;; Tracked objects:
   829 ;;		On entry : 0/0
   830 ;;		On exit  : 0/0
   831 ;;		Unchanged: 0/0
   832 ;; Data sizes:     COMRAM   BANK0   BANK1   BANK2   BANK3   BANK4   BANK5   BANK6   BANK7   BANK8   BANK9  BANK10  BANK1
      +1  BANK12  BANK13  BANK14  BANK15
   833 ;;      Params:         0       0       0       0       0       0       0       0       0       0       0       0       
      +0       0       0       0       0
   834 ;;      Locals:         0       0       0       0       0       0       0       0       0       0       0       0       
      +0       0       0       0       0
   835 ;;      Temps:          0       0       0       0       0       0       0       0       0       0       0       0       
      +0       0       0       0       0
   836 ;;      Totals:         0       0       0       0       0       0       0       0       0       0       0       0       
      +0       0       0       0       0
   837 ;;Total ram usage:        0 bytes
   838 ;; Hardware stack levels required when called:    8
   839 ;; This function calls:
   840 ;;		_InitLCD
   841 ;;		_display_7seg
   842 ;;		_initADC
   843 ;;		_initRegisters
   844 ;;		_readADCChannel
   845 ;;		_setInitialState
   846 ;; This function is called by:
   847 ;;		Startup code after reset
   848 ;; This function uses a non-reentrant model
   849 ;;
   850                           
   851                           	psect	text0
   852  0026C4                     __ptext0:
   853                           	callstack 0
   854  0026C4                     _main:
   855                           	callstack 23
   856  0026C4                     
   857                           ;newmain.c: 612:     initADC();
   858  0026C4  EC9B  F017         	call	_initADC	;wreg free
   859  0026C8                     
   860                           ;newmain.c: 614:     InitLCD();
   861  0026C8  EC6C  F017         	call	_InitLCD	;wreg free
   862  0026CC                     
   863                           ;newmain.c: 616:     initRegisters();
   864  0026CC  EC29  F016         	call	_initRegisters	;wreg free
   865  0026D0                     
   866                           ;newmain.c: 618:     setInitialState();
   867  0026D0  ECE6  F011         	call	_setInitialState	;wreg free
   868  0026D4                     l3031:
   869                           
   870                           ;newmain.c: 621:     {;newmain.c: 622:         adc = readADCChannel(0);
   871  0026D4  0E00               	movlw	0
   872  0026D6  ECB1  F013         	call	_readADCChannel
   873  0026DA  C0CC  F0CA         	movff	?_readADCChannel,_adc
   874  0026DE  C0CD  F0CB         	movff	?_readADCChannel+1,_adc+1
   875  0026E2                     
   876                           ;newmain.c: 624:         if(adc<256){
   877  0026E2  0100               	movlb	0	; () banked
   878  0026E4  BFCB               	btfsc	(_adc+1)& (0+255),7,b
   879  0026E6  EF7D  F013         	goto	u2270
   880  0026EA  05CB               	decf	(_adc+1)& (0+255),w,b
   881  0026EC  B0D8               	btfsc	status,0,c
   882  0026EE  EF7B  F013         	goto	u2271
   883  0026F2  EF7D  F013         	goto	u2270
   884  0026F6                     u2271:
   885  0026F6  EF83  F013         	goto	l3037
   886  0026FA                     u2270:
   887  0026FA                     
   888                           ; BSR set to: 0
   889                           ;newmain.c: 625:             TIMER0_INITIAL_VALUE = 62410;
   890  0026FA  0EF3               	movlw	243
   891  0026FC  6E74               	movwf	(_TIMER0_INITIAL_VALUE+1)^0,c
   892  0026FE  0ECA               	movlw	202
   893  002700  6E73               	movwf	_TIMER0_INITIAL_VALUE^0,c
   894                           
   895                           ;newmain.c: 626:         }
   896  002702  EFAB  F013         	goto	l3047
   897  002706                     l3037:
   898                           
   899                           ; BSR set to: 0
   900  002706  BFCB               	btfsc	(_adc+1)& (0+255),7,b
   901  002708  EF8F  F013         	goto	u2280
   902  00270C  0E02               	movlw	2
   903  00270E  5DCB               	subwf	(_adc+1)& (0+255),w,b
   904  002710  B0D8               	btfsc	status,0,c
   905  002712  EF8D  F013         	goto	u2281
   906  002716  EF8F  F013         	goto	u2280
   907  00271A                     u2281:
   908  00271A  EF95  F013         	goto	l3041
   909  00271E                     u2280:
   910  00271E                     
   911                           ; BSR set to: 0
   912                           ;newmain.c: 628:             TIMER0_INITIAL_VALUE = 59285;
   913  00271E  0EE7               	movlw	231
   914  002720  6E74               	movwf	(_TIMER0_INITIAL_VALUE+1)^0,c
   915  002722  0E95               	movlw	149
   916  002724  6E73               	movwf	_TIMER0_INITIAL_VALUE^0,c
   917                           
   918                           ;newmain.c: 630:         }
   919  002726  EFAB  F013         	goto	l3047
   920  00272A                     l3041:
   921                           
   922                           ; BSR set to: 0
   923  00272A  BFCB               	btfsc	(_adc+1)& (0+255),7,b
   924  00272C  EFA1  F013         	goto	u2290
   925  002730  0E03               	movlw	3
   926  002732  5DCB               	subwf	(_adc+1)& (0+255),w,b
   927  002734  B0D8               	btfsc	status,0,c
   928  002736  EF9F  F013         	goto	u2291
   929  00273A  EFA1  F013         	goto	u2290
   930  00273E                     u2291:
   931  00273E  EFA7  F013         	goto	l3045
   932  002742                     u2290:
   933  002742                     
   934                           ; BSR set to: 0
   935                           ;newmain.c: 632:             TIMER0_INITIAL_VALUE = 56160;
   936  002742  0EDB               	movlw	219
   937  002744  6E74               	movwf	(_TIMER0_INITIAL_VALUE+1)^0,c
   938  002746  0E60               	movlw	96
   939  002748  6E73               	movwf	_TIMER0_INITIAL_VALUE^0,c
   940                           
   941                           ;newmain.c: 634:         }
   942  00274A  EFAB  F013         	goto	l3047
   943  00274E                     l3045:
   944                           
   945                           ; BSR set to: 0
   946                           ;newmain.c: 636:             TIMER0_INITIAL_VALUE = 53035;
   947  00274E  0ECF               	movlw	207
   948  002750  6E74               	movwf	(_TIMER0_INITIAL_VALUE+1)^0,c
   949  002752  0E2B               	movlw	43
   950  002754  6E73               	movwf	_TIMER0_INITIAL_VALUE^0,c
   951  002756                     l3047:
   952                           
   953                           ; BSR set to: 0
   954                           ;newmain.c: 639:         display_7seg();
   955  002756  ECBE  F015         	call	_display_7seg	;wreg free
   956  00275A  EF6A  F013         	goto	l3031
   957  00275E  EF07  F000         	goto	start
   958  002762                     __end_of_main:
   959                           	callstack 0
   960                           
   961 ;; *************** function _setInitialState *****************
   962 ;; Defined at:
   963 ;;		line 86 in file "newmain.c"
   964 ;; Parameters:    Size  Location     Type
   965 ;;		None
   966 ;; Auto vars:     Size  Location     Type
   967 ;;		None
   968 ;; Return value:  Size  Location     Type
   969 ;;                  1    wreg      void 
   970 ;; Registers used:
   971 ;;		wreg, fsr2l, fsr2h, status,2, status,0, prodl, prodh, cstack
   972 ;; Tracked objects:
   973 ;;		On entry : 0/0
   974 ;;		On exit  : 0/0
   975 ;;		Unchanged: 0/0
   976 ;; Data sizes:     COMRAM   BANK0   BANK1   BANK2   BANK3   BANK4   BANK5   BANK6   BANK7   BANK8   BANK9  BANK10  BANK1
      +1  BANK12  BANK13  BANK14  BANK15
   977 ;;      Params:         0       0       0       0       0       0       0       0       0       0       0       0       
      +0       0       0       0       0
   978 ;;      Locals:         0       0       0       0       0       0       0       0       0       0       0       0       
      +0       0       0       0       0
   979 ;;      Temps:          0       0       0       0       0       0       0       0       0       0       0       0       
      +0       0       0       0       0
   980 ;;      Totals:         0       0       0       0       0       0       0       0       0       0       0       0       
      +0       0       0       0       0
   981 ;;Total ram usage:        0 bytes
   982 ;; Hardware stack levels used:    1
   983 ;; Hardware stack levels required when called:    7
   984 ;; This function calls:
   985 ;;		_LCDAddSpecialCharacter
   986 ;;		_LCDDat
   987 ;;		_LCDGoto
   988 ;; This function is called by:
   989 ;;		_main
   990 ;; This function uses a non-reentrant model
   991 ;;
   992                           
   993                           	psect	text1
   994  0023CC                     __ptext1:
   995                           	callstack 0
   996  0023CC                     _setInitialState:
   997                           	callstack 23
   998  0023CC                     
   999                           ;newmain.c: 88:     LCDAddSpecialCharacter(0, selected_teamA_player);
  1000  0023CC  0EA8               	movlw	low _selected_teamA_player
  1001  0023CE  0100               	movlb	0	; () banked
  1002  0023D0  6FCD               	movwf	LCDAddSpecialCharacter@data& (0+255),b
  1003  0023D2  0E00               	movlw	high _selected_teamA_player
  1004  0023D4  6FCE               	movwf	(LCDAddSpecialCharacter@data+1)& (0+255),b
  1005  0023D6  0E00               	movlw	0
  1006  0023D8  EC30  F017         	call	_LCDAddSpecialCharacter
  1007                           
  1008                           ;newmain.c: 89:     LCDAddSpecialCharacter(1, teamA_player);
  1009  0023DC  0EB8               	movlw	low _teamA_player
  1010  0023DE  0100               	movlb	0	; () banked
  1011  0023E0  6FCD               	movwf	LCDAddSpecialCharacter@data& (0+255),b
  1012  0023E2  0E00               	movlw	high _teamA_player
  1013  0023E4  6FCE               	movwf	(LCDAddSpecialCharacter@data+1)& (0+255),b
  1014  0023E6  0E01               	movlw	1
  1015  0023E8  EC30  F017         	call	_LCDAddSpecialCharacter
  1016                           
  1017                           ;newmain.c: 90:     LCDAddSpecialCharacter(2, selected_teamB_player);
  1018  0023EC  0EA0               	movlw	low _selected_teamB_player
  1019  0023EE  0100               	movlb	0	; () banked
  1020  0023F0  6FCD               	movwf	LCDAddSpecialCharacter@data& (0+255),b
  1021  0023F2  0E00               	movlw	high _selected_teamB_player
  1022  0023F4  6FCE               	movwf	(LCDAddSpecialCharacter@data+1)& (0+255),b
  1023  0023F6  0E02               	movlw	2
  1024  0023F8  EC30  F017         	call	_LCDAddSpecialCharacter
  1025                           
  1026                           ;newmain.c: 91:     LCDAddSpecialCharacter(3, teamB_player);
  1027  0023FC  0EB0               	movlw	low _teamB_player
  1028  0023FE  0100               	movlb	0	; () banked
  1029  002400  6FCD               	movwf	LCDAddSpecialCharacter@data& (0+255),b
  1030  002402  0E00               	movlw	high _teamB_player
  1031  002404  6FCE               	movwf	(LCDAddSpecialCharacter@data+1)& (0+255),b
  1032  002406  0E03               	movlw	3
  1033  002408  EC30  F017         	call	_LCDAddSpecialCharacter
  1034                           
  1035                           ;newmain.c: 92:     LCDAddSpecialCharacter(4, frisbee);
  1036  00240C  0E88               	movlw	low _frisbee
  1037  00240E  0100               	movlb	0	; () banked
  1038  002410  6FCD               	movwf	LCDAddSpecialCharacter@data& (0+255),b
  1039  002412  0E00               	movlw	high _frisbee
  1040  002414  6FCE               	movwf	(LCDAddSpecialCharacter@data+1)& (0+255),b
  1041  002416  0E04               	movlw	4
  1042  002418  EC30  F017         	call	_LCDAddSpecialCharacter
  1043                           
  1044                           ;newmain.c: 93:     LCDAddSpecialCharacter(5, selected_teamA_player_with_frisbee);
  1045  00241C  0E98               	movlw	low _selected_teamA_player_with_frisbee
  1046  00241E  0100               	movlb	0	; () banked
  1047  002420  6FCD               	movwf	LCDAddSpecialCharacter@data& (0+255),b
  1048  002422  0E00               	movlw	high _selected_teamA_player_with_frisbee
  1049  002424  6FCE               	movwf	(LCDAddSpecialCharacter@data+1)& (0+255),b
  1050  002426  0E05               	movlw	5
  1051  002428  EC30  F017         	call	_LCDAddSpecialCharacter
  1052                           
  1053                           ;newmain.c: 94:     LCDAddSpecialCharacter(6, selected_teamB_player_with_frisbee);
  1054  00242C  0E90               	movlw	low _selected_teamB_player_with_frisbee
  1055  00242E  0100               	movlb	0	; () banked
  1056  002430  6FCD               	movwf	LCDAddSpecialCharacter@data& (0+255),b
  1057  002432  0E00               	movlw	high _selected_teamB_player_with_frisbee
  1058  002434  6FCE               	movwf	(LCDAddSpecialCharacter@data+1)& (0+255),b
  1059  002436  0E06               	movlw	6
  1060  002438  EC30  F017         	call	_LCDAddSpecialCharacter
  1061                           
  1062                           ;newmain.c: 95:     LCDAddSpecialCharacter(7,frisbee_target);
  1063  00243C  0E80               	movlw	low _frisbee_target
  1064  00243E  0100               	movlb	0	; () banked
  1065  002440  6FCD               	movwf	LCDAddSpecialCharacter@data& (0+255),b
  1066  002442  0E00               	movlw	high _frisbee_target
  1067  002444  6FCE               	movwf	(LCDAddSpecialCharacter@data+1)& (0+255),b
  1068  002446  0E07               	movlw	7
  1069  002448  EC30  F017         	call	_LCDAddSpecialCharacter
  1070  00244C                     
  1071                           ;newmain.c: 97:     LCDGoto(3, 2);
  1072  00244C  0E02               	movlw	2
  1073  00244E  0100               	movlb	0	; () banked
  1074  002450  6FCD               	movwf	LCDGoto@p_1& (0+255),b
  1075  002452  0E03               	movlw	3
  1076  002454  ECD7  F014         	call	_LCDGoto
  1077  002458                     
  1078                           ;newmain.c: 98:     LCDDat(0);
  1079  002458  0E00               	movlw	0
  1080  00245A  ECAD  F017         	call	_LCDDat
  1081  00245E                     
  1082                           ;newmain.c: 100:     LCDGoto(3, 3);
  1083  00245E  0E03               	movlw	3
  1084  002460  0100               	movlb	0	; () banked
  1085  002462  6FCD               	movwf	LCDGoto@p_1& (0+255),b
  1086  002464  0E03               	movlw	3
  1087  002466  ECD7  F014         	call	_LCDGoto
  1088  00246A                     
  1089                           ;newmain.c: 101:     LCDDat(1);
  1090  00246A  0E01               	movlw	1
  1091  00246C  ECAD  F017         	call	_LCDDat
  1092  002470                     
  1093                           ;newmain.c: 103:     LCDGoto(14, 2);
  1094  002470  0E02               	movlw	2
  1095  002472  0100               	movlb	0	; () banked
  1096  002474  6FCD               	movwf	LCDGoto@p_1& (0+255),b
  1097  002476  0E0E               	movlw	14
  1098  002478  ECD7  F014         	call	_LCDGoto
  1099  00247C                     
  1100                           ;newmain.c: 104:     LCDDat(3);
  1101  00247C  0E03               	movlw	3
  1102  00247E  ECAD  F017         	call	_LCDDat
  1103  002482                     
  1104                           ;newmain.c: 106:     LCDGoto(14, 3);
  1105  002482  0E03               	movlw	3
  1106  002484  0100               	movlb	0	; () banked
  1107  002486  6FCD               	movwf	LCDGoto@p_1& (0+255),b
  1108  002488  0E0E               	movlw	14
  1109  00248A  ECD7  F014         	call	_LCDGoto
  1110  00248E                     
  1111                           ;newmain.c: 107:     LCDDat(3);
  1112  00248E  0E03               	movlw	3
  1113  002490  ECAD  F017         	call	_LCDDat
  1114  002494                     
  1115                           ;newmain.c: 109:     LCDGoto(9, 2);
  1116  002494  0E02               	movlw	2
  1117  002496  0100               	movlb	0	; () banked
  1118  002498  6FCD               	movwf	LCDGoto@p_1& (0+255),b
  1119  00249A  0E09               	movlw	9
  1120  00249C  ECD7  F014         	call	_LCDGoto
  1121  0024A0                     
  1122                           ;newmain.c: 110:     LCDDat(4);
  1123  0024A0  0E04               	movlw	4
  1124  0024A2  ECAD  F017         	call	_LCDDat
  1125  0024A6  0012               	return		;funcret
  1126  0024A8                     __end_of_setInitialState:
  1127                           	callstack 0
  1128                           
  1129 ;; *************** function _LCDGoto *****************
  1130 ;; Defined at:
  1131 ;;		line 72 in file "./LCD.h"
  1132 ;; Parameters:    Size  Location     Type
  1133 ;;  p_2             1    wreg     unsigned char 
  1134 ;;  p_1             1    1[BANK0 ] unsigned char 
  1135 ;; Auto vars:     Size  Location     Type
  1136 ;;  p_2             1    2[BANK0 ] unsigned char 
  1137 ;; Return value:  Size  Location     Type
  1138 ;;                  1    wreg      void 
  1139 ;; Registers used:
  1140 ;;		wreg, status,2, status,0, cstack
  1141 ;; Tracked objects:
  1142 ;;		On entry : 0/0
  1143 ;;		On exit  : 0/0
  1144 ;;		Unchanged: 0/0
  1145 ;; Data sizes:     COMRAM   BANK0   BANK1   BANK2   BANK3   BANK4   BANK5   BANK6   BANK7   BANK8   BANK9  BANK10  BANK1
      +1  BANK12  BANK13  BANK14  BANK15
  1146 ;;      Params:         0       1       0       0       0       0       0       0       0       0       0       0       
      +0       0       0       0       0
  1147 ;;      Locals:         0       1       0       0       0       0       0       0       0       0       0       0       
      +0       0       0       0       0
  1148 ;;      Temps:          0       0       0       0       0       0       0       0       0       0       0       0       
      +0       0       0       0       0
  1149 ;;      Totals:         0       2       0       0       0       0       0       0       0       0       0       0       
      +0       0       0       0       0
  1150 ;;Total ram usage:        2 bytes
  1151 ;; Hardware stack levels used:    1
  1152 ;; Hardware stack levels required when called:    6
  1153 ;; This function calls:
  1154 ;;		_LCDCmd
  1155 ;; This function is called by:
  1156 ;;		_setInitialState
  1157 ;; This function uses a non-reentrant model
  1158 ;;
  1159                           
  1160                           	psect	text2
  1161  0029AE                     __ptext2:
  1162                           	callstack 0
  1163  0029AE                     _LCDGoto:
  1164                           	callstack 23
  1165                           
  1166                           ;incstack = 0
  1167                           ;LCDGoto@p_2 stored from wreg
  1168  0029AE  0100               	movlb	0	; () banked
  1169  0029B0  6FCE               	movwf	LCDGoto@p_2& (0+255),b
  1170  0029B2                     
  1171                           ;./LCD.h: 73:   if(p_1==1) {
  1172  0029B2  0100               	movlb	0	; () banked
  1173  0029B4  05CD               	decf	LCDGoto@p_1& (0+255),w,b
  1174  0029B6  A4D8               	btfss	status,2,c
  1175  0029B8  EFE0  F014         	goto	u2231
  1176  0029BC  EFE2  F014         	goto	u2230
  1177  0029C0                     u2231:
  1178  0029C0  EFE9  F014         	goto	l2901
  1179  0029C4                     u2230:
  1180  0029C4                     
  1181                           ; BSR set to: 0
  1182                           ;./LCD.h: 74:     LCDCmd(0x80 +((p_2-1)%16));
  1183  0029C4  05CE               	decf	LCDGoto@p_2& (0+255),w,b
  1184  0029C6  0B0F               	andlw	15
  1185  0029C8  0F80               	addlw	128
  1186  0029CA  ECB7  F017         	call	_LCDCmd
  1187                           
  1188                           ;./LCD.h: 75:   }
  1189  0029CE  EF0E  F015         	goto	l2911
  1190  0029D2                     l2901:
  1191                           
  1192                           ; BSR set to: 0
  1193  0029D2  0E02               	movlw	2
  1194  0029D4  19CD               	xorwf	LCDGoto@p_1& (0+255),w,b
  1195  0029D6  A4D8               	btfss	status,2,c
  1196  0029D8  EFF0  F014         	goto	u2241
  1197  0029DC  EFF2  F014         	goto	u2240
  1198  0029E0                     u2241:
  1199  0029E0  EFF9  F014         	goto	l2905
  1200  0029E4                     u2240:
  1201  0029E4                     
  1202                           ; BSR set to: 0
  1203                           ;./LCD.h: 77:     LCDCmd(0xC0 +((p_2-1)%16));
  1204  0029E4  05CE               	decf	LCDGoto@p_2& (0+255),w,b
  1205  0029E6  0B0F               	andlw	15
  1206  0029E8  0FC0               	addlw	192
  1207  0029EA  ECB7  F017         	call	_LCDCmd
  1208                           
  1209                           ;./LCD.h: 78:   }
  1210  0029EE  EF0E  F015         	goto	l2911
  1211  0029F2                     l2905:
  1212                           
  1213                           ; BSR set to: 0
  1214  0029F2  0E03               	movlw	3
  1215  0029F4  19CD               	xorwf	LCDGoto@p_1& (0+255),w,b
  1216  0029F6  A4D8               	btfss	status,2,c
  1217  0029F8  EF00  F015         	goto	u2251
  1218  0029FC  EF02  F015         	goto	u2250
  1219  002A00                     u2251:
  1220  002A00  EF09  F015         	goto	l2909
  1221  002A04                     u2250:
  1222  002A04                     
  1223                           ; BSR set to: 0
  1224                           ;./LCD.h: 80:     LCDCmd(0x90 +((p_2-1)%16));
  1225  002A04  05CE               	decf	LCDGoto@p_2& (0+255),w,b
  1226  002A06  0B0F               	andlw	15
  1227  002A08  0F90               	addlw	144
  1228  002A0A  ECB7  F017         	call	_LCDCmd
  1229                           
  1230                           ;./LCD.h: 81:   }
  1231  002A0E  EF0E  F015         	goto	l2911
  1232  002A12                     l2909:
  1233                           
  1234                           ; BSR set to: 0
  1235                           ;./LCD.h: 83:     LCDCmd(0xD0 +((p_2-1)%16));
  1236  002A12  05CE               	decf	LCDGoto@p_2& (0+255),w,b
  1237  002A14  0B0F               	andlw	15
  1238  002A16  0FD0               	addlw	208
  1239  002A18  ECB7  F017         	call	_LCDCmd
  1240  002A1C                     l2911:
  1241                           
  1242                           ;./LCD.h: 85:   lcd_x = p_2;
  1243  002A1C  C0CE  F06A         	movff	LCDGoto@p_2,_lcd_x
  1244  002A20                     
  1245                           ;./LCD.h: 86:   lcd_y = p_1;
  1246  002A20  C0CD  F069         	movff	LCDGoto@p_1,_lcd_y
  1247  002A24  0012               	return		;funcret
  1248  002A26                     __end_of_LCDGoto:
  1249                           	callstack 0
  1250                           
  1251 ;; *************** function _LCDAddSpecialCharacter *****************
  1252 ;; Defined at:
  1253 ;;		line 129 in file "./LCD.h"
  1254 ;; Parameters:    Size  Location     Type
  1255 ;;  character_in    1    wreg     unsigned char 
  1256 ;;  data            2    1[BANK0 ] PTR unsigned char 
  1257 ;;		 -> frisbee_target(8), selected_teamB_player_with_frisbee(8), selected_teamA_player_with_frisbee(8), frisbee(8), 
  1258 ;;		 -> teamB_player(8), selected_teamB_player(8), teamA_player(8), selected_teamA_player(8), 
  1259 ;; Auto vars:     Size  Location     Type
  1260 ;;  character_in    1    3[BANK0 ] unsigned char 
  1261 ;;  i               1    4[BANK0 ] unsigned char 
  1262 ;; Return value:  Size  Location     Type
  1263 ;;                  1    wreg      void 
  1264 ;; Registers used:
  1265 ;;		wreg, fsr2l, fsr2h, status,2, status,0, prodl, prodh, cstack
  1266 ;; Tracked objects:
  1267 ;;		On entry : 0/0
  1268 ;;		On exit  : 0/0
  1269 ;;		Unchanged: 0/0
  1270 ;; Data sizes:     COMRAM   BANK0   BANK1   BANK2   BANK3   BANK4   BANK5   BANK6   BANK7   BANK8   BANK9  BANK10  BANK1
      +1  BANK12  BANK13  BANK14  BANK15
  1271 ;;      Params:         0       2       0       0       0       0       0       0       0       0       0       0       
      +0       0       0       0       0
  1272 ;;      Locals:         0       2       0       0       0       0       0       0       0       0       0       0       
      +0       0       0       0       0
  1273 ;;      Temps:          0       0       0       0       0       0       0       0       0       0       0       0       
      +0       0       0       0       0
  1274 ;;      Totals:         0       4       0       0       0       0       0       0       0       0       0       0       
      +0       0       0       0       0
  1275 ;;Total ram usage:        4 bytes
  1276 ;; Hardware stack levels used:    1
  1277 ;; Hardware stack levels required when called:    6
  1278 ;; This function calls:
  1279 ;;		_LCDCmd
  1280 ;;		_LCDDat
  1281 ;; This function is called by:
  1282 ;;		_setInitialState
  1283 ;; This function uses a non-reentrant model
  1284 ;;
  1285                           
  1286                           	psect	text3
  1287  002E60                     __ptext3:
  1288                           	callstack 0
  1289  002E60                     _LCDAddSpecialCharacter:
  1290                           	callstack 23
  1291                           
  1292                           ;incstack = 0
  1293                           ;LCDAddSpecialCharacter@character_index stored from wreg
  1294  002E60  0100               	movlb	0	; () banked
  1295  002E62  6FCF               	movwf	LCDAddSpecialCharacter@character_index& (0+255),b
  1296  002E64                     
  1297                           ;./LCD.h: 135:     LCDCmd(0b01000000+(character_index*8));
  1298  002E64  0100               	movlb	0	; () banked
  1299  002E66  51CF               	movf	LCDAddSpecialCharacter@character_index& (0+255),w,b
  1300  002E68  0D08               	mullw	8
  1301  002E6A  50F3               	movf	243,w,c
  1302  002E6C  0F40               	addlw	64
  1303  002E6E  ECB7  F017         	call	_LCDCmd
  1304  002E72                     
  1305                           ;./LCD.h: 136:     for(byte i=0; i < 8; i++) {
  1306  002E72  0E00               	movlw	0
  1307  002E74  0100               	movlb	0	; () banked
  1308  002E76  6FD0               	movwf	LCDAddSpecialCharacter@i& (0+255),b
  1309  002E78                     l2923:
  1310                           
  1311                           ; BSR set to: 0
  1312                           ;./LCD.h: 137:         LCDDat(data[i]);
  1313  002E78  51D0               	movf	LCDAddSpecialCharacter@i& (0+255),w,b
  1314  002E7A  25CD               	addwf	LCDAddSpecialCharacter@data& (0+255),w,b
  1315  002E7C  6ED9               	movwf	fsr2l,c
  1316  002E7E  0E00               	movlw	0
  1317  002E80  21CE               	addwfc	(LCDAddSpecialCharacter@data+1)& (0+255),w,b
  1318  002E82  6EDA               	movwf	fsr2h,c
  1319  002E84  50DF               	movf	indf2,w,c
  1320  002E86  ECAD  F017         	call	_LCDDat
  1321  002E8A                     
  1322                           ;./LCD.h: 138:     }
  1323  002E8A  0100               	movlb	0	; () banked
  1324  002E8C  2BD0               	incf	LCDAddSpecialCharacter@i& (0+255),f,b
  1325  002E8E                     
  1326                           ; BSR set to: 0
  1327  002E8E  0E07               	movlw	7
  1328  002E90  65D0               	cpfsgt	LCDAddSpecialCharacter@i& (0+255),b
  1329  002E92  EF4D  F017         	goto	u2261
  1330  002E96  EF4F  F017         	goto	u2260
  1331  002E9A                     u2261:
  1332  002E9A  EF3C  F017         	goto	l2923
  1333  002E9E                     u2260:
  1334  002E9E                     
  1335                           ; BSR set to: 0
  1336  002E9E  0012               	return		;funcret
  1337  002EA0                     __end_of_LCDAddSpecialCharacter:
  1338                           	callstack 0
  1339                           
  1340 ;; *************** function _LCDDat *****************
  1341 ;; Defined at:
  1342 ;;		line 58 in file "./LCD.h"
  1343 ;; Parameters:    Size  Location     Type
  1344 ;;  dat             1    wreg     unsigned char 
  1345 ;; Auto vars:     Size  Location     Type
  1346 ;;  dat             1    0[BANK0 ] unsigned char 
  1347 ;; Return value:  Size  Location     Type
  1348 ;;                  1    wreg      void 
  1349 ;; Registers used:
  1350 ;;		wreg
  1351 ;; Tracked objects:
  1352 ;;		On entry : 0/0
  1353 ;;		On exit  : 0/0
  1354 ;;		Unchanged: 0/0
  1355 ;; Data sizes:     COMRAM   BANK0   BANK1   BANK2   BANK3   BANK4   BANK5   BANK6   BANK7   BANK8   BANK9  BANK10  BANK1
      +1  BANK12  BANK13  BANK14  BANK15
  1356 ;;      Params:         0       0       0       0       0       0       0       0       0       0       0       0       
      +0       0       0       0       0
  1357 ;;      Locals:         0       1       0       0       0       0       0       0       0       0       0       0       
      +0       0       0       0       0
  1358 ;;      Temps:          0       0       0       0       0       0       0       0       0       0       0       0       
      +0       0       0       0       0
  1359 ;;      Totals:         0       1       0       0       0       0       0       0       0       0       0       0       
      +0       0       0       0       0
  1360 ;;Total ram usage:        1 bytes
  1361 ;; Hardware stack levels used:    1
  1362 ;; Hardware stack levels required when called:    5
  1363 ;; This function calls:
  1364 ;;		Nothing
  1365 ;; This function is called by:
  1366 ;;		_LCDAddSpecialCharacter
  1367 ;;		_setInitialState
  1368 ;; This function uses a non-reentrant model
  1369 ;;
  1370                           
  1371                           	psect	text4
  1372  002F5A                     __ptext4:
  1373                           	callstack 0
  1374  002F5A                     _LCDDat:
  1375                           	callstack 24
  1376                           
  1377                           ; BSR set to: 0
  1378                           ;incstack = 0
  1379                           ;LCDDat@dat stored from wreg
  1380  002F5A  0100               	movlb	0	; () banked
  1381  002F5C  6FCC               	movwf	LCDDat@dat& (0+255),b
  1382  002F5E                     
  1383                           ;./LCD.h: 59:   PORTEbits.RE1 = 0;
  1384  002F5E  9284               	bcf	132,1,c	;volatile
  1385                           
  1386                           ;./LCD.h: 60:   PORTEbits.RE2 = 1;
  1387  002F60  8484               	bsf	132,2,c	;volatile
  1388  002F62                     
  1389                           ;./LCD.h: 61:   PORTD = dat;
  1390  002F62  C0CC  FF83         	movff	LCDDat@dat,3971	;volatile
  1391  002F66                     
  1392                           ;./LCD.h: 62:   PORTEbits.RE1 = 1;
  1393  002F66  8284               	bsf	132,1,c	;volatile
  1394  002F68                     
  1395                           ;./LCD.h: 64:   PORTEbits.RE1 = 0;
  1396  002F68  9284               	bcf	132,1,c	;volatile
  1397  002F6A                     
  1398                           ;./LCD.h: 66:   PORTEbits.RE2 = 0;
  1399  002F6A  9484               	bcf	132,2,c	;volatile
  1400  002F6C  0012               	return		;funcret
  1401  002F6E                     __end_of_LCDDat:
  1402                           	callstack 0
  1403                           
  1404 ;; *************** function _readADCChannel *****************
  1405 ;; Defined at:
  1406 ;;		line 13 in file "./ADC.h"
  1407 ;; Parameters:    Size  Location     Type
  1408 ;;  channel         1    wreg     unsigned char 
  1409 ;; Auto vars:     Size  Location     Type
  1410 ;;  channel         1    4[BANK0 ] unsigned char 
  1411 ;; Return value:  Size  Location     Type
  1412 ;;                  2    0[BANK0 ] unsigned short 
  1413 ;; Registers used:
  1414 ;;		wreg, status,2, status,0
  1415 ;; Tracked objects:
  1416 ;;		On entry : 0/0
  1417 ;;		On exit  : 0/0
  1418 ;;		Unchanged: 0/0
  1419 ;; Data sizes:     COMRAM   BANK0   BANK1   BANK2   BANK3   BANK4   BANK5   BANK6   BANK7   BANK8   BANK9  BANK10  BANK1
      +1  BANK12  BANK13  BANK14  BANK15
  1420 ;;      Params:         0       2       0       0       0       0       0       0       0       0       0       0       
      +0       0       0       0       0
  1421 ;;      Locals:         0       1       0       0       0       0       0       0       0       0       0       0       
      +0       0       0       0       0
  1422 ;;      Temps:          0       2       0       0       0       0       0       0       0       0       0       0       
      +0       0       0       0       0
  1423 ;;      Totals:         0       5       0       0       0       0       0       0       0       0       0       0       
      +0       0       0       0       0
  1424 ;;Total ram usage:        5 bytes
  1425 ;; Hardware stack levels used:    1
  1426 ;; Hardware stack levels required when called:    5
  1427 ;; This function calls:
  1428 ;;		Nothing
  1429 ;; This function is called by:
  1430 ;;		_main
  1431 ;; This function uses a non-reentrant model
  1432 ;;
  1433                           
  1434                           	psect	text5
  1435  002762                     __ptext5:
  1436                           	callstack 0
  1437  002762                     _readADCChannel:
  1438                           	callstack 25
  1439                           
  1440                           ;incstack = 0
  1441                           ;readADCChannel@channel stored from wreg
  1442  002762  0100               	movlb	0	; () banked
  1443  002764  6FD0               	movwf	readADCChannel@channel& (0+255),b
  1444  002766                     
  1445                           ;./ADC.h: 13:     unsigned short readADCChannel(unsigned char channel);./ADC.h: 14:     
      +                          {;./ADC.h: 16:         ADCON0bits.CHS0 = channel & 0x1;
  1446  002766  C0D0  F0CE         	movff	readADCChannel@channel,??_readADCChannel
  1447  00276A  0E01               	movlw	1
  1448  00276C  0100               	movlb	0	; () banked
  1449  00276E  17CE               	andwf	??_readADCChannel& (0+255),f,b
  1450  002770  47CE               	rlncf	??_readADCChannel& (0+255),f,b
  1451  002772  47CE               	rlncf	??_readADCChannel& (0+255),f,b
  1452  002774  50C2               	movf	194,w,c	;volatile
  1453  002776  19CE               	xorwf	??_readADCChannel& (0+255),w,b
  1454  002778  0BFB               	andlw	-5
  1455  00277A  19CE               	xorwf	??_readADCChannel& (0+255),w,b
  1456  00277C  6EC2               	movwf	194,c	;volatile
  1457                           
  1458                           ;./ADC.h: 17:         ADCON0bits.CHS1 = (channel >> 1) & 0x1;
  1459  00277E  C0D0  F0CE         	movff	readADCChannel@channel,??_readADCChannel
  1460  002782  90D8               	bcf	status,0,c
  1461  002784  33CE               	rrcf	??_readADCChannel& (0+255),f,b
  1462  002786  0E01               	movlw	1
  1463  002788  17CE               	andwf	??_readADCChannel& (0+255),f,b
  1464  00278A  47CE               	rlncf	??_readADCChannel& (0+255),f,b
  1465  00278C  47CE               	rlncf	??_readADCChannel& (0+255),f,b
  1466  00278E  47CE               	rlncf	??_readADCChannel& (0+255),f,b
  1467  002790  50C2               	movf	194,w,c	;volatile
  1468  002792  19CE               	xorwf	??_readADCChannel& (0+255),w,b
  1469  002794  0BF7               	andlw	-9
  1470  002796  19CE               	xorwf	??_readADCChannel& (0+255),w,b
  1471  002798  6EC2               	movwf	194,c	;volatile
  1472                           
  1473                           ;./ADC.h: 18:         ADCON0bits.CHS2 = (channel >> 2) & 0x1;
  1474  00279A  C0D0  F0CE         	movff	readADCChannel@channel,??_readADCChannel
  1475  00279E  90D8               	bcf	status,0,c
  1476  0027A0  33CE               	rrcf	??_readADCChannel& (0+255),f,b
  1477  0027A2  90D8               	bcf	status,0,c
  1478  0027A4  33CE               	rrcf	??_readADCChannel& (0+255),f,b
  1479  0027A6  0E01               	movlw	1
  1480  0027A8  17CE               	andwf	??_readADCChannel& (0+255),f,b
  1481  0027AA  3BCE               	swapf	??_readADCChannel& (0+255),f,b
  1482  0027AC  50C2               	movf	194,w,c	;volatile
  1483  0027AE  19CE               	xorwf	??_readADCChannel& (0+255),w,b
  1484  0027B0  0BEF               	andlw	-17
  1485  0027B2  19CE               	xorwf	??_readADCChannel& (0+255),w,b
  1486  0027B4  6EC2               	movwf	194,c	;volatile
  1487                           
  1488                           ;./ADC.h: 19:         ADCON0bits.CHS3 = (channel >> 3) & 0x1;
  1489  0027B6  C0D0  F0CE         	movff	readADCChannel@channel,??_readADCChannel
  1490  0027BA  90D8               	bcf	status,0,c
  1491  0027BC  33CE               	rrcf	??_readADCChannel& (0+255),f,b
  1492  0027BE  90D8               	bcf	status,0,c
  1493  0027C0  33CE               	rrcf	??_readADCChannel& (0+255),f,b
  1494  0027C2  90D8               	bcf	status,0,c
  1495  0027C4  33CE               	rrcf	??_readADCChannel& (0+255),f,b
  1496  0027C6  0E01               	movlw	1
  1497  0027C8  17CE               	andwf	??_readADCChannel& (0+255),f,b
  1498  0027CA  3BCE               	swapf	??_readADCChannel& (0+255),f,b
  1499  0027CC  47CE               	rlncf	??_readADCChannel& (0+255),f,b
  1500  0027CE  50C2               	movf	194,w,c	;volatile
  1501  0027D0  19CE               	xorwf	??_readADCChannel& (0+255),w,b
  1502  0027D2  0BDF               	andlw	-33
  1503  0027D4  19CE               	xorwf	??_readADCChannel& (0+255),w,b
  1504  0027D6  6EC2               	movwf	194,c	;volatile
  1505  0027D8                     
  1506                           ; BSR set to: 0
  1507                           ;./ADC.h: 23:         ADCON0bits.GODONE = 1;
  1508  0027D8  82C2               	bsf	194,1,c	;volatile
  1509  0027DA                     l67:
  1510  0027DA  B2C2               	btfsc	194,1,c	;volatile
  1511  0027DC  EFF2  F013         	goto	u1641
  1512  0027E0  EFF4  F013         	goto	u1640
  1513  0027E4                     u1641:
  1514  0027E4  EFED  F013         	goto	l67
  1515  0027E8                     u1640:
  1516  0027E8                     
  1517                           ;./ADC.h: 28:         PIR1bits.ADIF = 0;
  1518  0027E8  9C9E               	bcf	158,6,c	;volatile
  1519  0027EA                     
  1520                           ;./ADC.h: 30:         return (unsigned short)((ADRESH << 8)+ADRESL);
  1521  0027EA  50C4               	movf	196,w,c	;volatile
  1522  0027EC  0100               	movlb	0	; () banked
  1523  0027EE  6FCF               	movwf	(??_readADCChannel+1)& (0+255),b
  1524  0027F0  6BCE               	clrf	??_readADCChannel& (0+255),b
  1525  0027F2  50C3               	movf	195,w,c	;volatile
  1526  0027F4  25CE               	addwf	??_readADCChannel& (0+255),w,b
  1527  0027F6  6FCC               	movwf	?_readADCChannel& (0+255),b
  1528  0027F8  0E00               	movlw	0
  1529  0027FA  21CF               	addwfc	(??_readADCChannel+1)& (0+255),w,b
  1530  0027FC  6FCD               	movwf	(?_readADCChannel+1)& (0+255),b
  1531  0027FE                     
  1532                           ; BSR set to: 0
  1533  0027FE  0012               	return		;funcret
  1534  002800                     __end_of_readADCChannel:
  1535                           	callstack 0
  1536                           
  1537 ;; *************** function _initRegisters *****************
  1538 ;; Defined at:
  1539 ;;		line 260 in file "newmain.c"
  1540 ;; Parameters:    Size  Location     Type
  1541 ;;		None
  1542 ;; Auto vars:     Size  Location     Type
  1543 ;;		None
  1544 ;; Return value:  Size  Location     Type
  1545 ;;                  1    wreg      void 
  1546 ;; Registers used:
  1547 ;;		wreg, status,2
  1548 ;; Tracked objects:
  1549 ;;		On entry : 0/0
  1550 ;;		On exit  : 0/0
  1551 ;;		Unchanged: 0/0
  1552 ;; Data sizes:     COMRAM   BANK0   BANK1   BANK2   BANK3   BANK4   BANK5   BANK6   BANK7   BANK8   BANK9  BANK10  BANK1
      +1  BANK12  BANK13  BANK14  BANK15
  1553 ;;      Params:         0       0       0       0       0       0       0       0       0       0       0       0       
      +0       0       0       0       0
  1554 ;;      Locals:         0       0       0       0       0       0       0       0       0       0       0       0       
      +0       0       0       0       0
  1555 ;;      Temps:          0       0       0       0       0       0       0       0       0       0       0       0       
      +0       0       0       0       0
  1556 ;;      Totals:         0       0       0       0       0       0       0       0       0       0       0       0       
      +0       0       0       0       0
  1557 ;;Total ram usage:        0 bytes
  1558 ;; Hardware stack levels used:    1
  1559 ;; Hardware stack levels required when called:    5
  1560 ;; This function calls:
  1561 ;;		Nothing
  1562 ;; This function is called by:
  1563 ;;		_main
  1564 ;; This function uses a non-reentrant model
  1565 ;;
  1566                           
  1567                           	psect	text6
  1568  002C52                     __ptext6:
  1569                           	callstack 0
  1570  002C52                     _initRegisters:
  1571                           	callstack 25
  1572  002C52                     
  1573                           ;newmain.c: 263:     TRISB = 0;
  1574  002C52  0E00               	movlw	0
  1575  002C54  6E93               	movwf	147,c	;volatile
  1576  002C56                     
  1577                           ;newmain.c: 264:     TRISBbits.RB0 = 1;
  1578  002C56  8093               	bsf	147,0,c	;volatile
  1579  002C58                     
  1580                           ;newmain.c: 265:     TRISBbits.RB1 = 1;
  1581  002C58  8293               	bsf	147,1,c	;volatile
  1582  002C5A                     
  1583                           ;newmain.c: 266:     TRISBbits.RB4 = 1;
  1584  002C5A  8893               	bsf	147,4,c	;volatile
  1585  002C5C                     
  1586                           ;newmain.c: 267:     TRISBbits.RB5 = 1;
  1587  002C5C  8A93               	bsf	147,5,c	;volatile
  1588  002C5E                     
  1589                           ;newmain.c: 268:     TRISBbits.RB6 = 1;
  1590  002C5E  8C93               	bsf	147,6,c	;volatile
  1591  002C60                     
  1592                           ;newmain.c: 269:     TRISBbits.RB7 = 1;
  1593  002C60  8E93               	bsf	147,7,c	;volatile
  1594                           
  1595                           ;newmain.c: 270:     LATB = 0;
  1596  002C62  0E00               	movlw	0
  1597  002C64  6E8A               	movwf	138,c	;volatile
  1598  002C66                     
  1599                           ;newmain.c: 272:     INTCONbits.RBIF = 0;
  1600  002C66  90F2               	bcf	242,0,c	;volatile
  1601  002C68                     
  1602                           ;newmain.c: 273:     INTCONbits.RBIE = 1;
  1603  002C68  86F2               	bsf	242,3,c	;volatile
  1604                           
  1605                           ;newmain.c: 274:     LATB = 0;
  1606  002C6A  0E00               	movlw	0
  1607  002C6C  6E8A               	movwf	138,c	;volatile
  1608  002C6E                     
  1609                           ;newmain.c: 276:     INTCONbits.INT0IE = 1;
  1610  002C6E  88F2               	bsf	242,4,c	;volatile
  1611  002C70                     
  1612                           ;newmain.c: 277:     INTCONbits.INT0IF = 0;
  1613  002C70  92F2               	bcf	242,1,c	;volatile
  1614                           
  1615                           ;newmain.c: 278:     LATB = 0;
  1616  002C72  0E00               	movlw	0
  1617  002C74  6E8A               	movwf	138,c	;volatile
  1618  002C76                     
  1619                           ;newmain.c: 280:     INTCON3bits.INT1IE = 1;
  1620  002C76  86F0               	bsf	240,3,c	;volatile
  1621  002C78                     
  1622                           ;newmain.c: 281:     INTCON3bits.INT1IF = 0;
  1623  002C78  90F0               	bcf	240,0,c	;volatile
  1624  002C7A                     
  1625                           ;newmain.c: 284:     INTCONbits.GIE = 1;
  1626  002C7A  8EF2               	bsf	242,7,c	;volatile
  1627  002C7C                     
  1628                           ;newmain.c: 285:     INTCONbits.PEIE = 1;
  1629  002C7C  8CF2               	bsf	242,6,c	;volatile
  1630  002C7E                     
  1631                           ;newmain.c: 287:     INTCONbits.TMR0IE = 1;
  1632  002C7E  8AF2               	bsf	242,5,c	;volatile
  1633                           
  1634                           ;newmain.c: 289:     T0CON = 0b10000111;
  1635  002C80  0E87               	movlw	135
  1636  002C82  6ED5               	movwf	213,c	;volatile
  1637  002C84                     
  1638                           ;newmain.c: 290:     TMR0 = TIMER0_INITIAL_VALUE;
  1639  002C84  C073  FFD6         	movff	_TIMER0_INITIAL_VALUE,4054	;volatile
  1640  002C88  C074  FFD7         	movff	_TIMER0_INITIAL_VALUE+1,4055	;volatile
  1641                           
  1642                           ;newmain.c: 294:     T1CON = 0;
  1643  002C8C  0E00               	movlw	0
  1644  002C8E  6ECD               	movwf	205,c	;volatile
  1645                           
  1646                           ;newmain.c: 295:     TMR1 = 0;
  1647  002C90  0E00               	movlw	0
  1648  002C92  6ECF               	movwf	207,c	;volatile
  1649  002C94  0E00               	movlw	0
  1650  002C96  6ECE               	movwf	206,c	;volatile
  1651  002C98                     
  1652                           ;newmain.c: 296:     T1CONbits.TMR1ON = 1;
  1653  002C98  80CD               	bsf	205,0,c	;volatile
  1654                           
  1655                           ;newmain.c: 299:     T2CON = 0;
  1656  002C9A  0E00               	movlw	0
  1657  002C9C  6ECA               	movwf	202,c	;volatile
  1658  002C9E                     
  1659                           ;newmain.c: 300:     TMR2 = TIMER2_INITIAL_VALUE;
  1660  002C9E  C066  FFCC         	movff	_TIMER2_INITIAL_VALUE,4044	;volatile
  1661                           
  1662                           ;newmain.c: 301:     T2CONbits.T2CKPS = 0b11;
  1663  002CA2  0E03               	movlw	3
  1664  002CA4  12CA               	iorwf	202,f,c	;volatile
  1665  002CA6                     
  1666                           ;newmain.c: 303:     T2CONbits.T2OUTPS0 = 1;
  1667  002CA6  86CA               	bsf	202,3,c	;volatile
  1668  002CA8                     
  1669                           ;newmain.c: 304:     T2CONbits.T2OUTPS1 = 1;
  1670  002CA8  88CA               	bsf	202,4,c	;volatile
  1671  002CAA                     
  1672                           ;newmain.c: 305:     T2CONbits.T2OUTPS2 = 1;
  1673  002CAA  8ACA               	bsf	202,5,c	;volatile
  1674  002CAC                     
  1675                           ;newmain.c: 306:     T2CONbits.T2OUTPS3 = 1;
  1676  002CAC  8CCA               	bsf	202,6,c	;volatile
  1677  002CAE                     
  1678                           ;newmain.c: 307:     T2CONbits.TMR2ON = 1;
  1679  002CAE  84CA               	bsf	202,2,c	;volatile
  1680                           
  1681                           ;newmain.c: 309:     LATB = 0;
  1682  002CB0  0E00               	movlw	0
  1683  002CB2  6E8A               	movwf	138,c	;volatile
  1684  002CB4                     
  1685                           ;newmain.c: 310:     PORTB;;
  1686  002CB4  5081               	movf	129,w,c	;volatile
  1687  002CB6  0012               	return		;funcret
  1688  002CB8                     __end_of_initRegisters:
  1689                           	callstack 0
  1690                           
  1691 ;; *************** function _initADC *****************
  1692 ;; Defined at:
  1693 ;;		line 35 in file "./ADC.h"
  1694 ;; Parameters:    Size  Location     Type
  1695 ;;		None
  1696 ;; Auto vars:     Size  Location     Type
  1697 ;;		None
  1698 ;; Return value:  Size  Location     Type
  1699 ;;                  1    wreg      void 
  1700 ;; Registers used:
  1701 ;;		None
  1702 ;; Tracked objects:
  1703 ;;		On entry : 0/0
  1704 ;;		On exit  : 0/0
  1705 ;;		Unchanged: 0/0
  1706 ;; Data sizes:     COMRAM   BANK0   BANK1   BANK2   BANK3   BANK4   BANK5   BANK6   BANK7   BANK8   BANK9  BANK10  BANK1
      +1  BANK12  BANK13  BANK14  BANK15
  1707 ;;      Params:         0       0       0       0       0       0       0       0       0       0       0       0       
      +0       0       0       0       0
  1708 ;;      Locals:         0       0       0       0       0       0       0       0       0       0       0       0       
      +0       0       0       0       0
  1709 ;;      Temps:          0       0       0       0       0       0       0       0       0       0       0       0       
      +0       0       0       0       0
  1710 ;;      Totals:         0       0       0       0       0       0       0       0       0       0       0       0       
      +0       0       0       0       0
  1711 ;;Total ram usage:        0 bytes
  1712 ;; Hardware stack levels used:    1
  1713 ;; Hardware stack levels required when called:    5
  1714 ;; This function calls:
  1715 ;;		Nothing
  1716 ;; This function is called by:
  1717 ;;		_main
  1718 ;; This function uses a non-reentrant model
  1719 ;;
  1720                           
  1721                           	psect	text7
  1722  002F36                     __ptext7:
  1723                           	callstack 0
  1724  002F36                     _initADC:
  1725                           	callstack 25
  1726  002F36                     
  1727                           ;./ADC.h: 37:         ADCON1bits.PCFG3 = 1;
  1728  002F36  86C1               	bsf	193,3,c	;volatile
  1729                           
  1730                           ;./ADC.h: 38:         ADCON1bits.PCFG2 = 1;
  1731  002F38  84C1               	bsf	193,2,c	;volatile
  1732                           
  1733                           ;./ADC.h: 39:         ADCON1bits.PCFG1 = 0;
  1734  002F3A  92C1               	bcf	193,1,c	;volatile
  1735                           
  1736                           ;./ADC.h: 40:         ADCON1bits.PCFG0 = 0;
  1737  002F3C  90C1               	bcf	193,0,c	;volatile
  1738                           
  1739                           ;./ADC.h: 42:         ADCON1bits.VCFG0 = 0;
  1740  002F3E  98C1               	bcf	193,4,c	;volatile
  1741                           
  1742                           ;./ADC.h: 43:         ADCON1bits.VCFG1 = 0;
  1743  002F40  9AC1               	bcf	193,5,c	;volatile
  1744                           
  1745                           ;./ADC.h: 45:         TRISAbits.RA0 = 1;
  1746  002F42  8092               	bsf	146,0,c	;volatile
  1747                           
  1748                           ;./ADC.h: 46:         TRISAbits.RA1 = 1;
  1749  002F44  8292               	bsf	146,1,c	;volatile
  1750                           
  1751                           ;./ADC.h: 47:         TRISAbits.RA2 = 0;
  1752  002F46  9492               	bcf	146,2,c	;volatile
  1753                           
  1754                           ;./ADC.h: 56:         ADCON2bits.ADCS2 = 0;
  1755  002F48  94C0               	bcf	192,2,c	;volatile
  1756                           
  1757                           ;./ADC.h: 57:         ADCON2bits.ADCS1 = 1;
  1758  002F4A  82C0               	bsf	192,1,c	;volatile
  1759                           
  1760                           ;./ADC.h: 58:         ADCON2bits.ADCS0 = 0;
  1761  002F4C  90C0               	bcf	192,0,c	;volatile
  1762                           
  1763                           ;./ADC.h: 60:         ADCON2bits.ACQT2 = 0;
  1764  002F4E  9AC0               	bcf	192,5,c	;volatile
  1765                           
  1766                           ;./ADC.h: 61:         ADCON2bits.ACQT1 = 1;
  1767  002F50  88C0               	bsf	192,4,c	;volatile
  1768                           
  1769                           ;./ADC.h: 62:         ADCON2bits.ACQT0 = 0;
  1770  002F52  96C0               	bcf	192,3,c	;volatile
  1771                           
  1772                           ;./ADC.h: 64:         ADCON2bits.ADFM = 1;
  1773  002F54  8EC0               	bsf	192,7,c	;volatile
  1774                           
  1775                           ;./ADC.h: 66:         ADCON0bits.ADON = 1;
  1776  002F56  80C2               	bsf	194,0,c	;volatile
  1777  002F58  0012               	return		;funcret
  1778  002F5A                     __end_of_initADC:
  1779                           	callstack 0
  1780                           
  1781 ;; *************** function _display_7seg *****************
  1782 ;; Defined at:
  1783 ;;		line 116 in file "newmain.c"
  1784 ;; Parameters:    Size  Location     Type
  1785 ;;		None
  1786 ;; Auto vars:     Size  Location     Type
  1787 ;;		None
  1788 ;; Return value:  Size  Location     Type
  1789 ;;                  1    wreg      void 
  1790 ;; Registers used:
  1791 ;;		wreg, fsr2l, fsr2h, status,2, status,0
  1792 ;; Tracked objects:
  1793 ;;		On entry : 0/0
  1794 ;;		On exit  : 0/0
  1795 ;;		Unchanged: 0/0
  1796 ;; Data sizes:     COMRAM   BANK0   BANK1   BANK2   BANK3   BANK4   BANK5   BANK6   BANK7   BANK8   BANK9  BANK10  BANK1
      +1  BANK12  BANK13  BANK14  BANK15
  1797 ;;      Params:         0       0       0       0       0       0       0       0       0       0       0       0       
      +0       0       0       0       0
  1798 ;;      Locals:         0       0       0       0       0       0       0       0       0       0       0       0       
      +0       0       0       0       0
  1799 ;;      Temps:          0       1       0       0       0       0       0       0       0       0       0       0       
      +0       0       0       0       0
  1800 ;;      Totals:         0       1       0       0       0       0       0       0       0       0       0       0       
      +0       0       0       0       0
  1801 ;;Total ram usage:        1 bytes
  1802 ;; Hardware stack levels used:    1
  1803 ;; Hardware stack levels required when called:    5
  1804 ;; This function calls:
  1805 ;;		Nothing
  1806 ;; This function is called by:
  1807 ;;		_main
  1808 ;; This function uses a non-reentrant model
  1809 ;;
  1810                           
  1811                           	psect	text8
  1812  002B7C                     __ptext8:
  1813                           	callstack 0
  1814  002B7C                     _display_7seg:
  1815                           	callstack 25
  1816  002B7C                     
  1817                           ;newmain.c: 117:     TRISA = 0;
  1818  002B7C  0E00               	movlw	0
  1819  002B7E  6E92               	movwf	146,c	;volatile
  1820                           
  1821                           ;newmain.c: 118:     LATA = 0b00001000;
  1822  002B80  0E08               	movlw	8
  1823  002B82  6E89               	movwf	137,c	;volatile
  1824  002B84                     
  1825                           ;newmain.c: 119:     LATD = digits[gameState.teamA_score];
  1826  002B84  0E5C               	movlw	low _digits
  1827  002B86  2456               	addwf	(_gameState+22)^0,w,c
  1828  002B88  6ED9               	movwf	fsr2l,c
  1829  002B8A  0E00               	movlw	high _digits
  1830  002B8C  2057               	addwfc	(_gameState+23)^0,w,c
  1831  002B8E  6EDA               	movwf	fsr2h,c
  1832  002B90  50DF               	movf	indf2,w,c
  1833  002B92  6E8C               	movwf	140,c	;volatile
  1834  002B94                     
  1835                           ;newmain.c: 120:     _delay((unsigned long)((1)*(40000000L/4000.0)));
  1836  002B94  0E0D               	movlw	13
  1837  002B96  0100               	movlb	0	; () banked
  1838  002B98  6FCC               	movwf	??_display_7seg& (0+255),b
  1839  002B9A  0EFB               	movlw	251
  1840  002B9C                     u2307:
  1841  002B9C  2EE8               	decfsz	wreg,f,c
  1842  002B9E  D7FE               	bra	u2307
  1843  002BA0  2FCC               	decfsz	??_display_7seg& (0+255),f,b
  1844  002BA2  D7FC               	bra	u2307
  1845  002BA4  D000               	nop2	
  1846  002BA6                     
  1847                           ;newmain.c: 121:     LATA = 0b00010000;
  1848  002BA6  0E10               	movlw	16
  1849  002BA8  6E89               	movwf	137,c	;volatile
  1850  002BAA                     
  1851                           ;newmain.c: 122:     LATD = dash;
  1852  002BAA  0E40               	movlw	64
  1853  002BAC  6E8C               	movwf	140,c	;volatile
  1854  002BAE                     
  1855                           ;newmain.c: 123:     _delay((unsigned long)((1)*(40000000L/4000.0)));
  1856  002BAE  0E0D               	movlw	13
  1857  002BB0  0100               	movlb	0	; () banked
  1858  002BB2  6FCC               	movwf	??_display_7seg& (0+255),b
  1859  002BB4  0EFB               	movlw	251
  1860  002BB6                     u2317:
  1861  002BB6  2EE8               	decfsz	wreg,f,c
  1862  002BB8  D7FE               	bra	u2317
  1863  002BBA  2FCC               	decfsz	??_display_7seg& (0+255),f,b
  1864  002BBC  D7FC               	bra	u2317
  1865  002BBE  D000               	nop2	
  1866  002BC0                     
  1867                           ;newmain.c: 124:     LATA = 0b00100000;
  1868  002BC0  0E20               	movlw	32
  1869  002BC2  6E89               	movwf	137,c	;volatile
  1870                           
  1871                           ;newmain.c: 125:     LATD = digits[gameState.teamB_score];
  1872  002BC4  0E5C               	movlw	low _digits
  1873  002BC6  2458               	addwf	(_gameState+24)^0,w,c
  1874  002BC8  6ED9               	movwf	fsr2l,c
  1875  002BCA  0E00               	movlw	high _digits
  1876  002BCC  2059               	addwfc	(_gameState+25)^0,w,c
  1877  002BCE  6EDA               	movwf	fsr2h,c
  1878  002BD0  50DF               	movf	indf2,w,c
  1879  002BD2  6E8C               	movwf	140,c	;volatile
  1880  002BD4                     
  1881                           ;newmain.c: 126:     _delay((unsigned long)((1)*(40000000L/4000.0)));
  1882  002BD4  0E0D               	movlw	13
  1883  002BD6  0100               	movlb	0	; () banked
  1884  002BD8  6FCC               	movwf	??_display_7seg& (0+255),b
  1885  002BDA  0EFB               	movlw	251
  1886  002BDC                     u2327:
  1887  002BDC  2EE8               	decfsz	wreg,f,c
  1888  002BDE  D7FE               	bra	u2327
  1889  002BE0  2FCC               	decfsz	??_display_7seg& (0+255),f,b
  1890  002BE2  D7FC               	bra	u2327
  1891  002BE4  D000               	nop2	
  1892  002BE6  0012               	return		;funcret
  1893  002BE8                     __end_of_display_7seg:
  1894                           	callstack 0
  1895                           
  1896 ;; *************** function _InitLCD *****************
  1897 ;; Defined at:
  1898 ;;		line 108 in file "./LCD.h"
  1899 ;; Parameters:    Size  Location     Type
  1900 ;;		None
  1901 ;; Auto vars:     Size  Location     Type
  1902 ;;		None
  1903 ;; Return value:  Size  Location     Type
  1904 ;;                  1    wreg      void 
  1905 ;; Registers used:
  1906 ;;		wreg, status,2, cstack
  1907 ;; Tracked objects:
  1908 ;;		On entry : 0/0
  1909 ;;		On exit  : 0/0
  1910 ;;		Unchanged: 0/0
  1911 ;; Data sizes:     COMRAM   BANK0   BANK1   BANK2   BANK3   BANK4   BANK5   BANK6   BANK7   BANK8   BANK9  BANK10  BANK1
      +1  BANK12  BANK13  BANK14  BANK15
  1912 ;;      Params:         0       0       0       0       0       0       0       0       0       0       0       0       
      +0       0       0       0       0
  1913 ;;      Locals:         0       0       0       0       0       0       0       0       0       0       0       0       
      +0       0       0       0       0
  1914 ;;      Temps:          0       0       0       0       0       0       0       0       0       0       0       0       
      +0       0       0       0       0
  1915 ;;      Totals:         0       0       0       0       0       0       0       0       0       0       0       0       
      +0       0       0       0       0
  1916 ;;Total ram usage:        0 bytes
  1917 ;; Hardware stack levels used:    1
  1918 ;; Hardware stack levels required when called:    6
  1919 ;; This function calls:
  1920 ;;		_LCDCmd
  1921 ;; This function is called by:
  1922 ;;		_main
  1923 ;; This function uses a non-reentrant model
  1924 ;;
  1925                           
  1926                           	psect	text9
  1927  002ED8                     __ptext9:
  1928                           	callstack 0
  1929  002ED8                     _InitLCD:
  1930                           	callstack 24
  1931  002ED8                     
  1932                           ;./LCD.h: 109:   TRISEbits.RE1 = 0;
  1933  002ED8  9296               	bcf	150,1,c	;volatile
  1934                           
  1935                           ;./LCD.h: 110:   TRISEbits.RE2 = 0;
  1936  002EDA  9496               	bcf	150,2,c	;volatile
  1937  002EDC                     
  1938                           ;./LCD.h: 111:   TRISD = 0;
  1939  002EDC  0E00               	movlw	0
  1940  002EDE  6E95               	movwf	149,c	;volatile
  1941  002EE0                     
  1942                           ;./LCD.h: 113:   PORTEbits.RE1 = 0;
  1943  002EE0  9284               	bcf	132,1,c	;volatile
  1944  002EE2                     
  1945                           ;./LCD.h: 114:   PORTEbits.RE2 = 0;
  1946  002EE2  9484               	bcf	132,2,c	;volatile
  1947  002EE4                     
  1948                           ;./LCD.h: 115:   LCDCmd(0x38);
  1949  002EE4  0E38               	movlw	56
  1950  002EE6  ECB7  F017         	call	_LCDCmd
  1951  002EEA                     
  1952                           ;./LCD.h: 116:   LCDCmd(0x08);
  1953  002EEA  0E08               	movlw	8
  1954  002EEC  ECB7  F017         	call	_LCDCmd
  1955  002EF0                     
  1956                           ;./LCD.h: 117:   LCDCmd(0x0C);
  1957  002EF0  0E0C               	movlw	12
  1958  002EF2  ECB7  F017         	call	_LCDCmd
  1959  002EF6                     
  1960                           ;./LCD.h: 118:   LCDCmd(0x06);
  1961  002EF6  0E06               	movlw	6
  1962  002EF8  ECB7  F017         	call	_LCDCmd
  1963  002EFC                     
  1964                           ;./LCD.h: 119:   LCDCmd(0x01);
  1965  002EFC  0E01               	movlw	1
  1966  002EFE  ECB7  F017         	call	_LCDCmd
  1967  002F02                     
  1968                           ;./LCD.h: 120:   LCDCmd(0x80);
  1969  002F02  0E80               	movlw	128
  1970  002F04  ECB7  F017         	call	_LCDCmd
  1971  002F08  0012               	return		;funcret
  1972  002F0A                     __end_of_InitLCD:
  1973                           	callstack 0
  1974                           
  1975 ;; *************** function _LCDCmd *****************
  1976 ;; Defined at:
  1977 ;;		line 48 in file "./LCD.h"
  1978 ;; Parameters:    Size  Location     Type
  1979 ;;  cmd             1    wreg     unsigned char 
  1980 ;; Auto vars:     Size  Location     Type
  1981 ;;  cmd             1    0[BANK0 ] unsigned char 
  1982 ;; Return value:  Size  Location     Type
  1983 ;;                  1    wreg      void 
  1984 ;; Registers used:
  1985 ;;		wreg
  1986 ;; Tracked objects:
  1987 ;;		On entry : 0/0
  1988 ;;		On exit  : 0/0
  1989 ;;		Unchanged: 0/0
  1990 ;; Data sizes:     COMRAM   BANK0   BANK1   BANK2   BANK3   BANK4   BANK5   BANK6   BANK7   BANK8   BANK9  BANK10  BANK1
      +1  BANK12  BANK13  BANK14  BANK15
  1991 ;;      Params:         0       0       0       0       0       0       0       0       0       0       0       0       
      +0       0       0       0       0
  1992 ;;      Locals:         0       1       0       0       0       0       0       0       0       0       0       0       
      +0       0       0       0       0
  1993 ;;      Temps:          0       0       0       0       0       0       0       0       0       0       0       0       
      +0       0       0       0       0
  1994 ;;      Totals:         0       1       0       0       0       0       0       0       0       0       0       0       
      +0       0       0       0       0
  1995 ;;Total ram usage:        1 bytes
  1996 ;; Hardware stack levels used:    1
  1997 ;; Hardware stack levels required when called:    5
  1998 ;; This function calls:
  1999 ;;		Nothing
  2000 ;; This function is called by:
  2001 ;;		_LCDGoto
  2002 ;;		_InitLCD
  2003 ;;		_LCDAddSpecialCharacter
  2004 ;; This function uses a non-reentrant model
  2005 ;;
  2006                           
  2007                           	psect	text10
  2008  002F6E                     __ptext10:
  2009                           	callstack 0
  2010  002F6E                     _LCDCmd:
  2011                           	callstack 23
  2012                           
  2013                           ;incstack = 0
  2014                           ;LCDCmd@cmd stored from wreg
  2015  002F6E  0100               	movlb	0	; () banked
  2016  002F70  6FCC               	movwf	LCDCmd@cmd& (0+255),b
  2017  002F72                     
  2018                           ;./LCD.h: 49:   PORTEbits.RE1 = 0;
  2019  002F72  9284               	bcf	132,1,c	;volatile
  2020                           
  2021                           ;./LCD.h: 50:   PORTEbits.RE2 = 0;
  2022  002F74  9484               	bcf	132,2,c	;volatile
  2023  002F76                     
  2024                           ;./LCD.h: 51:   PORTD = cmd;
  2025  002F76  C0CC  FF83         	movff	LCDCmd@cmd,3971	;volatile
  2026  002F7A                     
  2027                           ;./LCD.h: 52:   PORTEbits.RE1 = 1;
  2028  002F7A  8284               	bsf	132,1,c	;volatile
  2029  002F7C                     
  2030                           ;./LCD.h: 54:   PORTEbits.RE1 = 0;
  2031  002F7C  9284               	bcf	132,1,c	;volatile
  2032  002F7E  0012               	return		;funcret
  2033  002F80                     __end_of_LCDCmd:
  2034                           	callstack 0
  2035                           
  2036 ;; *************** function _FNC *****************
  2037 ;; Defined at:
  2038 ;;		line 555 in file "newmain.c"
  2039 ;; Parameters:    Size  Location     Type
  2040 ;;		None
  2041 ;; Auto vars:     Size  Location     Type
  2042 ;;		None
  2043 ;; Return value:  Size  Location     Type
  2044 ;;                  1    wreg      void 
  2045 ;; Registers used:
  2046 ;;		wreg, fsr2l, fsr2h, status,2, status,0, tblptrl, tblptrh, tblptru, cstack
  2047 ;; Tracked objects:
  2048 ;;		On entry : 0/0
  2049 ;;		On exit  : 0/0
  2050 ;;		Unchanged: 0/0
  2051 ;; Data sizes:     COMRAM   BANK0   BANK1   BANK2   BANK3   BANK4   BANK5   BANK6   BANK7   BANK8   BANK9  BANK10  BANK1
      +1  BANK12  BANK13  BANK14  BANK15
  2052 ;;      Params:         0       0       0       0       0       0       0       0       0       0       0       0       
      +0       0       0       0       0
  2053 ;;      Locals:         0       0       0       0       0       0       0       0       0       0       0       0       
      +0       0       0       0       0
  2054 ;;      Temps:          8       0       0       0       0       0       0       0       0       0       0       0       
      +0       0       0       0       0
  2055 ;;      Totals:         8       0       0       0       0       0       0       0       0       0       0       0       
      +0       0       0       0       0
  2056 ;;Total ram usage:        8 bytes
  2057 ;; Hardware stack levels used:    1
  2058 ;; Hardware stack levels required when called:    4
  2059 ;; This function calls:
  2060 ;;		_blink
  2061 ;;		_gamepadPressed
  2062 ;;		_moveFrisbee
  2063 ;;		_npcMove
  2064 ;;		_switchSelectedPlayer
  2065 ;;		_throwFrisbee
  2066 ;; This function is called by:
  2067 ;;		Interrupt level 2
  2068 ;; This function uses a non-reentrant model
  2069 ;;
  2070                           
  2071                           	psect	intcode
  2072  000008                     __pintcode:
  2073                           	callstack 0
  2074  000008                     _FNC:
  2075                           	callstack 23
  2076                           
  2077                           ;incstack = 0
  2078  000008  827C               	bsf	int$flags,1,c	;set compiler interrupt flag (level 2)
  2079  00000A  EDDF  F010         	call	int_func,f	;refresh shadow registers
  2080                           
  2081                           	psect	intcode_body
  2082  0021BE                     __pintcode_body:
  2083                           	callstack 23
  2084  0021BE                     int_func:
  2085                           	callstack 23
  2086  0021BE  0006               	pop		; remove dummy address from shadow register refresh
  2087  0021C0  CFD9 F03A          	movff	fsr2l,??_FNC+2
  2088  0021C4  CFDA F03B          	movff	fsr2h,??_FNC+3
  2089  0021C8  CFF6 F03C          	movff	tblptrl,??_FNC+4
  2090  0021CC  CFF7 F03D          	movff	tblptrh,??_FNC+5
  2091  0021D0  CFF8 F03E          	movff	tblptru,??_FNC+6
  2092  0021D4  CFF5 F03F          	movff	tablat,??_FNC+7
  2093  0021D8                     
  2094                           ;newmain.c: 559:     if (TMR0IF) {
  2095  0021D8  A4F2               	btfss	4082,2,c	;volatile
  2096  0021DA  EFF1  F010         	goto	i2u210_41
  2097  0021DE  EFF3  F010         	goto	i2u210_40
  2098  0021E2                     i2u210_41:
  2099  0021E2  EF05  F011         	goto	i2l2773
  2100  0021E6                     i2u210_40:
  2101  0021E6                     
  2102                           ;newmain.c: 560:         TMR0IF = 0;
  2103  0021E6  94F2               	bcf	4082,2,c	;volatile
  2104  0021E8                     
  2105                           ;newmain.c: 561:         if(gameState.game_mode == 0) {
  2106  0021E8  505A               	movf	(_gameState+26)^0,w,c
  2107  0021EA  105B               	iorwf	(_gameState+27)^0,w,c
  2108  0021EC  A4D8               	btfss	status,2,c
  2109  0021EE  EFFB  F010         	goto	i2u211_41
  2110  0021F2  EFFD  F010         	goto	i2u211_40
  2111  0021F6                     i2u211_41:
  2112  0021F6  EF01  F011         	goto	i2l2771
  2113  0021FA                     i2u211_40:
  2114  0021FA                     
  2115                           ;newmain.c: 562:             moveFrisbee();
  2116  0021FA  ECD4  F00D         	call	_moveFrisbee	;wreg free
  2117  0021FE                     
  2118                           ;newmain.c: 563:             npcMove();
  2119  0021FE  EC02  F008         	call	_npcMove	;wreg free
  2120  002202                     i2l2771:
  2121                           
  2122                           ;newmain.c: 565:         TMR0 = TIMER0_INITIAL_VALUE;
  2123  002202  C073  FFD6         	movff	_TIMER0_INITIAL_VALUE,4054	;volatile
  2124  002206  C074  FFD7         	movff	_TIMER0_INITIAL_VALUE+1,4055	;volatile
  2125  00220A                     i2l2773:
  2126                           
  2127                           ;newmain.c: 568:     if (PIR1bits.TMR1IF) {
  2128  00220A  A09E               	btfss	158,0,c	;volatile
  2129  00220C  EF0A  F011         	goto	i2u212_41
  2130  002210  EF0C  F011         	goto	i2u212_40
  2131  002214                     i2u212_41:
  2132  002214  EF0D  F011         	goto	i2l363
  2133  002218                     i2u212_40:
  2134  002218                     
  2135                           ;newmain.c: 569:         PIR1bits.TMR1IF = 0;
  2136  002218  909E               	bcf	158,0,c	;volatile
  2137  00221A                     i2l363:
  2138                           
  2139                           ;newmain.c: 572:     if (PIR1bits.TMR2IF) {
  2140  00221A  A29E               	btfss	158,1,c	;volatile
  2141  00221C  EF12  F011         	goto	i2u213_41
  2142  002220  EF14  F011         	goto	i2u213_40
  2143  002224                     i2u213_41:
  2144  002224  EF22  F011         	goto	i2l2785
  2145  002228                     i2u213_40:
  2146  002228                     
  2147                           ;newmain.c: 573:         PIR1bits.TMR2IF = 0;
  2148  002228  929E               	bcf	158,1,c	;volatile
  2149  00222A                     
  2150                           ;newmain.c: 574:         if (gameState.game_mode == 0){
  2151  00222A  505A               	movf	(_gameState+26)^0,w,c
  2152  00222C  105B               	iorwf	(_gameState+27)^0,w,c
  2153  00222E  A4D8               	btfss	status,2,c
  2154  002230  EF1C  F011         	goto	i2u214_41
  2155  002234  EF1E  F011         	goto	i2u214_40
  2156  002238                     i2u214_41:
  2157  002238  EF20  F011         	goto	i2l2783
  2158  00223C                     i2u214_40:
  2159  00223C                     
  2160                           ;newmain.c: 575:             blink();
  2161  00223C  ECE7  F016         	call	_blink	;wreg free
  2162  002240                     i2l2783:
  2163                           
  2164                           ;newmain.c: 577:         TMR2 = TIMER2_INITIAL_VALUE;
  2165  002240  C066  FFCC         	movff	_TIMER2_INITIAL_VALUE,4044	;volatile
  2166  002244                     i2l2785:
  2167                           
  2168                           ;newmain.c: 581:     if(INTCONbits.INT0IF) {
  2169  002244  A2F2               	btfss	242,1,c	;volatile
  2170  002246  EF27  F011         	goto	i2u215_41
  2171  00224A  EF29  F011         	goto	i2u215_40
  2172  00224E                     i2u215_41:
  2173  00224E  EF35  F011         	goto	i2l2793
  2174  002252                     i2u215_40:
  2175  002252                     
  2176                           ;newmain.c: 582:         INTCONbits.INT0IF = 0;
  2177  002252  92F2               	bcf	242,1,c	;volatile
  2178  002254                     
  2179                           ;newmain.c: 583:         if(frisbee_held){
  2180  002254  5071               	movf	_frisbee_held^0,w,c
  2181  002256  1072               	iorwf	(_frisbee_held+1)^0,w,c
  2182  002258  B4D8               	btfsc	status,2,c
  2183  00225A  EF31  F011         	goto	i2u216_41
  2184  00225E  EF33  F011         	goto	i2u216_40
  2185  002262                     i2u216_41:
  2186  002262  EF35  F011         	goto	i2l2793
  2187  002266                     i2u216_40:
  2188  002266                     
  2189                           ;newmain.c: 584:             throwFrisbee();
  2190  002266  EC6F  F011         	call	_throwFrisbee	;wreg free
  2191  00226A                     i2l2793:
  2192                           
  2193                           ;newmain.c: 589:     if(INTCON3bits.INT1IF) {
  2194  00226A  A0F0               	btfss	240,0,c	;volatile
  2195  00226C  EF3A  F011         	goto	i2u217_41
  2196  002270  EF3C  F011         	goto	i2u217_40
  2197  002274                     i2u217_41:
  2198  002274  EF56  F011         	goto	i2l2805
  2199  002278                     i2u217_40:
  2200  002278                     
  2201                           ;newmain.c: 590:         _delay((unsigned long)((30)*(40000000L/4000.0)));
  2202  002278  0E02               	movlw	2
  2203  00227A  6E39               	movwf	(??_FNC+1)^0,c
  2204  00227C  0E86               	movlw	134
  2205  00227E  6E38               	movwf	??_FNC^0,c
  2206  002280  0E99               	movlw	153
  2207  002282                     i2u233_47:
  2208  002282  2EE8               	decfsz	wreg,f,c
  2209  002284  D7FE               	bra	i2u233_47
  2210  002286  2E38               	decfsz	??_FNC^0,f,c
  2211  002288  D7FC               	bra	i2u233_47
  2212  00228A  2E39               	decfsz	(??_FNC+1)^0,f,c
  2213  00228C  D7FA               	bra	i2u233_47
  2214  00228E  F000               	nop	
  2215  002290                     
  2216                           ;newmain.c: 591:         INTCON3bits.INT1IF = 0;
  2217  002290  90F0               	bcf	240,0,c	;volatile
  2218  002292                     
  2219                           ;newmain.c: 592:         if(frisbee_held){
  2220  002292  5071               	movf	_frisbee_held^0,w,c
  2221  002294  1072               	iorwf	(_frisbee_held+1)^0,w,c
  2222  002296  B4D8               	btfsc	status,2,c
  2223  002298  EF50  F011         	goto	i2u218_41
  2224  00229C  EF52  F011         	goto	i2u218_40
  2225  0022A0                     i2u218_41:
  2226  0022A0  EF54  F011         	goto	i2l2803
  2227  0022A4                     i2u218_40:
  2228  0022A4  EF61  F011         	goto	i2l370
  2229  0022A8                     i2l2803:
  2230                           
  2231                           ;newmain.c: 595:         switchSelectedPlayer();
  2232  0022A8  EC15  F010         	call	_switchSelectedPlayer	;wreg free
  2233  0022AC                     i2l2805:
  2234                           
  2235                           ;newmain.c: 598:     if(INTCONbits.RBIF) {
  2236  0022AC  A0F2               	btfss	242,0,c	;volatile
  2237  0022AE  EF5B  F011         	goto	i2u219_41
  2238  0022B2  EF5D  F011         	goto	i2u219_40
  2239  0022B6                     i2u219_41:
  2240  0022B6  EF61  F011         	goto	i2l370
  2241  0022BA                     i2u219_40:
  2242  0022BA                     
  2243                           ;newmain.c: 599:         PORTB;;
  2244  0022BA  5081               	movf	129,w,c	;volatile
  2245  0022BC                     
  2246                           ;newmain.c: 600:         INTCONbits.RBIF = 0;
  2247  0022BC  90F2               	bcf	242,0,c	;volatile
  2248  0022BE                     
  2249                           ;newmain.c: 601:         gamepadPressed();
  2250  0022BE  EC2A  F00A         	call	_gamepadPressed	;wreg free
  2251  0022C2                     i2l370:
  2252  0022C2  C03F  FFF5         	movff	??_FNC+7,tablat
  2253  0022C6  C03E  FFF8         	movff	??_FNC+6,tblptru
  2254  0022CA  C03D  FFF7         	movff	??_FNC+5,tblptrh
  2255  0022CE  C03C  FFF6         	movff	??_FNC+4,tblptrl
  2256  0022D2  C03B  FFDA         	movff	??_FNC+3,fsr2h
  2257  0022D6  C03A  FFD9         	movff	??_FNC+2,fsr2l
  2258  0022DA  927C               	bcf	int$flags,1,c	;clear compiler interrupt flag (level 2)
  2259  0022DC  0011               	retfie		f
  2260  0022DE                     __end_of_FNC:
  2261                           	callstack 0
  2262                           
  2263 ;; *************** function _throwFrisbee *****************
  2264 ;; Defined at:
  2265 ;;		line 356 in file "newmain.c"
  2266 ;; Parameters:    Size  Location     Type
  2267 ;;		None
  2268 ;; Auto vars:     Size  Location     Type
  2269 ;;  selected_pla    2   53[COMRAM] int 
  2270 ;;  selected_pla    2   51[COMRAM] int 
  2271 ;;  selected_pla    2   49[COMRAM] int 
  2272 ;; Return value:  Size  Location     Type
  2273 ;;                  1    wreg      void 
  2274 ;; Registers used:
  2275 ;;		wreg, fsr2l, fsr2h, status,2, status,0, tblptrl, tblptrh, tblptru, cstack
  2276 ;; Tracked objects:
  2277 ;;		On entry : 0/0
  2278 ;;		On exit  : 0/0
  2279 ;;		Unchanged: 0/0
  2280 ;; Data sizes:     COMRAM   BANK0   BANK1   BANK2   BANK3   BANK4   BANK5   BANK6   BANK7   BANK8   BANK9  BANK10  BANK1
      +1  BANK12  BANK13  BANK14  BANK15
  2281 ;;      Params:         0       0       0       0       0       0       0       0       0       0       0       0       
      +0       0       0       0       0
  2282 ;;      Locals:         8       0       0       0       0       0       0       0       0       0       0       0       
      +0       0       0       0       0
  2283 ;;      Temps:          2       0       0       0       0       0       0       0       0       0       0       0       
      +0       0       0       0       0
  2284 ;;      Totals:        10       0       0       0       0       0       0       0       0       0       0       0       
      +0       0       0       0       0
  2285 ;;Total ram usage:       10 bytes
  2286 ;; Hardware stack levels used:    1
  2287 ;; Hardware stack levels required when called:    3
  2288 ;; This function calls:
  2289 ;;		_LCDStr
  2290 ;;		_compute_frisbee_target_and_route
  2291 ;;		i2_LCDDat
  2292 ;;		i2_LCDGoto
  2293 ;; This function is called by:
  2294 ;;		_FNC
  2295 ;; This function uses a non-reentrant model
  2296 ;;
  2297                           
  2298                           	psect	text12
  2299  0022DE                     __ptext12:
  2300                           	callstack 0
  2301  0022DE                     _throwFrisbee:
  2302                           	callstack 23
  2303  0022DE                     
  2304                           ;newmain.c: 357:     frisbee_held = 0;
  2305  0022DE  0E00               	movlw	0
  2306  0022E0  6E72               	movwf	(_frisbee_held+1)^0,c
  2307  0022E2  0E00               	movlw	0
  2308  0022E4  6E71               	movwf	_frisbee_held^0,c
  2309  0022E6                     
  2310                           ;newmain.c: 358:     int selected_player, selected_player_x, selected_player_y;;newmain.
      +                          c: 360:     selected_player = gameState.selected_player;
  2311  0022E6  C054  F036         	movff	_gameState+20,throwFrisbee@selected_player
  2312  0022EA  C055  F037         	movff	_gameState+21,throwFrisbee@selected_player+1
  2313  0022EE                     
  2314                           ;newmain.c: 361:     selected_player_x = gameState.player_positions[selected_player].x;
  2315  0022EE  0E40               	movlw	low _gameState
  2316  0022F0  6E2E               	movwf	??_throwFrisbee^0,c
  2317  0022F2  0E00               	movlw	high _gameState
  2318  0022F4  6E2F               	movwf	(??_throwFrisbee+1)^0,c
  2319  0022F6  90D8               	bcf	status,0,c
  2320  0022F8  3436               	rlcf	throwFrisbee@selected_player^0,w,c
  2321  0022FA  6ED9               	movwf	fsr2l,c
  2322  0022FC  3437               	rlcf	(throwFrisbee@selected_player+1)^0,w,c
  2323  0022FE  6EDA               	movwf	fsr2h,c
  2324  002300  90D8               	bcf	status,0,c
  2325  002302  36D9               	rlcf	fsr2l,f,c
  2326  002304  36DA               	rlcf	fsr2h,f,c
  2327  002306  502E               	movf	??_throwFrisbee^0,w,c
  2328  002308  26D9               	addwf	fsr2l,f,c
  2329  00230A  502F               	movf	(??_throwFrisbee+1)^0,w,c
  2330  00230C  22DA               	addwfc	fsr2h,f,c
  2331  00230E  CFDE F032          	movff	postinc2,throwFrisbee@selected_player_x
  2332  002312  CFDD F033          	movff	postdec2,throwFrisbee@selected_player_x+1
  2333  002316                     
  2334                           ;newmain.c: 362:     selected_player_y = gameState.player_positions[selected_player].y;
  2335  002316  0E40               	movlw	low _gameState
  2336  002318  6E2E               	movwf	??_throwFrisbee^0,c
  2337  00231A  0E00               	movlw	high _gameState
  2338  00231C  6E2F               	movwf	(??_throwFrisbee+1)^0,c
  2339  00231E  0E02               	movlw	2
  2340  002320  262E               	addwf	??_throwFrisbee^0,f,c
  2341  002322  0E00               	movlw	0
  2342  002324  222F               	addwfc	(??_throwFrisbee+1)^0,f,c
  2343  002326  90D8               	bcf	status,0,c
  2344  002328  3436               	rlcf	throwFrisbee@selected_player^0,w,c
  2345  00232A  6ED9               	movwf	fsr2l,c
  2346  00232C  3437               	rlcf	(throwFrisbee@selected_player+1)^0,w,c
  2347  00232E  6EDA               	movwf	fsr2h,c
  2348  002330  90D8               	bcf	status,0,c
  2349  002332  36D9               	rlcf	fsr2l,f,c
  2350  002334  36DA               	rlcf	fsr2h,f,c
  2351  002336  502E               	movf	??_throwFrisbee^0,w,c
  2352  002338  26D9               	addwf	fsr2l,f,c
  2353  00233A  502F               	movf	(??_throwFrisbee+1)^0,w,c
  2354  00233C  22DA               	addwfc	fsr2h,f,c
  2355  00233E  CFDE F034          	movff	postinc2,throwFrisbee@selected_player_y
  2356  002342  CFDD F035          	movff	postdec2,throwFrisbee@selected_player_y+1
  2357  002346                     
  2358                           ;newmain.c: 365:     LCDGoto(selected_player_x,selected_player_y);
  2359  002346  C034  F002         	movff	throwFrisbee@selected_player_y,i2LCDGoto@p_1
  2360  00234A  5032               	movf	throwFrisbee@selected_player_x^0,w,c
  2361  00234C  EC13  F015         	call	i2_LCDGoto
  2362  002350                     
  2363                           ;newmain.c: 366:     LCDStr(" ");
  2364  002350  0E01               	movlw	low STR_1
  2365  002352  6E02               	movwf	LCDStr@str^0,c
  2366  002354  0E10               	movlw	high STR_1
  2367  002356  6E03               	movwf	(LCDStr@str+1)^0,c
  2368  002358  EC97  F014         	call	_LCDStr	;wreg free
  2369  00235C                     
  2370                           ;newmain.c: 367:     LCDGoto(selected_player_x,selected_player_y);
  2371  00235C  C034  F002         	movff	throwFrisbee@selected_player_y,i2LCDGoto@p_1
  2372  002360  5032               	movf	throwFrisbee@selected_player_x^0,w,c
  2373  002362  EC13  F015         	call	i2_LCDGoto
  2374  002366                     
  2375                           ;newmain.c: 368:     LCDDat(selected_player < 2 ? 0:2);
  2376  002366  BE37               	btfsc	(throwFrisbee@selected_player+1)^0,7,c
  2377  002368  EFBF  F011         	goto	i2u181_41
  2378  00236C  5037               	movf	(throwFrisbee@selected_player+1)^0,w,c
  2379  00236E  E109               	bnz	i2u181_40
  2380  002370  0E02               	movlw	2
  2381  002372  5C36               	subwf	throwFrisbee@selected_player^0,w,c
  2382  002374  A0D8               	btfss	status,0,c
  2383  002376  EFBF  F011         	goto	i2u181_41
  2384  00237A  EFC1  F011         	goto	i2u181_40
  2385  00237E                     i2u181_41:
  2386  00237E  EFC7  F011         	goto	i2l2611
  2387  002382                     i2u181_40:
  2388  002382  0E00               	movlw	0
  2389  002384  6E31               	movwf	(_throwFrisbee$871+1)^0,c
  2390  002386  0E02               	movlw	2
  2391  002388  6E30               	movwf	_throwFrisbee$871^0,c
  2392  00238A  EFCB  F011         	goto	i2l2613
  2393  00238E                     i2l2611:
  2394  00238E  0E00               	movlw	0
  2395  002390  6E31               	movwf	(_throwFrisbee$871+1)^0,c
  2396  002392  0E00               	movlw	0
  2397  002394  6E30               	movwf	_throwFrisbee$871^0,c
  2398  002396                     i2l2613:
  2399  002396  5030               	movf	_throwFrisbee$871^0,w,c
  2400  002398  ECC0  F017         	call	i2_LCDDat
  2401  00239C                     
  2402                           ;newmain.c: 370:     compute_frisbee_target_and_route(gameState.frisbee_position.x,gameS
      +                          tate.frisbee_position.y);
  2403  00239C  C050  F012         	movff	_gameState+16,compute_frisbee_target_and_route@current_fisbee_x_position
  2404  0023A0  C051  F013         	movff	_gameState+17,compute_frisbee_target_and_route@current_fisbee_x_position+1
  2405  0023A4  C052  F014         	movff	_gameState+18,compute_frisbee_target_and_route@current_fisbee_y_position
  2406  0023A8  C053  F015         	movff	_gameState+19,compute_frisbee_target_and_route@current_fisbee_y_position+1
  2407  0023AC  EC2C  F00C         	call	_compute_frisbee_target_and_route	;wreg free
  2408  0023B0                     
  2409                           ;newmain.c: 372:     LCDGoto(target_x,target_y);
  2410  0023B0  C075  F002         	movff	_target_y,i2LCDGoto@p_1
  2411  0023B4  5077               	movf	_target_x^0,w,c
  2412  0023B6  EC13  F015         	call	i2_LCDGoto
  2413  0023BA                     
  2414                           ;newmain.c: 373:     LCDDat(7);
  2415  0023BA  0E07               	movlw	7
  2416  0023BC  ECC0  F017         	call	i2_LCDDat
  2417  0023C0                     
  2418                           ;newmain.c: 374:     gameState.game_mode = 0;
  2419  0023C0  0E00               	movlw	0
  2420  0023C2  6E5B               	movwf	(_gameState+27)^0,c
  2421  0023C4  0E00               	movlw	0
  2422  0023C6  6E5A               	movwf	(_gameState+26)^0,c
  2423  0023C8                     
  2424                           ;newmain.c: 375:     T0CONbits.TMR0ON = 1;
  2425  0023C8  8ED5               	bsf	213,7,c	;volatile
  2426  0023CA  0012               	return		;funcret
  2427  0023CC                     __end_of_throwFrisbee:
  2428                           	callstack 0
  2429                           
  2430 ;; *************** function _compute_frisbee_target_and_route *****************
  2431 ;; Defined at:
  2432 ;;		line 118 in file "./the3.h"
  2433 ;; Parameters:    Size  Location     Type
  2434 ;;  current_fisb    2   17[COMRAM] unsigned short 
  2435 ;;  current_fisb    2   19[COMRAM] unsigned short 
  2436 ;; Auto vars:     Size  Location     Type
  2437 ;;  i               2   31[COMRAM] unsigned short 
  2438 ;;  i               2   29[COMRAM] unsigned short 
  2439 ;;  i               2   25[COMRAM] unsigned short 
  2440 ;;  i               2   23[COMRAM] unsigned short 
  2441 ;;  i               2   33[COMRAM] unsigned short 
  2442 ;;  i               2   27[COMRAM] unsigned short 
  2443 ;;  y_step_size     2   43[COMRAM] unsigned short 
  2444 ;;  x_step_size     2   41[COMRAM] unsigned short 
  2445 ;;  y               2   39[COMRAM] unsigned short 
  2446 ;;  x               2   37[COMRAM] unsigned short 
  2447 ;;  number_of_st    2   35[COMRAM] unsigned short 
  2448 ;; Return value:  Size  Location     Type
  2449 ;;                  2   17[COMRAM] unsigned short 
  2450 ;; Registers used:
  2451 ;;		wreg, fsr2l, fsr2h, status,2, status,0, cstack
  2452 ;; Tracked objects:
  2453 ;;		On entry : 0/0
  2454 ;;		On exit  : 0/0
  2455 ;;		Unchanged: 0/0
  2456 ;; Data sizes:     COMRAM   BANK0   BANK1   BANK2   BANK3   BANK4   BANK5   BANK6   BANK7   BANK8   BANK9  BANK10  BANK1
      +1  BANK12  BANK13  BANK14  BANK15
  2457 ;;      Params:         4       0       0       0       0       0       0       0       0       0       0       0       
      +0       0       0       0       0
  2458 ;;      Locals:        22       0       0       0       0       0       0       0       0       0       0       0       
      +0       0       0       0       0
  2459 ;;      Temps:          2       0       0       0       0       0       0       0       0       0       0       0       
      +0       0       0       0       0
  2460 ;;      Totals:        28       0       0       0       0       0       0       0       0       0       0       0       
      +0       0       0       0       0
  2461 ;;Total ram usage:       28 bytes
  2462 ;; Hardware stack levels used:    1
  2463 ;; Hardware stack levels required when called:    2
  2464 ;; This function calls:
  2465 ;;		_random_generator
  2466 ;; This function is called by:
  2467 ;;		_throwFrisbee
  2468 ;; This function uses a non-reentrant model
  2469 ;;
  2470                           
  2471                           	psect	text13
  2472  001858                     __ptext13:
  2473                           	callstack 0
  2474  001858                     _compute_frisbee_target_and_route:
  2475                           	callstack 23
  2476  001858                     i2l133:
  2477  001858                     
  2478                           ;./the3.h: 132:         target_x = random_generator(16) + 1;
  2479  001858  0E00               	movlw	0
  2480  00185A  6E07               	movwf	(random_generator@modulo+1)^0,c
  2481  00185C  0E10               	movlw	16
  2482  00185E  6E06               	movwf	random_generator@modulo^0,c
  2483  001860  ECBC  F016         	call	_random_generator	;wreg free
  2484  001864  0E01               	movlw	1
  2485  001866  2406               	addwf	?_random_generator^0,w,c
  2486  001868  6E77               	movwf	_target_x^0,c
  2487  00186A  0E00               	movlw	0
  2488  00186C  2007               	addwfc	(?_random_generator+1)^0,w,c
  2489  00186E  6E78               	movwf	(_target_x+1)^0,c
  2490                           
  2491                           ;./the3.h: 133:         target_y = random_generator(4) + 1;
  2492  001870  0E00               	movlw	0
  2493  001872  6E07               	movwf	(random_generator@modulo+1)^0,c
  2494  001874  0E04               	movlw	4
  2495  001876  6E06               	movwf	random_generator@modulo^0,c
  2496  001878  ECBC  F016         	call	_random_generator	;wreg free
  2497  00187C  0E01               	movlw	1
  2498  00187E  2406               	addwf	?_random_generator^0,w,c
  2499  001880  6E75               	movwf	_target_y^0,c
  2500  001882  0E00               	movlw	0
  2501  001884  2007               	addwfc	(?_random_generator+1)^0,w,c
  2502  001886  6E76               	movwf	(_target_y+1)^0,c
  2503  001888                     
  2504                           ;./the3.h: 136:         if (target_x < current_fisbee_x_position)
  2505  001888  5012               	movf	compute_frisbee_target_and_route@current_fisbee_x_position^0,w,c
  2506  00188A  5C77               	subwf	_target_x^0,w,c
  2507  00188C  5013               	movf	(compute_frisbee_target_and_route@current_fisbee_x_position+1)^0,w,c
  2508  00188E  5878               	subwfb	(_target_x+1)^0,w,c
  2509  001890  B0D8               	btfsc	status,0,c
  2510  001892  EF4D  F00C         	goto	i2u128_41
  2511  001896  EF4F  F00C         	goto	i2u128_40
  2512  00189A                     i2u128_41:
  2513  00189A  EF57  F00C         	goto	i2l2119
  2514  00189E                     i2u128_40:
  2515  00189E                     
  2516                           ;./the3.h: 137:             x_step_size = current_fisbee_x_position - target_x;
  2517  00189E  5077               	movf	_target_x^0,w,c
  2518  0018A0  5C12               	subwf	compute_frisbee_target_and_route@current_fisbee_x_position^0,w,c
  2519  0018A2  6E2A               	movwf	compute_frisbee_target_and_route@x_step_size^0,c
  2520  0018A4  5078               	movf	(_target_x+1)^0,w,c
  2521  0018A6  5813               	subwfb	(compute_frisbee_target_and_route@current_fisbee_x_position+1)^0,w,c
  2522  0018A8  6E2B               	movwf	(compute_frisbee_target_and_route@x_step_size+1)^0,c
  2523  0018AA  EF5D  F00C         	goto	i2l135
  2524  0018AE                     i2l2119:
  2525                           
  2526                           ;./the3.h: 139:             x_step_size = target_x - current_fisbee_x_position;
  2527  0018AE  5012               	movf	compute_frisbee_target_and_route@current_fisbee_x_position^0,w,c
  2528  0018B0  5C77               	subwf	_target_x^0,w,c
  2529  0018B2  6E2A               	movwf	compute_frisbee_target_and_route@x_step_size^0,c
  2530  0018B4  5013               	movf	(compute_frisbee_target_and_route@current_fisbee_x_position+1)^0,w,c
  2531  0018B6  5878               	subwfb	(_target_x+1)^0,w,c
  2532  0018B8  6E2B               	movwf	(compute_frisbee_target_and_route@x_step_size+1)^0,c
  2533  0018BA                     i2l135:
  2534                           
  2535                           ;./the3.h: 142:         if (target_y < current_fisbee_y_position)
  2536  0018BA  5014               	movf	compute_frisbee_target_and_route@current_fisbee_y_position^0,w,c
  2537  0018BC  5C75               	subwf	_target_y^0,w,c
  2538  0018BE  5015               	movf	(compute_frisbee_target_and_route@current_fisbee_y_position+1)^0,w,c
  2539  0018C0  5876               	subwfb	(_target_y+1)^0,w,c
  2540  0018C2  B0D8               	btfsc	status,0,c
  2541  0018C4  EF66  F00C         	goto	i2u129_41
  2542  0018C8  EF68  F00C         	goto	i2u129_40
  2543  0018CC                     i2u129_41:
  2544  0018CC  EF70  F00C         	goto	i2l2123
  2545  0018D0                     i2u129_40:
  2546  0018D0                     
  2547                           ;./the3.h: 143:             y_step_size = current_fisbee_y_position - target_y;
  2548  0018D0  5075               	movf	_target_y^0,w,c
  2549  0018D2  5C14               	subwf	compute_frisbee_target_and_route@current_fisbee_y_position^0,w,c
  2550  0018D4  6E2C               	movwf	compute_frisbee_target_and_route@y_step_size^0,c
  2551  0018D6  5076               	movf	(_target_y+1)^0,w,c
  2552  0018D8  5815               	subwfb	(compute_frisbee_target_and_route@current_fisbee_y_position+1)^0,w,c
  2553  0018DA  6E2D               	movwf	(compute_frisbee_target_and_route@y_step_size+1)^0,c
  2554  0018DC  EF76  F00C         	goto	i2l137
  2555  0018E0                     i2l2123:
  2556                           
  2557                           ;./the3.h: 145:             y_step_size = target_y - current_fisbee_y_position;
  2558  0018E0  5014               	movf	compute_frisbee_target_and_route@current_fisbee_y_position^0,w,c
  2559  0018E2  5C75               	subwf	_target_y^0,w,c
  2560  0018E4  6E2C               	movwf	compute_frisbee_target_and_route@y_step_size^0,c
  2561  0018E6  5015               	movf	(compute_frisbee_target_and_route@current_fisbee_y_position+1)^0,w,c
  2562  0018E8  5876               	subwfb	(_target_y+1)^0,w,c
  2563  0018EA  6E2D               	movwf	(compute_frisbee_target_and_route@y_step_size+1)^0,c
  2564  0018EC                     i2l137:
  2565                           
  2566                           ;./the3.h: 148:         if (x_step_size <= 2 && y_step_size <= 2)
  2567  0018EC  502B               	movf	(compute_frisbee_target_and_route@x_step_size+1)^0,w,c
  2568  0018EE  E107               	bnz	i2u130_41
  2569  0018F0  0E03               	movlw	3
  2570  0018F2  5C2A               	subwf	compute_frisbee_target_and_route@x_step_size^0,w,c
  2571  0018F4  B0D8               	btfsc	status,0,c
  2572  0018F6  EF7F  F00C         	goto	i2u130_41
  2573  0018FA  EF81  F00C         	goto	i2u130_40
  2574  0018FE                     i2u130_41:
  2575  0018FE  EF8E  F00C         	goto	i2l2129
  2576  001902                     i2u130_40:
  2577  001902  502D               	movf	(compute_frisbee_target_and_route@y_step_size+1)^0,w,c
  2578  001904  E107               	bnz	i2u131_41
  2579  001906  0E03               	movlw	3
  2580  001908  5C2C               	subwf	compute_frisbee_target_and_route@y_step_size^0,w,c
  2581  00190A  B0D8               	btfsc	status,0,c
  2582  00190C  EF8A  F00C         	goto	i2u131_41
  2583  001910  EF8C  F00C         	goto	i2u131_40
  2584  001914                     i2u131_41:
  2585  001914  EF8E  F00C         	goto	i2l2129
  2586  001918                     i2u131_40:
  2587  001918  EF2C  F00C         	goto	i2l133
  2588  00191C                     i2l2129:
  2589                           
  2590                           ;./the3.h: 152:         if (x_step_size > y_step_size)
  2591  00191C  502A               	movf	compute_frisbee_target_and_route@x_step_size^0,w,c
  2592  00191E  5C2C               	subwf	compute_frisbee_target_and_route@y_step_size^0,w,c
  2593  001920  502B               	movf	(compute_frisbee_target_and_route@x_step_size+1)^0,w,c
  2594  001922  582D               	subwfb	(compute_frisbee_target_and_route@y_step_size+1)^0,w,c
  2595  001924  B0D8               	btfsc	status,0,c
  2596  001926  EF97  F00C         	goto	i2u132_41
  2597  00192A  EF99  F00C         	goto	i2u132_40
  2598  00192E                     i2u132_41:
  2599  00192E  EF9F  F00C         	goto	i2l140
  2600  001932                     i2u132_40:
  2601  001932                     
  2602                           ;./the3.h: 153:             number_of_steps = x_step_size;
  2603  001932  C02A  F024         	movff	compute_frisbee_target_and_route@x_step_size,compute_frisbee_target_and_route@num
      +                          ber_of_steps
  2604  001936  C02B  F025         	movff	compute_frisbee_target_and_route@x_step_size+1,compute_frisbee_target_and_route@n
      +                          umber_of_steps+1
  2605  00193A  EFA3  F00C         	goto	i2l142
  2606  00193E                     i2l140:
  2607                           
  2608                           ;./the3.h: 155:             number_of_steps = y_step_size;
  2609  00193E  C02C  F024         	movff	compute_frisbee_target_and_route@y_step_size,compute_frisbee_target_and_route@num
      +                          ber_of_steps
  2610  001942  C02D  F025         	movff	compute_frisbee_target_and_route@y_step_size+1,compute_frisbee_target_and_route@n
      +                          umber_of_steps+1
  2611  001946                     i2l142:
  2612                           
  2613                           ;./the3.h: 168:     unsigned short x = current_fisbee_x_position;
  2614  001946  C012  F026         	movff	compute_frisbee_target_and_route@current_fisbee_x_position,compute_frisbee_target
      +                          _and_route@x
  2615  00194A  C013  F027         	movff	compute_frisbee_target_and_route@current_fisbee_x_position+1,compute_frisbee_targ
      +                          et_and_route@x+1
  2616  00194E                     
  2617                           ;./the3.h: 169:     if (target_x < current_fisbee_x_position) {
  2618  00194E  5012               	movf	compute_frisbee_target_and_route@current_fisbee_x_position^0,w,c
  2619  001950  5C77               	subwf	_target_x^0,w,c
  2620  001952  5013               	movf	(compute_frisbee_target_and_route@current_fisbee_x_position+1)^0,w,c
  2621  001954  5878               	subwfb	(_target_x+1)^0,w,c
  2622  001956  B0D8               	btfsc	status,0,c
  2623  001958  EFB0  F00C         	goto	i2u133_41
  2624  00195C  EFB2  F00C         	goto	i2u133_40
  2625  001960                     i2u133_41:
  2626  001960  EFE1  F00C         	goto	i2l2145
  2627  001964                     i2u133_40:
  2628  001964                     
  2629                           ;./the3.h: 170:         for (unsigned short i = 0; i < x_step_size; i++) {
  2630  001964  0E00               	movlw	0
  2631  001966  6E19               	movwf	(compute_frisbee_target_and_route@i+1)^0,c
  2632  001968  0E00               	movlw	0
  2633  00196A  6E18               	movwf	compute_frisbee_target_and_route@i^0,c
  2634  00196C  EFD4  F00C         	goto	i2l2143
  2635  001970                     i2l2137:
  2636                           
  2637                           ;./the3.h: 171:             x = x - 1;
  2638  001970  0EFF               	movlw	255
  2639  001972  2426               	addwf	compute_frisbee_target_and_route@x^0,w,c
  2640  001974  6E26               	movwf	compute_frisbee_target_and_route@x^0,c
  2641  001976  0EFF               	movlw	255
  2642  001978  2027               	addwfc	(compute_frisbee_target_and_route@x+1)^0,w,c
  2643  00197A  6E27               	movwf	(compute_frisbee_target_and_route@x+1)^0,c
  2644  00197C                     
  2645                           ;./the3.h: 172:             frisbee_steps[i][0] = x;
  2646  00197C  0E00               	movlw	low _frisbee_steps
  2647  00197E  6E16               	movwf	??_compute_frisbee_target_and_route^0,c
  2648  001980  0E01               	movlw	high _frisbee_steps
  2649  001982  6E17               	movwf	(??_compute_frisbee_target_and_route+1)^0,c
  2650  001984  90D8               	bcf	status,0,c
  2651  001986  3418               	rlcf	compute_frisbee_target_and_route@i^0,w,c
  2652  001988  6ED9               	movwf	fsr2l,c
  2653  00198A  3419               	rlcf	(compute_frisbee_target_and_route@i+1)^0,w,c
  2654  00198C  6EDA               	movwf	fsr2h,c
  2655  00198E  90D8               	bcf	status,0,c
  2656  001990  36D9               	rlcf	fsr2l,f,c
  2657  001992  36DA               	rlcf	fsr2h,f,c
  2658  001994  5016               	movf	??_compute_frisbee_target_and_route^0,w,c
  2659  001996  26D9               	addwf	fsr2l,f,c
  2660  001998  5017               	movf	(??_compute_frisbee_target_and_route+1)^0,w,c
  2661  00199A  22DA               	addwfc	fsr2h,f,c
  2662  00199C  C026  FFDE         	movff	compute_frisbee_target_and_route@x,postinc2
  2663  0019A0  C027  FFDD         	movff	compute_frisbee_target_and_route@x+1,postdec2
  2664  0019A4                     
  2665                           ;./the3.h: 173:         }
  2666  0019A4  4A18               	infsnz	compute_frisbee_target_and_route@i^0,f,c
  2667  0019A6  2A19               	incf	(compute_frisbee_target_and_route@i+1)^0,f,c
  2668  0019A8                     i2l2143:
  2669  0019A8  502A               	movf	compute_frisbee_target_and_route@x_step_size^0,w,c
  2670  0019AA  5C18               	subwf	compute_frisbee_target_and_route@i^0,w,c
  2671  0019AC  502B               	movf	(compute_frisbee_target_and_route@x_step_size+1)^0,w,c
  2672  0019AE  5819               	subwfb	(compute_frisbee_target_and_route@i+1)^0,w,c
  2673  0019B0  A0D8               	btfss	status,0,c
  2674  0019B2  EFDD  F00C         	goto	i2u134_41
  2675  0019B6  EFDF  F00C         	goto	i2u134_40
  2676  0019BA                     i2u134_41:
  2677  0019BA  EFB8  F00C         	goto	i2l2137
  2678  0019BE                     i2u134_40:
  2679  0019BE  EF0E  F00D         	goto	i2l147
  2680  0019C2                     i2l2145:
  2681                           
  2682                           ;./the3.h: 176:         for (unsigned short i = 0; i < x_step_size; i++) {
  2683  0019C2  0E00               	movlw	0
  2684  0019C4  6E1B               	movwf	(compute_frisbee_target_and_route@i_719+1)^0,c
  2685  0019C6  0E00               	movlw	0
  2686  0019C8  6E1A               	movwf	compute_frisbee_target_and_route@i_719^0,c
  2687  0019CA  EF03  F00D         	goto	i2l2153
  2688  0019CE                     i2l2147:
  2689                           
  2690                           ;./the3.h: 177:             x = x + 1;
  2691  0019CE  0E01               	movlw	1
  2692  0019D0  2426               	addwf	compute_frisbee_target_and_route@x^0,w,c
  2693  0019D2  6E26               	movwf	compute_frisbee_target_and_route@x^0,c
  2694  0019D4  0E00               	movlw	0
  2695  0019D6  2027               	addwfc	(compute_frisbee_target_and_route@x+1)^0,w,c
  2696  0019D8  6E27               	movwf	(compute_frisbee_target_and_route@x+1)^0,c
  2697  0019DA                     
  2698                           ;./the3.h: 178:             frisbee_steps[i][0] = x;
  2699  0019DA  0E00               	movlw	low _frisbee_steps
  2700  0019DC  6E16               	movwf	??_compute_frisbee_target_and_route^0,c
  2701  0019DE  0E01               	movlw	high _frisbee_steps
  2702  0019E0  6E17               	movwf	(??_compute_frisbee_target_and_route+1)^0,c
  2703  0019E2  90D8               	bcf	status,0,c
  2704  0019E4  341A               	rlcf	compute_frisbee_target_and_route@i_719^0,w,c
  2705  0019E6  6ED9               	movwf	fsr2l,c
  2706  0019E8  341B               	rlcf	(compute_frisbee_target_and_route@i_719+1)^0,w,c
  2707  0019EA  6EDA               	movwf	fsr2h,c
  2708  0019EC  90D8               	bcf	status,0,c
  2709  0019EE  36D9               	rlcf	fsr2l,f,c
  2710  0019F0  36DA               	rlcf	fsr2h,f,c
  2711  0019F2  5016               	movf	??_compute_frisbee_target_and_route^0,w,c
  2712  0019F4  26D9               	addwf	fsr2l,f,c
  2713  0019F6  5017               	movf	(??_compute_frisbee_target_and_route+1)^0,w,c
  2714  0019F8  22DA               	addwfc	fsr2h,f,c
  2715  0019FA  C026  FFDE         	movff	compute_frisbee_target_and_route@x,postinc2
  2716  0019FE  C027  FFDD         	movff	compute_frisbee_target_and_route@x+1,postdec2
  2717  001A02                     
  2718                           ;./the3.h: 179:         }
  2719  001A02  4A1A               	infsnz	compute_frisbee_target_and_route@i_719^0,f,c
  2720  001A04  2A1B               	incf	(compute_frisbee_target_and_route@i_719+1)^0,f,c
  2721  001A06                     i2l2153:
  2722  001A06  502A               	movf	compute_frisbee_target_and_route@x_step_size^0,w,c
  2723  001A08  5C1A               	subwf	compute_frisbee_target_and_route@i_719^0,w,c
  2724  001A0A  502B               	movf	(compute_frisbee_target_and_route@x_step_size+1)^0,w,c
  2725  001A0C  581B               	subwfb	(compute_frisbee_target_and_route@i_719+1)^0,w,c
  2726  001A0E  A0D8               	btfss	status,0,c
  2727  001A10  EF0C  F00D         	goto	i2u135_41
  2728  001A14  EF0E  F00D         	goto	i2u135_40
  2729  001A18                     i2u135_41:
  2730  001A18  EFE7  F00C         	goto	i2l2147
  2731  001A1C                     i2u135_40:
  2732  001A1C                     i2l147:
  2733                           
  2734                           ;./the3.h: 181:     for (unsigned short i = x_step_size; i < number_of_steps; i++)
  2735  001A1C  C02A  F01C         	movff	compute_frisbee_target_and_route@x_step_size,compute_frisbee_target_and_route@i_7
      +                          20
  2736  001A20  C02B  F01D         	movff	compute_frisbee_target_and_route@x_step_size+1,compute_frisbee_target_and_route@i
      +                          _720+1
  2737  001A24  EF2A  F00D         	goto	i2l2159
  2738  001A28                     i2l2155:
  2739                           
  2740                           ;./the3.h: 182:         frisbee_steps[i][0] = x;
  2741  001A28  0E00               	movlw	low _frisbee_steps
  2742  001A2A  6E16               	movwf	??_compute_frisbee_target_and_route^0,c
  2743  001A2C  0E01               	movlw	high _frisbee_steps
  2744  001A2E  6E17               	movwf	(??_compute_frisbee_target_and_route+1)^0,c
  2745  001A30  90D8               	bcf	status,0,c
  2746  001A32  341C               	rlcf	compute_frisbee_target_and_route@i_720^0,w,c
  2747  001A34  6ED9               	movwf	fsr2l,c
  2748  001A36  341D               	rlcf	(compute_frisbee_target_and_route@i_720+1)^0,w,c
  2749  001A38  6EDA               	movwf	fsr2h,c
  2750  001A3A  90D8               	bcf	status,0,c
  2751  001A3C  36D9               	rlcf	fsr2l,f,c
  2752  001A3E  36DA               	rlcf	fsr2h,f,c
  2753  001A40  5016               	movf	??_compute_frisbee_target_and_route^0,w,c
  2754  001A42  26D9               	addwf	fsr2l,f,c
  2755  001A44  5017               	movf	(??_compute_frisbee_target_and_route+1)^0,w,c
  2756  001A46  22DA               	addwfc	fsr2h,f,c
  2757  001A48  C026  FFDE         	movff	compute_frisbee_target_and_route@x,postinc2
  2758  001A4C  C027  FFDD         	movff	compute_frisbee_target_and_route@x+1,postdec2
  2759  001A50  4A1C               	infsnz	compute_frisbee_target_and_route@i_720^0,f,c
  2760  001A52  2A1D               	incf	(compute_frisbee_target_and_route@i_720+1)^0,f,c
  2761  001A54                     i2l2159:
  2762  001A54  5024               	movf	compute_frisbee_target_and_route@number_of_steps^0,w,c
  2763  001A56  5C1C               	subwf	compute_frisbee_target_and_route@i_720^0,w,c
  2764  001A58  5025               	movf	(compute_frisbee_target_and_route@number_of_steps+1)^0,w,c
  2765  001A5A  581D               	subwfb	(compute_frisbee_target_and_route@i_720+1)^0,w,c
  2766  001A5C  A0D8               	btfss	status,0,c
  2767  001A5E  EF33  F00D         	goto	i2u136_41
  2768  001A62  EF35  F00D         	goto	i2u136_40
  2769  001A66                     i2u136_41:
  2770  001A66  EF14  F00D         	goto	i2l2155
  2771  001A6A                     i2u136_40:
  2772  001A6A                     
  2773                           ;./the3.h: 185:     unsigned short y = current_fisbee_y_position;
  2774  001A6A  C014  F028         	movff	compute_frisbee_target_and_route@current_fisbee_y_position,compute_frisbee_target
      +                          _and_route@y
  2775  001A6E  C015  F029         	movff	compute_frisbee_target_and_route@current_fisbee_y_position+1,compute_frisbee_targ
      +                          et_and_route@y+1
  2776  001A72                     
  2777                           ;./the3.h: 186:     if (target_y < current_fisbee_y_position) {
  2778  001A72  5014               	movf	compute_frisbee_target_and_route@current_fisbee_y_position^0,w,c
  2779  001A74  5C75               	subwf	_target_y^0,w,c
  2780  001A76  5015               	movf	(compute_frisbee_target_and_route@current_fisbee_y_position+1)^0,w,c
  2781  001A78  5876               	subwfb	(_target_y+1)^0,w,c
  2782  001A7A  B0D8               	btfsc	status,0,c
  2783  001A7C  EF42  F00D         	goto	i2u137_41
  2784  001A80  EF44  F00D         	goto	i2u137_40
  2785  001A84                     i2u137_41:
  2786  001A84  EF77  F00D         	goto	i2l2173
  2787  001A88                     i2u137_40:
  2788  001A88                     
  2789                           ;./the3.h: 187:         for (unsigned short i = 0; i < y_step_size; i++) {
  2790  001A88  0E00               	movlw	0
  2791  001A8A  6E1F               	movwf	(compute_frisbee_target_and_route@i_722+1)^0,c
  2792  001A8C  0E00               	movlw	0
  2793  001A8E  6E1E               	movwf	compute_frisbee_target_and_route@i_722^0,c
  2794  001A90  EF6A  F00D         	goto	i2l2171
  2795  001A94                     i2l2165:
  2796                           
  2797                           ;./the3.h: 188:             y = y - 1;
  2798  001A94  0EFF               	movlw	255
  2799  001A96  2428               	addwf	compute_frisbee_target_and_route@y^0,w,c
  2800  001A98  6E28               	movwf	compute_frisbee_target_and_route@y^0,c
  2801  001A9A  0EFF               	movlw	255
  2802  001A9C  2029               	addwfc	(compute_frisbee_target_and_route@y+1)^0,w,c
  2803  001A9E  6E29               	movwf	(compute_frisbee_target_and_route@y+1)^0,c
  2804  001AA0                     
  2805                           ;./the3.h: 189:             frisbee_steps[i][1] = y;
  2806  001AA0  0E00               	movlw	low _frisbee_steps
  2807  001AA2  6E16               	movwf	??_compute_frisbee_target_and_route^0,c
  2808  001AA4  0E01               	movlw	high _frisbee_steps
  2809  001AA6  6E17               	movwf	(??_compute_frisbee_target_and_route+1)^0,c
  2810  001AA8  0E02               	movlw	2
  2811  001AAA  2616               	addwf	??_compute_frisbee_target_and_route^0,f,c
  2812  001AAC  0E00               	movlw	0
  2813  001AAE  2217               	addwfc	(??_compute_frisbee_target_and_route+1)^0,f,c
  2814  001AB0  90D8               	bcf	status,0,c
  2815  001AB2  341E               	rlcf	compute_frisbee_target_and_route@i_722^0,w,c
  2816  001AB4  6ED9               	movwf	fsr2l,c
  2817  001AB6  341F               	rlcf	(compute_frisbee_target_and_route@i_722+1)^0,w,c
  2818  001AB8  6EDA               	movwf	fsr2h,c
  2819  001ABA  90D8               	bcf	status,0,c
  2820  001ABC  36D9               	rlcf	fsr2l,f,c
  2821  001ABE  36DA               	rlcf	fsr2h,f,c
  2822  001AC0  5016               	movf	??_compute_frisbee_target_and_route^0,w,c
  2823  001AC2  26D9               	addwf	fsr2l,f,c
  2824  001AC4  5017               	movf	(??_compute_frisbee_target_and_route+1)^0,w,c
  2825  001AC6  22DA               	addwfc	fsr2h,f,c
  2826  001AC8  C028  FFDE         	movff	compute_frisbee_target_and_route@y,postinc2
  2827  001ACC  C029  FFDD         	movff	compute_frisbee_target_and_route@y+1,postdec2
  2828  001AD0                     
  2829                           ;./the3.h: 190:         }
  2830  001AD0  4A1E               	infsnz	compute_frisbee_target_and_route@i_722^0,f,c
  2831  001AD2  2A1F               	incf	(compute_frisbee_target_and_route@i_722+1)^0,f,c
  2832  001AD4                     i2l2171:
  2833  001AD4  502C               	movf	compute_frisbee_target_and_route@y_step_size^0,w,c
  2834  001AD6  5C1E               	subwf	compute_frisbee_target_and_route@i_722^0,w,c
  2835  001AD8  502D               	movf	(compute_frisbee_target_and_route@y_step_size+1)^0,w,c
  2836  001ADA  581F               	subwfb	(compute_frisbee_target_and_route@i_722+1)^0,w,c
  2837  001ADC  A0D8               	btfss	status,0,c
  2838  001ADE  EF73  F00D         	goto	i2u138_41
  2839  001AE2  EF75  F00D         	goto	i2u138_40
  2840  001AE6                     i2u138_41:
  2841  001AE6  EF4A  F00D         	goto	i2l2165
  2842  001AEA                     i2u138_40:
  2843  001AEA  EFA8  F00D         	goto	i2l158
  2844  001AEE                     i2l2173:
  2845                           
  2846                           ;./the3.h: 193:         for (unsigned short i = 0; i < y_step_size; i++) {
  2847  001AEE  0E00               	movlw	0
  2848  001AF0  6E21               	movwf	(compute_frisbee_target_and_route@i_723+1)^0,c
  2849  001AF2  0E00               	movlw	0
  2850  001AF4  6E20               	movwf	compute_frisbee_target_and_route@i_723^0,c
  2851  001AF6  EF9D  F00D         	goto	i2l2181
  2852  001AFA                     i2l2175:
  2853                           
  2854                           ;./the3.h: 194:             y = y + 1;
  2855  001AFA  0E01               	movlw	1
  2856  001AFC  2428               	addwf	compute_frisbee_target_and_route@y^0,w,c
  2857  001AFE  6E28               	movwf	compute_frisbee_target_and_route@y^0,c
  2858  001B00  0E00               	movlw	0
  2859  001B02  2029               	addwfc	(compute_frisbee_target_and_route@y+1)^0,w,c
  2860  001B04  6E29               	movwf	(compute_frisbee_target_and_route@y+1)^0,c
  2861  001B06                     
  2862                           ;./the3.h: 195:             frisbee_steps[i][1] = y;
  2863  001B06  0E00               	movlw	low _frisbee_steps
  2864  001B08  6E16               	movwf	??_compute_frisbee_target_and_route^0,c
  2865  001B0A  0E01               	movlw	high _frisbee_steps
  2866  001B0C  6E17               	movwf	(??_compute_frisbee_target_and_route+1)^0,c
  2867  001B0E  0E02               	movlw	2
  2868  001B10  2616               	addwf	??_compute_frisbee_target_and_route^0,f,c
  2869  001B12  0E00               	movlw	0
  2870  001B14  2217               	addwfc	(??_compute_frisbee_target_and_route+1)^0,f,c
  2871  001B16  90D8               	bcf	status,0,c
  2872  001B18  3420               	rlcf	compute_frisbee_target_and_route@i_723^0,w,c
  2873  001B1A  6ED9               	movwf	fsr2l,c
  2874  001B1C  3421               	rlcf	(compute_frisbee_target_and_route@i_723+1)^0,w,c
  2875  001B1E  6EDA               	movwf	fsr2h,c
  2876  001B20  90D8               	bcf	status,0,c
  2877  001B22  36D9               	rlcf	fsr2l,f,c
  2878  001B24  36DA               	rlcf	fsr2h,f,c
  2879  001B26  5016               	movf	??_compute_frisbee_target_and_route^0,w,c
  2880  001B28  26D9               	addwf	fsr2l,f,c
  2881  001B2A  5017               	movf	(??_compute_frisbee_target_and_route+1)^0,w,c
  2882  001B2C  22DA               	addwfc	fsr2h,f,c
  2883  001B2E  C028  FFDE         	movff	compute_frisbee_target_and_route@y,postinc2
  2884  001B32  C029  FFDD         	movff	compute_frisbee_target_and_route@y+1,postdec2
  2885  001B36                     
  2886                           ;./the3.h: 196:         }
  2887  001B36  4A20               	infsnz	compute_frisbee_target_and_route@i_723^0,f,c
  2888  001B38  2A21               	incf	(compute_frisbee_target_and_route@i_723+1)^0,f,c
  2889  001B3A                     i2l2181:
  2890  001B3A  502C               	movf	compute_frisbee_target_and_route@y_step_size^0,w,c
  2891  001B3C  5C20               	subwf	compute_frisbee_target_and_route@i_723^0,w,c
  2892  001B3E  502D               	movf	(compute_frisbee_target_and_route@y_step_size+1)^0,w,c
  2893  001B40  5821               	subwfb	(compute_frisbee_target_and_route@i_723+1)^0,w,c
  2894  001B42  A0D8               	btfss	status,0,c
  2895  001B44  EFA6  F00D         	goto	i2u139_41
  2896  001B48  EFA8  F00D         	goto	i2u139_40
  2897  001B4C                     i2u139_41:
  2898  001B4C  EF7D  F00D         	goto	i2l2175
  2899  001B50                     i2u139_40:
  2900  001B50                     i2l158:
  2901                           
  2902                           ;./the3.h: 198:     for (unsigned short i = y_step_size; i < number_of_steps; i++)
  2903  001B50  C02C  F022         	movff	compute_frisbee_target_and_route@y_step_size,compute_frisbee_target_and_route@i_7
      +                          24
  2904  001B54  C02D  F023         	movff	compute_frisbee_target_and_route@y_step_size+1,compute_frisbee_target_and_route@i
      +                          _724+1
  2905  001B58  EFC8  F00D         	goto	i2l2187
  2906  001B5C                     i2l2183:
  2907                           
  2908                           ;./the3.h: 199:         frisbee_steps[i][1] = y;
  2909  001B5C  0E00               	movlw	low _frisbee_steps
  2910  001B5E  6E16               	movwf	??_compute_frisbee_target_and_route^0,c
  2911  001B60  0E01               	movlw	high _frisbee_steps
  2912  001B62  6E17               	movwf	(??_compute_frisbee_target_and_route+1)^0,c
  2913  001B64  0E02               	movlw	2
  2914  001B66  2616               	addwf	??_compute_frisbee_target_and_route^0,f,c
  2915  001B68  0E00               	movlw	0
  2916  001B6A  2217               	addwfc	(??_compute_frisbee_target_and_route+1)^0,f,c
  2917  001B6C  90D8               	bcf	status,0,c
  2918  001B6E  3422               	rlcf	compute_frisbee_target_and_route@i_724^0,w,c
  2919  001B70  6ED9               	movwf	fsr2l,c
  2920  001B72  3423               	rlcf	(compute_frisbee_target_and_route@i_724+1)^0,w,c
  2921  001B74  6EDA               	movwf	fsr2h,c
  2922  001B76  90D8               	bcf	status,0,c
  2923  001B78  36D9               	rlcf	fsr2l,f,c
  2924  001B7A  36DA               	rlcf	fsr2h,f,c
  2925  001B7C  5016               	movf	??_compute_frisbee_target_and_route^0,w,c
  2926  001B7E  26D9               	addwf	fsr2l,f,c
  2927  001B80  5017               	movf	(??_compute_frisbee_target_and_route+1)^0,w,c
  2928  001B82  22DA               	addwfc	fsr2h,f,c
  2929  001B84  C028  FFDE         	movff	compute_frisbee_target_and_route@y,postinc2
  2930  001B88  C029  FFDD         	movff	compute_frisbee_target_and_route@y+1,postdec2
  2931  001B8C  4A22               	infsnz	compute_frisbee_target_and_route@i_724^0,f,c
  2932  001B8E  2A23               	incf	(compute_frisbee_target_and_route@i_724+1)^0,f,c
  2933  001B90                     i2l2187:
  2934  001B90  5024               	movf	compute_frisbee_target_and_route@number_of_steps^0,w,c
  2935  001B92  5C22               	subwf	compute_frisbee_target_and_route@i_724^0,w,c
  2936  001B94  5025               	movf	(compute_frisbee_target_and_route@number_of_steps+1)^0,w,c
  2937  001B96  5823               	subwfb	(compute_frisbee_target_and_route@i_724+1)^0,w,c
  2938  001B98  A0D8               	btfss	status,0,c
  2939  001B9A  EFD1  F00D         	goto	i2u140_41
  2940  001B9E  EFD3  F00D         	goto	i2u140_40
  2941  001BA2                     i2u140_41:
  2942  001BA2  EFAE  F00D         	goto	i2l2183
  2943  001BA6                     i2u140_40:
  2944  001BA6  0012               	return		;funcret
  2945  001BA8                     __end_of_compute_frisbee_target_and_route:
  2946                           	callstack 0
  2947                           
  2948 ;; *************** function _switchSelectedPlayer *****************
  2949 ;; Defined at:
  2950 ;;		line 313 in file "newmain.c"
  2951 ;; Parameters:    Size  Location     Type
  2952 ;;		None
  2953 ;; Auto vars:     Size  Location     Type
  2954 ;;  selected_pla    2   20[COMRAM] int 
  2955 ;;  newY            2   18[COMRAM] int 
  2956 ;;  newX            2   16[COMRAM] int 
  2957 ;;  oldY            2   14[COMRAM] int 
  2958 ;;  oldX            2   12[COMRAM] int 
  2959 ;; Return value:  Size  Location     Type
  2960 ;;                  1    wreg      void 
  2961 ;; Registers used:
  2962 ;;		wreg, fsr2l, fsr2h, status,2, status,0, tblptrl, tblptrh, tblptru, cstack
  2963 ;; Tracked objects:
  2964 ;;		On entry : 0/0
  2965 ;;		On exit  : 0/0
  2966 ;;		Unchanged: 0/0
  2967 ;; Data sizes:     COMRAM   BANK0   BANK1   BANK2   BANK3   BANK4   BANK5   BANK6   BANK7   BANK8   BANK9  BANK10  BANK1
      +1  BANK12  BANK13  BANK14  BANK15
  2968 ;;      Params:         0       0       0       0       0       0       0       0       0       0       0       0       
      +0       0       0       0       0
  2969 ;;      Locals:        14       0       0       0       0       0       0       0       0       0       0       0       
      +0       0       0       0       0
  2970 ;;      Temps:          2       0       0       0       0       0       0       0       0       0       0       0       
      +0       0       0       0       0
  2971 ;;      Totals:        16       0       0       0       0       0       0       0       0       0       0       0       
      +0       0       0       0       0
  2972 ;;Total ram usage:       16 bytes
  2973 ;; Hardware stack levels used:    1
  2974 ;; Hardware stack levels required when called:    2
  2975 ;; This function calls:
  2976 ;;		_LCDStr
  2977 ;;		i2_LCDDat
  2978 ;;		i2_LCDGoto
  2979 ;; This function is called by:
  2980 ;;		_FNC
  2981 ;; This function uses a non-reentrant model
  2982 ;;
  2983                           
  2984                           	psect	text14
  2985  00202A                     __ptext14:
  2986                           	callstack 0
  2987  00202A                     _switchSelectedPlayer:
  2988                           	callstack 24
  2989  00202A                     
  2990                           ;newmain.c: 314:     PORTB;;
  2991  00202A  5081               	movf	129,w,c	;volatile
  2992  00202C                     
  2993                           ;newmain.c: 315:     LATB = 0;
  2994  00202C  0E00               	movlw	0
  2995  00202E  6E8A               	movwf	138,c	;volatile
  2996  002030                     
  2997                           ;newmain.c: 316:     LATA = 0;
  2998  002030  0E00               	movlw	0
  2999  002032  6E89               	movwf	137,c	;volatile
  3000  002034                     
  3001                           ;newmain.c: 317:     LATD = 0;
  3002  002034  0E00               	movlw	0
  3003  002036  6E8C               	movwf	140,c	;volatile
  3004  002038                     
  3005                           ;newmain.c: 319:     int oldX, oldY,newX,newY;;newmain.c: 320:     int selected_player =
      +                           gameState.selected_player;
  3006  002038  C054  F015         	movff	_gameState+20,switchSelectedPlayer@selected_player
  3007  00203C  C055  F016         	movff	_gameState+21,switchSelectedPlayer@selected_player+1
  3008  002040                     
  3009                           ;newmain.c: 322:     oldX = gameState.player_positions[selected_player].x;
  3010  002040  0E40               	movlw	low _gameState
  3011  002042  6E07               	movwf	??_switchSelectedPlayer^0,c
  3012  002044  0E00               	movlw	high _gameState
  3013  002046  6E08               	movwf	(??_switchSelectedPlayer+1)^0,c
  3014  002048  90D8               	bcf	status,0,c
  3015  00204A  3415               	rlcf	switchSelectedPlayer@selected_player^0,w,c
  3016  00204C  6ED9               	movwf	fsr2l,c
  3017  00204E  3416               	rlcf	(switchSelectedPlayer@selected_player+1)^0,w,c
  3018  002050  6EDA               	movwf	fsr2h,c
  3019  002052  90D8               	bcf	status,0,c
  3020  002054  36D9               	rlcf	fsr2l,f,c
  3021  002056  36DA               	rlcf	fsr2h,f,c
  3022  002058  5007               	movf	??_switchSelectedPlayer^0,w,c
  3023  00205A  26D9               	addwf	fsr2l,f,c
  3024  00205C  5008               	movf	(??_switchSelectedPlayer+1)^0,w,c
  3025  00205E  22DA               	addwfc	fsr2h,f,c
  3026  002060  CFDE F00D          	movff	postinc2,switchSelectedPlayer@oldX
  3027  002064  CFDD F00E          	movff	postdec2,switchSelectedPlayer@oldX+1
  3028  002068                     
  3029                           ;newmain.c: 323:     oldY = gameState.player_positions[selected_player].y;
  3030  002068  0E40               	movlw	low _gameState
  3031  00206A  6E07               	movwf	??_switchSelectedPlayer^0,c
  3032  00206C  0E00               	movlw	high _gameState
  3033  00206E  6E08               	movwf	(??_switchSelectedPlayer+1)^0,c
  3034  002070  0E02               	movlw	2
  3035  002072  2607               	addwf	??_switchSelectedPlayer^0,f,c
  3036  002074  0E00               	movlw	0
  3037  002076  2208               	addwfc	(??_switchSelectedPlayer+1)^0,f,c
  3038  002078  90D8               	bcf	status,0,c
  3039  00207A  3415               	rlcf	switchSelectedPlayer@selected_player^0,w,c
  3040  00207C  6ED9               	movwf	fsr2l,c
  3041  00207E  3416               	rlcf	(switchSelectedPlayer@selected_player+1)^0,w,c
  3042  002080  6EDA               	movwf	fsr2h,c
  3043  002082  90D8               	bcf	status,0,c
  3044  002084  36D9               	rlcf	fsr2l,f,c
  3045  002086  36DA               	rlcf	fsr2h,f,c
  3046  002088  5007               	movf	??_switchSelectedPlayer^0,w,c
  3047  00208A  26D9               	addwf	fsr2l,f,c
  3048  00208C  5008               	movf	(??_switchSelectedPlayer+1)^0,w,c
  3049  00208E  22DA               	addwfc	fsr2h,f,c
  3050  002090  CFDE F00F          	movff	postinc2,switchSelectedPlayer@oldY
  3051  002094  CFDD F010          	movff	postdec2,switchSelectedPlayer@oldY+1
  3052  002098                     
  3053                           ;newmain.c: 326:     LCDGoto(oldX,oldY);
  3054  002098  C00F  F002         	movff	switchSelectedPlayer@oldY,i2LCDGoto@p_1
  3055  00209C  500D               	movf	switchSelectedPlayer@oldX^0,w,c
  3056  00209E  EC13  F015         	call	i2_LCDGoto
  3057  0020A2                     
  3058                           ;newmain.c: 327:     LCDStr(" ");
  3059  0020A2  0E01               	movlw	low STR_1
  3060  0020A4  6E02               	movwf	LCDStr@str^0,c
  3061  0020A6  0E10               	movlw	high STR_1
  3062  0020A8  6E03               	movwf	(LCDStr@str+1)^0,c
  3063  0020AA  EC97  F014         	call	_LCDStr	;wreg free
  3064  0020AE                     
  3065                           ;newmain.c: 328:     LCDGoto(oldX,oldY);
  3066  0020AE  C00F  F002         	movff	switchSelectedPlayer@oldY,i2LCDGoto@p_1
  3067  0020B2  500D               	movf	switchSelectedPlayer@oldX^0,w,c
  3068  0020B4  EC13  F015         	call	i2_LCDGoto
  3069  0020B8                     
  3070                           ;newmain.c: 329:     LCDDat (selected_player < 2 ? 1:3);
  3071  0020B8  BE16               	btfsc	(switchSelectedPlayer@selected_player+1)^0,7,c
  3072  0020BA  EF68  F010         	goto	i2u179_41
  3073  0020BE  5016               	movf	(switchSelectedPlayer@selected_player+1)^0,w,c
  3074  0020C0  E109               	bnz	i2u179_40
  3075  0020C2  0E02               	movlw	2
  3076  0020C4  5C15               	subwf	switchSelectedPlayer@selected_player^0,w,c
  3077  0020C6  A0D8               	btfss	status,0,c
  3078  0020C8  EF68  F010         	goto	i2u179_41
  3079  0020CC  EF6A  F010         	goto	i2u179_40
  3080  0020D0                     i2u179_41:
  3081  0020D0  EF70  F010         	goto	i2l2567
  3082  0020D4                     i2u179_40:
  3083  0020D4  0E00               	movlw	0
  3084  0020D6  6E0A               	movwf	(_switchSelectedPlayer$859+1)^0,c
  3085  0020D8  0E03               	movlw	3
  3086  0020DA  6E09               	movwf	_switchSelectedPlayer$859^0,c
  3087  0020DC  EF74  F010         	goto	i2l2569
  3088  0020E0                     i2l2567:
  3089  0020E0  0E00               	movlw	0
  3090  0020E2  6E0A               	movwf	(_switchSelectedPlayer$859+1)^0,c
  3091  0020E4  0E01               	movlw	1
  3092  0020E6  6E09               	movwf	_switchSelectedPlayer$859^0,c
  3093  0020E8                     i2l2569:
  3094  0020E8  5009               	movf	_switchSelectedPlayer$859^0,w,c
  3095  0020EA  ECC0  F017         	call	i2_LCDDat
  3096  0020EE                     
  3097                           ;newmain.c: 332:     selected_player = (selected_player+1) % 4;
  3098  0020EE  0E01               	movlw	1
  3099  0020F0  2415               	addwf	switchSelectedPlayer@selected_player^0,w,c
  3100  0020F2  6E07               	movwf	??_switchSelectedPlayer^0,c
  3101  0020F4  0E00               	movlw	0
  3102  0020F6  2016               	addwfc	(switchSelectedPlayer@selected_player+1)^0,w,c
  3103  0020F8  6E08               	movwf	(??_switchSelectedPlayer+1)^0,c
  3104  0020FA  0E03               	movlw	3
  3105  0020FC  1407               	andwf	??_switchSelectedPlayer^0,w,c
  3106  0020FE  6E15               	movwf	switchSelectedPlayer@selected_player^0,c
  3107  002100  6A16               	clrf	(switchSelectedPlayer@selected_player+1)^0,c
  3108  002102                     
  3109                           ;newmain.c: 333:     gameState.selected_player = selected_player;
  3110  002102  C015  F054         	movff	switchSelectedPlayer@selected_player,_gameState+20
  3111  002106  C016  F055         	movff	switchSelectedPlayer@selected_player+1,_gameState+21
  3112  00210A                     
  3113                           ;newmain.c: 335:     newX = gameState.player_positions[selected_player].x;
  3114  00210A  0E40               	movlw	low _gameState
  3115  00210C  6E07               	movwf	??_switchSelectedPlayer^0,c
  3116  00210E  0E00               	movlw	high _gameState
  3117  002110  6E08               	movwf	(??_switchSelectedPlayer+1)^0,c
  3118  002112  90D8               	bcf	status,0,c
  3119  002114  3415               	rlcf	switchSelectedPlayer@selected_player^0,w,c
  3120  002116  6ED9               	movwf	fsr2l,c
  3121  002118  3416               	rlcf	(switchSelectedPlayer@selected_player+1)^0,w,c
  3122  00211A  6EDA               	movwf	fsr2h,c
  3123  00211C  90D8               	bcf	status,0,c
  3124  00211E  36D9               	rlcf	fsr2l,f,c
  3125  002120  36DA               	rlcf	fsr2h,f,c
  3126  002122  5007               	movf	??_switchSelectedPlayer^0,w,c
  3127  002124  26D9               	addwf	fsr2l,f,c
  3128  002126  5008               	movf	(??_switchSelectedPlayer+1)^0,w,c
  3129  002128  22DA               	addwfc	fsr2h,f,c
  3130  00212A  CFDE F011          	movff	postinc2,switchSelectedPlayer@newX
  3131  00212E  CFDD F012          	movff	postdec2,switchSelectedPlayer@newX+1
  3132  002132                     
  3133                           ;newmain.c: 336:     newY = gameState.player_positions[selected_player].y;
  3134  002132  0E40               	movlw	low _gameState
  3135  002134  6E07               	movwf	??_switchSelectedPlayer^0,c
  3136  002136  0E00               	movlw	high _gameState
  3137  002138  6E08               	movwf	(??_switchSelectedPlayer+1)^0,c
  3138  00213A  0E02               	movlw	2
  3139  00213C  2607               	addwf	??_switchSelectedPlayer^0,f,c
  3140  00213E  0E00               	movlw	0
  3141  002140  2208               	addwfc	(??_switchSelectedPlayer+1)^0,f,c
  3142  002142  90D8               	bcf	status,0,c
  3143  002144  3415               	rlcf	switchSelectedPlayer@selected_player^0,w,c
  3144  002146  6ED9               	movwf	fsr2l,c
  3145  002148  3416               	rlcf	(switchSelectedPlayer@selected_player+1)^0,w,c
  3146  00214A  6EDA               	movwf	fsr2h,c
  3147  00214C  90D8               	bcf	status,0,c
  3148  00214E  36D9               	rlcf	fsr2l,f,c
  3149  002150  36DA               	rlcf	fsr2h,f,c
  3150  002152  5007               	movf	??_switchSelectedPlayer^0,w,c
  3151  002154  26D9               	addwf	fsr2l,f,c
  3152  002156  5008               	movf	(??_switchSelectedPlayer+1)^0,w,c
  3153  002158  22DA               	addwfc	fsr2h,f,c
  3154  00215A  CFDE F013          	movff	postinc2,switchSelectedPlayer@newY
  3155  00215E  CFDD F014          	movff	postdec2,switchSelectedPlayer@newY+1
  3156                           
  3157                           ;newmain.c: 339:     LCDGoto(newX,newY);
  3158  002162  C013  F002         	movff	switchSelectedPlayer@newY,i2LCDGoto@p_1
  3159  002166  5011               	movf	switchSelectedPlayer@newX^0,w,c
  3160  002168  EC13  F015         	call	i2_LCDGoto
  3161  00216C                     
  3162                           ;newmain.c: 340:     LCDStr(" ");
  3163  00216C  0E01               	movlw	low STR_1
  3164  00216E  6E02               	movwf	LCDStr@str^0,c
  3165  002170  0E10               	movlw	high STR_1
  3166  002172  6E03               	movwf	(LCDStr@str+1)^0,c
  3167  002174  EC97  F014         	call	_LCDStr	;wreg free
  3168  002178                     
  3169                           ;newmain.c: 341:     LCDGoto(newX,newY);
  3170  002178  C013  F002         	movff	switchSelectedPlayer@newY,i2LCDGoto@p_1
  3171  00217C  5011               	movf	switchSelectedPlayer@newX^0,w,c
  3172  00217E  EC13  F015         	call	i2_LCDGoto
  3173  002182                     
  3174                           ;newmain.c: 342:     LCDDat (selected_player < 2 ? 0:2);
  3175  002182  BE16               	btfsc	(switchSelectedPlayer@selected_player+1)^0,7,c
  3176  002184  EFCD  F010         	goto	i2u180_41
  3177  002188  5016               	movf	(switchSelectedPlayer@selected_player+1)^0,w,c
  3178  00218A  E109               	bnz	i2u180_40
  3179  00218C  0E02               	movlw	2
  3180  00218E  5C15               	subwf	switchSelectedPlayer@selected_player^0,w,c
  3181  002190  A0D8               	btfss	status,0,c
  3182  002192  EFCD  F010         	goto	i2u180_41
  3183  002196  EFCF  F010         	goto	i2u180_40
  3184  00219A                     i2u180_41:
  3185  00219A  EFD5  F010         	goto	i2l2587
  3186  00219E                     i2u180_40:
  3187  00219E  0E00               	movlw	0
  3188  0021A0  6E0C               	movwf	(_switchSelectedPlayer$861+1)^0,c
  3189  0021A2  0E02               	movlw	2
  3190  0021A4  6E0B               	movwf	_switchSelectedPlayer$861^0,c
  3191  0021A6  EFD9  F010         	goto	i2l2589
  3192  0021AA                     i2l2587:
  3193  0021AA  0E00               	movlw	0
  3194  0021AC  6E0C               	movwf	(_switchSelectedPlayer$861+1)^0,c
  3195  0021AE  0E00               	movlw	0
  3196  0021B0  6E0B               	movwf	_switchSelectedPlayer$861^0,c
  3197  0021B2                     i2l2589:
  3198  0021B2  500B               	movf	_switchSelectedPlayer$861^0,w,c
  3199  0021B4  ECC0  F017         	call	i2_LCDDat
  3200  0021B8                     
  3201                           ;newmain.c: 344:     LATB = 0;
  3202  0021B8  0E00               	movlw	0
  3203  0021BA  6E8A               	movwf	138,c	;volatile
  3204  0021BC  0012               	return		;funcret
  3205  0021BE                     __end_of_switchSelectedPlayer:
  3206                           	callstack 0
  3207                           
  3208 ;; *************** function _npcMove *****************
  3209 ;; Defined at:
  3210 ;;		line 493 in file "newmain.c"
  3211 ;; Parameters:    Size  Location     Type
  3212 ;;		None
  3213 ;; Auto vars:     Size  Location     Type
  3214 ;;  isValidMove     2   34[COMRAM] int 
  3215 ;;  oldY            2   28[COMRAM] int 
  3216 ;;  oldX            2   26[COMRAM] int 
  3217 ;;  i               2   36[COMRAM] int 
  3218 ;;  random_direc    2   32[COMRAM] int 
  3219 ;;  selected_pla    2   24[COMRAM] int 
  3220 ;; Return value:  Size  Location     Type
  3221 ;;                  1    wreg      void 
  3222 ;; Registers used:
  3223 ;;		wreg, fsr2l, fsr2h, status,2, status,0, cstack
  3224 ;; Tracked objects:
  3225 ;;		On entry : 0/0
  3226 ;;		On exit  : 0/0
  3227 ;;		Unchanged: 0/0
  3228 ;; Data sizes:     COMRAM   BANK0   BANK1   BANK2   BANK3   BANK4   BANK5   BANK6   BANK7   BANK8   BANK9  BANK10  BANK1
      +1  BANK12  BANK13  BANK14  BANK15
  3229 ;;      Params:         0       0       0       0       0       0       0       0       0       0       0       0       
      +0       0       0       0       0
  3230 ;;      Locals:        14       0       0       0       0       0       0       0       0       0       0       0       
      +0       0       0       0       0
  3231 ;;      Temps:          4       0       0       0       0       0       0       0       0       0       0       0       
      +0       0       0       0       0
  3232 ;;      Totals:        18       0       0       0       0       0       0       0       0       0       0       0       
      +0       0       0       0       0
  3233 ;;Total ram usage:       18 bytes
  3234 ;; Hardware stack levels used:    1
  3235 ;; Hardware stack levels required when called:    2
  3236 ;; This function calls:
  3237 ;;		_isValidNPCMove
  3238 ;;		_random_generator
  3239 ;;		i2_LCDDat
  3240 ;;		i2_LCDGoto
  3241 ;; This function is called by:
  3242 ;;		_FNC
  3243 ;; This function uses a non-reentrant model
  3244 ;;
  3245                           
  3246                           	psect	text15
  3247  001004                     __ptext15:
  3248                           	callstack 0
  3249  001004                     _npcMove:
  3250                           	callstack 24
  3251  001004                     
  3252                           ;newmain.c: 494:     int selected_player = gameState.selected_player, random_direction;
  3253  001004  C054  F019         	movff	_gameState+20,npcMove@selected_player
  3254  001008  C055  F01A         	movff	_gameState+21,npcMove@selected_player+1
  3255  00100C                     
  3256                           ;newmain.c: 495:     for(int i=0; i<4;i++){
  3257  00100C  0E00               	movlw	0
  3258  00100E  6E26               	movwf	(npcMove@i+1)^0,c
  3259  001010  0E00               	movlw	0
  3260  001012  6E25               	movwf	npcMove@i^0,c
  3261  001014                     i2l2707:
  3262                           
  3263                           ;newmain.c: 496:         if(i==selected_player){
  3264  001014  5019               	movf	npcMove@selected_player^0,w,c
  3265  001016  1825               	xorwf	npcMove@i^0,w,c
  3266  001018  E107               	bnz	i2u198_41
  3267  00101A  501A               	movf	(npcMove@selected_player+1)^0,w,c
  3268  00101C  1826               	xorwf	(npcMove@i+1)^0,w,c
  3269  00101E  A4D8               	btfss	status,2,c
  3270  001020  EF14  F008         	goto	i2u198_41
  3271  001024  EF16  F008         	goto	i2u198_40
  3272  001028                     i2u198_41:
  3273  001028  EF18  F008         	goto	i2l2711
  3274  00102C                     i2u198_40:
  3275  00102C  EF19  F00A         	goto	i2l2753
  3276  001030                     i2l2711:
  3277                           
  3278                           ;newmain.c: 500:         int oldX,oldY,isValidMove;;newmain.c: 501:         oldX = gameS
      +                          tate.player_positions[i].x;
  3279  001030  0E40               	movlw	low _gameState
  3280  001032  6E15               	movwf	??_npcMove^0,c
  3281  001034  0E00               	movlw	high _gameState
  3282  001036  6E16               	movwf	(??_npcMove+1)^0,c
  3283  001038  90D8               	bcf	status,0,c
  3284  00103A  3425               	rlcf	npcMove@i^0,w,c
  3285  00103C  6ED9               	movwf	fsr2l,c
  3286  00103E  3426               	rlcf	(npcMove@i+1)^0,w,c
  3287  001040  6EDA               	movwf	fsr2h,c
  3288  001042  90D8               	bcf	status,0,c
  3289  001044  36D9               	rlcf	fsr2l,f,c
  3290  001046  36DA               	rlcf	fsr2h,f,c
  3291  001048  5015               	movf	??_npcMove^0,w,c
  3292  00104A  26D9               	addwf	fsr2l,f,c
  3293  00104C  5016               	movf	(??_npcMove+1)^0,w,c
  3294  00104E  22DA               	addwfc	fsr2h,f,c
  3295  001050  CFDE F01B          	movff	postinc2,npcMove@oldX
  3296  001054  CFDD F01C          	movff	postdec2,npcMove@oldX+1
  3297                           
  3298                           ;newmain.c: 502:         oldY = gameState.player_positions[i].y;
  3299  001058  0E40               	movlw	low _gameState
  3300  00105A  6E15               	movwf	??_npcMove^0,c
  3301  00105C  0E00               	movlw	high _gameState
  3302  00105E  6E16               	movwf	(??_npcMove+1)^0,c
  3303  001060  0E02               	movlw	2
  3304  001062  2615               	addwf	??_npcMove^0,f,c
  3305  001064  0E00               	movlw	0
  3306  001066  2216               	addwfc	(??_npcMove+1)^0,f,c
  3307  001068  90D8               	bcf	status,0,c
  3308  00106A  3425               	rlcf	npcMove@i^0,w,c
  3309  00106C  6ED9               	movwf	fsr2l,c
  3310  00106E  3426               	rlcf	(npcMove@i+1)^0,w,c
  3311  001070  6EDA               	movwf	fsr2h,c
  3312  001072  90D8               	bcf	status,0,c
  3313  001074  36D9               	rlcf	fsr2l,f,c
  3314  001076  36DA               	rlcf	fsr2h,f,c
  3315  001078  5015               	movf	??_npcMove^0,w,c
  3316  00107A  26D9               	addwf	fsr2l,f,c
  3317  00107C  5016               	movf	(??_npcMove+1)^0,w,c
  3318  00107E  22DA               	addwfc	fsr2h,f,c
  3319  001080  CFDE F01D          	movff	postinc2,npcMove@oldY
  3320  001084  CFDD F01E          	movff	postdec2,npcMove@oldY+1
  3321  001088                     
  3322                           ;newmain.c: 503:         random_direction = random_generator(8);
  3323  001088  0E00               	movlw	0
  3324  00108A  6E07               	movwf	(random_generator@modulo+1)^0,c
  3325  00108C  0E08               	movlw	8
  3326  00108E  6E06               	movwf	random_generator@modulo^0,c
  3327  001090  ECBC  F016         	call	_random_generator	;wreg free
  3328  001094  C006  F021         	movff	?_random_generator,npcMove@random_direction
  3329  001098  C007  F022         	movff	?_random_generator+1,npcMove@random_direction+1
  3330  00109C                     
  3331                           ;newmain.c: 504:         isValidMove = isValidNPCMove(i,random_direction);
  3332  00109C  C025  F00B         	movff	npcMove@i,isValidNPCMove@selected_npc
  3333  0010A0  C026  F00C         	movff	npcMove@i+1,isValidNPCMove@selected_npc+1
  3334  0010A4  C021  F00D         	movff	npcMove@random_direction,isValidNPCMove@random_direction
  3335  0010A8  C022  F00E         	movff	npcMove@random_direction+1,isValidNPCMove@random_direction+1
  3336  0010AC  EC1F  F00F         	call	_isValidNPCMove	;wreg free
  3337  0010B0  C00B  F023         	movff	?_isValidNPCMove,npcMove@isValidMove
  3338  0010B4  C00C  F024         	movff	?_isValidNPCMove+1,npcMove@isValidMove+1
  3339                           
  3340                           ;newmain.c: 505:         if(!isValidMove){
  3341  0010B8  5023               	movf	npcMove@isValidMove^0,w,c
  3342  0010BA  1024               	iorwf	(npcMove@isValidMove+1)^0,w,c
  3343  0010BC  A4D8               	btfss	status,2,c
  3344  0010BE  EF63  F008         	goto	i2u199_41
  3345  0010C2  EF65  F008         	goto	i2u199_40
  3346  0010C6                     i2u199_41:
  3347  0010C6  EF9F  F009         	goto	i2l2737
  3348  0010CA                     i2u199_40:
  3349  0010CA  EF29  F00A         	goto	i2l342
  3350  0010CE                     i2l2719:
  3351                           
  3352                           ;newmain.c: 511:                 gameState.player_positions[i].y -= isValidMove ? 1 : 0;
  3353  0010CE  0E40               	movlw	low _gameState
  3354  0010D0  6E15               	movwf	??_npcMove^0,c
  3355  0010D2  0E00               	movlw	high _gameState
  3356  0010D4  6E16               	movwf	(??_npcMove+1)^0,c
  3357  0010D6  0E02               	movlw	2
  3358  0010D8  2615               	addwf	??_npcMove^0,f,c
  3359  0010DA  0E00               	movlw	0
  3360  0010DC  2216               	addwfc	(??_npcMove+1)^0,f,c
  3361  0010DE  90D8               	bcf	status,0,c
  3362  0010E0  3425               	rlcf	npcMove@i^0,w,c
  3363  0010E2  6ED9               	movwf	fsr2l,c
  3364  0010E4  3426               	rlcf	(npcMove@i+1)^0,w,c
  3365  0010E6  6EDA               	movwf	fsr2h,c
  3366  0010E8  90D8               	bcf	status,0,c
  3367  0010EA  36D9               	rlcf	fsr2l,f,c
  3368  0010EC  36DA               	rlcf	fsr2h,f,c
  3369  0010EE  5015               	movf	??_npcMove^0,w,c
  3370  0010F0  26D9               	addwf	fsr2l,f,c
  3371  0010F2  5016               	movf	(??_npcMove+1)^0,w,c
  3372  0010F4  22DA               	addwfc	fsr2h,f,c
  3373  0010F6  5023               	movf	npcMove@isValidMove^0,w,c
  3374  0010F8  1024               	iorwf	(npcMove@isValidMove+1)^0,w,c
  3375  0010FA  A4D8               	btfss	status,2,c
  3376  0010FC  EF82  F008         	goto	i2u200_41
  3377  001100  EF85  F008         	goto	i2u200_40
  3378  001104                     i2u200_41:
  3379  001104  0E01               	movlw	1
  3380  001106  EF86  F008         	goto	i2u201_40
  3381  00110A                     i2u200_40:
  3382  00110A  0E00               	movlw	0
  3383  00110C                     i2u201_40:
  3384  00110C  5EDE               	subwf	postinc2,f,c
  3385  00110E  0E00               	movlw	0
  3386  001110  5ADD               	subwfb	postdec2,f,c
  3387                           
  3388                           ;newmain.c: 512:                 break;
  3389  001112  EFCD  F009         	goto	i2l2739
  3390  001116                     i2l2721:
  3391                           
  3392                           ;newmain.c: 515:                 gameState.player_positions[i].y += isValidMove ? 1 : 0;
  3393  001116  0E40               	movlw	low _gameState
  3394  001118  6E15               	movwf	??_npcMove^0,c
  3395  00111A  0E00               	movlw	high _gameState
  3396  00111C  6E16               	movwf	(??_npcMove+1)^0,c
  3397  00111E  0E02               	movlw	2
  3398  001120  2615               	addwf	??_npcMove^0,f,c
  3399  001122  0E00               	movlw	0
  3400  001124  2216               	addwfc	(??_npcMove+1)^0,f,c
  3401  001126  90D8               	bcf	status,0,c
  3402  001128  3425               	rlcf	npcMove@i^0,w,c
  3403  00112A  6ED9               	movwf	fsr2l,c
  3404  00112C  3426               	rlcf	(npcMove@i+1)^0,w,c
  3405  00112E  6EDA               	movwf	fsr2h,c
  3406  001130  90D8               	bcf	status,0,c
  3407  001132  36D9               	rlcf	fsr2l,f,c
  3408  001134  36DA               	rlcf	fsr2h,f,c
  3409  001136  5015               	movf	??_npcMove^0,w,c
  3410  001138  26D9               	addwf	fsr2l,f,c
  3411  00113A  5016               	movf	(??_npcMove+1)^0,w,c
  3412  00113C  22DA               	addwfc	fsr2h,f,c
  3413  00113E  5023               	movf	npcMove@isValidMove^0,w,c
  3414  001140  1024               	iorwf	(npcMove@isValidMove+1)^0,w,c
  3415  001142  A4D8               	btfss	status,2,c
  3416  001144  EFA6  F008         	goto	i2u202_41
  3417  001148  EFA9  F008         	goto	i2u202_40
  3418  00114C                     i2u202_41:
  3419  00114C  0E01               	movlw	1
  3420  00114E  EFAA  F008         	goto	i2u203_40
  3421  001152                     i2u202_40:
  3422  001152  0E00               	movlw	0
  3423  001154                     i2u203_40:
  3424  001154  26DE               	addwf	postinc2,f,c
  3425  001156  0E00               	movlw	0
  3426  001158  22DD               	addwfc	postdec2,f,c
  3427                           
  3428                           ;newmain.c: 516:                 break;
  3429  00115A  EFCD  F009         	goto	i2l2739
  3430  00115E                     i2l2723:
  3431                           
  3432                           ;newmain.c: 519:                 gameState.player_positions[i].x += isValidMove ? 1 : 0;
  3433  00115E  0E40               	movlw	low _gameState
  3434  001160  6E15               	movwf	??_npcMove^0,c
  3435  001162  0E00               	movlw	high _gameState
  3436  001164  6E16               	movwf	(??_npcMove+1)^0,c
  3437  001166  90D8               	bcf	status,0,c
  3438  001168  3425               	rlcf	npcMove@i^0,w,c
  3439  00116A  6ED9               	movwf	fsr2l,c
  3440  00116C  3426               	rlcf	(npcMove@i+1)^0,w,c
  3441  00116E  6EDA               	movwf	fsr2h,c
  3442  001170  90D8               	bcf	status,0,c
  3443  001172  36D9               	rlcf	fsr2l,f,c
  3444  001174  36DA               	rlcf	fsr2h,f,c
  3445  001176  5015               	movf	??_npcMove^0,w,c
  3446  001178  26D9               	addwf	fsr2l,f,c
  3447  00117A  5016               	movf	(??_npcMove+1)^0,w,c
  3448  00117C  22DA               	addwfc	fsr2h,f,c
  3449  00117E  5023               	movf	npcMove@isValidMove^0,w,c
  3450  001180  1024               	iorwf	(npcMove@isValidMove+1)^0,w,c
  3451  001182  A4D8               	btfss	status,2,c
  3452  001184  EFC6  F008         	goto	i2u204_41
  3453  001188  EFC9  F008         	goto	i2u204_40
  3454  00118C                     i2u204_41:
  3455  00118C  0E01               	movlw	1
  3456  00118E  EFCA  F008         	goto	i2u205_40
  3457  001192                     i2u204_40:
  3458  001192  0E00               	movlw	0
  3459  001194                     i2u205_40:
  3460  001194  26DE               	addwf	postinc2,f,c
  3461  001196  0E00               	movlw	0
  3462  001198  22DD               	addwfc	postdec2,f,c
  3463                           
  3464                           ;newmain.c: 520:                 break;
  3465  00119A  EFCD  F009         	goto	i2l2739
  3466  00119E                     i2l2725:
  3467                           
  3468                           ;newmain.c: 523:                 gameState.player_positions[i].x -= isValidMove ? 1 : 0;
  3469  00119E  0E40               	movlw	low _gameState
  3470  0011A0  6E15               	movwf	??_npcMove^0,c
  3471  0011A2  0E00               	movlw	high _gameState
  3472  0011A4  6E16               	movwf	(??_npcMove+1)^0,c
  3473  0011A6  90D8               	bcf	status,0,c
  3474  0011A8  3425               	rlcf	npcMove@i^0,w,c
  3475  0011AA  6ED9               	movwf	fsr2l,c
  3476  0011AC  3426               	rlcf	(npcMove@i+1)^0,w,c
  3477  0011AE  6EDA               	movwf	fsr2h,c
  3478  0011B0  90D8               	bcf	status,0,c
  3479  0011B2  36D9               	rlcf	fsr2l,f,c
  3480  0011B4  36DA               	rlcf	fsr2h,f,c
  3481  0011B6  5015               	movf	??_npcMove^0,w,c
  3482  0011B8  26D9               	addwf	fsr2l,f,c
  3483  0011BA  5016               	movf	(??_npcMove+1)^0,w,c
  3484  0011BC  22DA               	addwfc	fsr2h,f,c
  3485  0011BE  5023               	movf	npcMove@isValidMove^0,w,c
  3486  0011C0  1024               	iorwf	(npcMove@isValidMove+1)^0,w,c
  3487  0011C2  A4D8               	btfss	status,2,c
  3488  0011C4  EFE6  F008         	goto	i2u206_41
  3489  0011C8  EFE9  F008         	goto	i2u206_40
  3490  0011CC                     i2u206_41:
  3491  0011CC  0E01               	movlw	1
  3492  0011CE  EFEA  F008         	goto	i2u207_40
  3493  0011D2                     i2u206_40:
  3494  0011D2  0E00               	movlw	0
  3495  0011D4                     i2u207_40:
  3496  0011D4  5EDE               	subwf	postinc2,f,c
  3497  0011D6  0E00               	movlw	0
  3498  0011D8  5ADD               	subwfb	postdec2,f,c
  3499                           
  3500                           ;newmain.c: 524:                 break;
  3501  0011DA  EFCD  F009         	goto	i2l2739
  3502  0011DE                     i2l2727:
  3503                           
  3504                           ;newmain.c: 526:                 gameState.player_positions[i].y--;
  3505  0011DE  0E40               	movlw	low _gameState
  3506  0011E0  6E15               	movwf	??_npcMove^0,c
  3507  0011E2  0E00               	movlw	high _gameState
  3508  0011E4  6E16               	movwf	(??_npcMove+1)^0,c
  3509  0011E6  0E02               	movlw	2
  3510  0011E8  2615               	addwf	??_npcMove^0,f,c
  3511  0011EA  0E00               	movlw	0
  3512  0011EC  2216               	addwfc	(??_npcMove+1)^0,f,c
  3513  0011EE  90D8               	bcf	status,0,c
  3514  0011F0  3425               	rlcf	npcMove@i^0,w,c
  3515  0011F2  6ED9               	movwf	fsr2l,c
  3516  0011F4  3426               	rlcf	(npcMove@i+1)^0,w,c
  3517  0011F6  6EDA               	movwf	fsr2h,c
  3518  0011F8  90D8               	bcf	status,0,c
  3519  0011FA  36D9               	rlcf	fsr2l,f,c
  3520  0011FC  36DA               	rlcf	fsr2h,f,c
  3521  0011FE  5015               	movf	??_npcMove^0,w,c
  3522  001200  26D9               	addwf	fsr2l,f,c
  3523  001202  5016               	movf	(??_npcMove+1)^0,w,c
  3524  001204  22DA               	addwfc	fsr2h,f,c
  3525  001206  06DE               	decf	postinc2,f,c
  3526  001208  0E00               	movlw	0
  3527  00120A  5ADD               	subwfb	postdec2,f,c
  3528                           
  3529                           ;newmain.c: 527:                 gameState.player_positions[i].x--;
  3530  00120C  0E40               	movlw	low _gameState
  3531  00120E  6E15               	movwf	??_npcMove^0,c
  3532  001210  0E00               	movlw	high _gameState
  3533  001212  6E16               	movwf	(??_npcMove+1)^0,c
  3534  001214  90D8               	bcf	status,0,c
  3535  001216  3425               	rlcf	npcMove@i^0,w,c
  3536  001218  6ED9               	movwf	fsr2l,c
  3537  00121A  3426               	rlcf	(npcMove@i+1)^0,w,c
  3538  00121C  6EDA               	movwf	fsr2h,c
  3539  00121E  90D8               	bcf	status,0,c
  3540  001220  36D9               	rlcf	fsr2l,f,c
  3541  001222  36DA               	rlcf	fsr2h,f,c
  3542  001224  5015               	movf	??_npcMove^0,w,c
  3543  001226  26D9               	addwf	fsr2l,f,c
  3544  001228  5016               	movf	(??_npcMove+1)^0,w,c
  3545  00122A  22DA               	addwfc	fsr2h,f,c
  3546  00122C  06DE               	decf	postinc2,f,c
  3547  00122E  0E00               	movlw	0
  3548  001230  5ADD               	subwfb	postdec2,f,c
  3549                           
  3550                           ;newmain.c: 528:                 break;
  3551  001232  EFCD  F009         	goto	i2l2739
  3552  001236                     i2l2729:
  3553                           
  3554                           ;newmain.c: 531:                 gameState.player_positions[i].y++;
  3555  001236  0E40               	movlw	low _gameState
  3556  001238  6E15               	movwf	??_npcMove^0,c
  3557  00123A  0E00               	movlw	high _gameState
  3558  00123C  6E16               	movwf	(??_npcMove+1)^0,c
  3559  00123E  0E02               	movlw	2
  3560  001240  2615               	addwf	??_npcMove^0,f,c
  3561  001242  0E00               	movlw	0
  3562  001244  2216               	addwfc	(??_npcMove+1)^0,f,c
  3563  001246  90D8               	bcf	status,0,c
  3564  001248  3425               	rlcf	npcMove@i^0,w,c
  3565  00124A  6ED9               	movwf	fsr2l,c
  3566  00124C  3426               	rlcf	(npcMove@i+1)^0,w,c
  3567  00124E  6EDA               	movwf	fsr2h,c
  3568  001250  90D8               	bcf	status,0,c
  3569  001252  36D9               	rlcf	fsr2l,f,c
  3570  001254  36DA               	rlcf	fsr2h,f,c
  3571  001256  5015               	movf	??_npcMove^0,w,c
  3572  001258  26D9               	addwf	fsr2l,f,c
  3573  00125A  5016               	movf	(??_npcMove+1)^0,w,c
  3574  00125C  22DA               	addwfc	fsr2h,f,c
  3575  00125E  2ADE               	incf	postinc2,f,c
  3576  001260  0E00               	movlw	0
  3577  001262  22DD               	addwfc	postdec2,f,c
  3578                           
  3579                           ;newmain.c: 532:                 gameState.player_positions[i].x--;
  3580  001264  0E40               	movlw	low _gameState
  3581  001266  6E15               	movwf	??_npcMove^0,c
  3582  001268  0E00               	movlw	high _gameState
  3583  00126A  6E16               	movwf	(??_npcMove+1)^0,c
  3584  00126C  90D8               	bcf	status,0,c
  3585  00126E  3425               	rlcf	npcMove@i^0,w,c
  3586  001270  6ED9               	movwf	fsr2l,c
  3587  001272  3426               	rlcf	(npcMove@i+1)^0,w,c
  3588  001274  6EDA               	movwf	fsr2h,c
  3589  001276  90D8               	bcf	status,0,c
  3590  001278  36D9               	rlcf	fsr2l,f,c
  3591  00127A  36DA               	rlcf	fsr2h,f,c
  3592  00127C  5015               	movf	??_npcMove^0,w,c
  3593  00127E  26D9               	addwf	fsr2l,f,c
  3594  001280  5016               	movf	(??_npcMove+1)^0,w,c
  3595  001282  22DA               	addwfc	fsr2h,f,c
  3596  001284  06DE               	decf	postinc2,f,c
  3597  001286  0E00               	movlw	0
  3598  001288  5ADD               	subwfb	postdec2,f,c
  3599                           
  3600                           ;newmain.c: 533:                 break;
  3601  00128A  EFCD  F009         	goto	i2l2739
  3602  00128E                     i2l2731:
  3603                           
  3604                           ;newmain.c: 536:                 gameState.player_positions[i].y--;
  3605  00128E  0E40               	movlw	low _gameState
  3606  001290  6E15               	movwf	??_npcMove^0,c
  3607  001292  0E00               	movlw	high _gameState
  3608  001294  6E16               	movwf	(??_npcMove+1)^0,c
  3609  001296  0E02               	movlw	2
  3610  001298  2615               	addwf	??_npcMove^0,f,c
  3611  00129A  0E00               	movlw	0
  3612  00129C  2216               	addwfc	(??_npcMove+1)^0,f,c
  3613  00129E  90D8               	bcf	status,0,c
  3614  0012A0  3425               	rlcf	npcMove@i^0,w,c
  3615  0012A2  6ED9               	movwf	fsr2l,c
  3616  0012A4  3426               	rlcf	(npcMove@i+1)^0,w,c
  3617  0012A6  6EDA               	movwf	fsr2h,c
  3618  0012A8  90D8               	bcf	status,0,c
  3619  0012AA  36D9               	rlcf	fsr2l,f,c
  3620  0012AC  36DA               	rlcf	fsr2h,f,c
  3621  0012AE  5015               	movf	??_npcMove^0,w,c
  3622  0012B0  26D9               	addwf	fsr2l,f,c
  3623  0012B2  5016               	movf	(??_npcMove+1)^0,w,c
  3624  0012B4  22DA               	addwfc	fsr2h,f,c
  3625  0012B6  06DE               	decf	postinc2,f,c
  3626  0012B8  0E00               	movlw	0
  3627  0012BA  5ADD               	subwfb	postdec2,f,c
  3628                           
  3629                           ;newmain.c: 537:                 gameState.player_positions[i].x++;
  3630  0012BC  0E40               	movlw	low _gameState
  3631  0012BE  6E15               	movwf	??_npcMove^0,c
  3632  0012C0  0E00               	movlw	high _gameState
  3633  0012C2  6E16               	movwf	(??_npcMove+1)^0,c
  3634  0012C4  90D8               	bcf	status,0,c
  3635  0012C6  3425               	rlcf	npcMove@i^0,w,c
  3636  0012C8  6ED9               	movwf	fsr2l,c
  3637  0012CA  3426               	rlcf	(npcMove@i+1)^0,w,c
  3638  0012CC  6EDA               	movwf	fsr2h,c
  3639  0012CE  90D8               	bcf	status,0,c
  3640  0012D0  36D9               	rlcf	fsr2l,f,c
  3641  0012D2  36DA               	rlcf	fsr2h,f,c
  3642  0012D4  5015               	movf	??_npcMove^0,w,c
  3643  0012D6  26D9               	addwf	fsr2l,f,c
  3644  0012D8  5016               	movf	(??_npcMove+1)^0,w,c
  3645  0012DA  22DA               	addwfc	fsr2h,f,c
  3646  0012DC  2ADE               	incf	postinc2,f,c
  3647  0012DE  0E00               	movlw	0
  3648  0012E0  22DD               	addwfc	postdec2,f,c
  3649                           
  3650                           ;newmain.c: 538:                 break;
  3651  0012E2  EFCD  F009         	goto	i2l2739
  3652  0012E6                     i2l2733:
  3653                           
  3654                           ;newmain.c: 541:                 gameState.player_positions[i].y++;
  3655  0012E6  0E40               	movlw	low _gameState
  3656  0012E8  6E15               	movwf	??_npcMove^0,c
  3657  0012EA  0E00               	movlw	high _gameState
  3658  0012EC  6E16               	movwf	(??_npcMove+1)^0,c
  3659  0012EE  0E02               	movlw	2
  3660  0012F0  2615               	addwf	??_npcMove^0,f,c
  3661  0012F2  0E00               	movlw	0
  3662  0012F4  2216               	addwfc	(??_npcMove+1)^0,f,c
  3663  0012F6  90D8               	bcf	status,0,c
  3664  0012F8  3425               	rlcf	npcMove@i^0,w,c
  3665  0012FA  6ED9               	movwf	fsr2l,c
  3666  0012FC  3426               	rlcf	(npcMove@i+1)^0,w,c
  3667  0012FE  6EDA               	movwf	fsr2h,c
  3668  001300  90D8               	bcf	status,0,c
  3669  001302  36D9               	rlcf	fsr2l,f,c
  3670  001304  36DA               	rlcf	fsr2h,f,c
  3671  001306  5015               	movf	??_npcMove^0,w,c
  3672  001308  26D9               	addwf	fsr2l,f,c
  3673  00130A  5016               	movf	(??_npcMove+1)^0,w,c
  3674  00130C  22DA               	addwfc	fsr2h,f,c
  3675  00130E  2ADE               	incf	postinc2,f,c
  3676  001310  0E00               	movlw	0
  3677  001312  22DD               	addwfc	postdec2,f,c
  3678                           
  3679                           ;newmain.c: 542:                 gameState.player_positions[i].x++;
  3680  001314  0E40               	movlw	low _gameState
  3681  001316  6E15               	movwf	??_npcMove^0,c
  3682  001318  0E00               	movlw	high _gameState
  3683  00131A  6E16               	movwf	(??_npcMove+1)^0,c
  3684  00131C  90D8               	bcf	status,0,c
  3685  00131E  3425               	rlcf	npcMove@i^0,w,c
  3686  001320  6ED9               	movwf	fsr2l,c
  3687  001322  3426               	rlcf	(npcMove@i+1)^0,w,c
  3688  001324  6EDA               	movwf	fsr2h,c
  3689  001326  90D8               	bcf	status,0,c
  3690  001328  36D9               	rlcf	fsr2l,f,c
  3691  00132A  36DA               	rlcf	fsr2h,f,c
  3692  00132C  5015               	movf	??_npcMove^0,w,c
  3693  00132E  26D9               	addwf	fsr2l,f,c
  3694  001330  5016               	movf	(??_npcMove+1)^0,w,c
  3695  001332  22DA               	addwfc	fsr2h,f,c
  3696  001334  2ADE               	incf	postinc2,f,c
  3697  001336  0E00               	movlw	0
  3698  001338  22DD               	addwfc	postdec2,f,c
  3699                           
  3700                           ;newmain.c: 543:                 break;
  3701  00133A  EFCD  F009         	goto	i2l2739
  3702  00133E                     i2l2737:
  3703  00133E  C021  F015         	movff	npcMove@random_direction,??_npcMove
  3704  001342  C022  F016         	movff	npcMove@random_direction+1,??_npcMove+1
  3705                           
  3706                           ; Switch on 2 bytes has been partitioned into a top level switch of size 1, and 1 sub-sw
      +                          itches
  3707                           ; Switch size 1, requested type "simple"
  3708                           ; Number of cases is 1, Range of values is 0 to 0
  3709                           ; switch strategies available:
  3710                           ; Name         Instructions Cycles
  3711                           ; simple_byte            4     3 (average)
  3712                           ;	Chosen strategy is simple_byte
  3713  001346  5016               	movf	(??_npcMove+1)^0,w,c
  3714  001348  0A00               	xorlw	0	; case 0
  3715  00134A  B4D8               	btfsc	status,2,c
  3716  00134C  EFAA  F009         	goto	i2l3089
  3717  001350  EFCD  F009         	goto	i2l2739
  3718  001354                     i2l3089:
  3719                           
  3720                           ; Switch size 1, requested type "simple"
  3721                           ; Number of cases is 8, Range of values is 0 to 7
  3722                           ; switch strategies available:
  3723                           ; Name         Instructions Cycles
  3724                           ; simple_byte           25    13 (average)
  3725                           ;	Chosen strategy is simple_byte
  3726  001354  5015               	movf	??_npcMove^0,w,c
  3727  001356  0A00               	xorlw	0	; case 0
  3728  001358  B4D8               	btfsc	status,2,c
  3729  00135A  EF67  F008         	goto	i2l2719
  3730  00135E  0A01               	xorlw	1	; case 1
  3731  001360  B4D8               	btfsc	status,2,c
  3732  001362  EF8B  F008         	goto	i2l2721
  3733  001366  0A03               	xorlw	3	; case 2
  3734  001368  B4D8               	btfsc	status,2,c
  3735  00136A  EFAF  F008         	goto	i2l2723
  3736  00136E  0A01               	xorlw	1	; case 3
  3737  001370  B4D8               	btfsc	status,2,c
  3738  001372  EFCF  F008         	goto	i2l2725
  3739  001376  0A07               	xorlw	7	; case 4
  3740  001378  B4D8               	btfsc	status,2,c
  3741  00137A  EFEF  F008         	goto	i2l2727
  3742  00137E  0A01               	xorlw	1	; case 5
  3743  001380  B4D8               	btfsc	status,2,c
  3744  001382  EF1B  F009         	goto	i2l2729
  3745  001386  0A03               	xorlw	3	; case 6
  3746  001388  B4D8               	btfsc	status,2,c
  3747  00138A  EF47  F009         	goto	i2l2731
  3748  00138E  0A01               	xorlw	1	; case 7
  3749  001390  B4D8               	btfsc	status,2,c
  3750  001392  EF73  F009         	goto	i2l2733
  3751  001396  EFCD  F009         	goto	i2l2739
  3752  00139A                     i2l2739:
  3753                           
  3754                           ;newmain.c: 546:         LCDGoto(oldX,oldY);
  3755  00139A  C01D  F002         	movff	npcMove@oldY,i2LCDGoto@p_1
  3756  00139E  501B               	movf	npcMove@oldX^0,w,c
  3757  0013A0  EC13  F015         	call	i2_LCDGoto
  3758  0013A4                     
  3759                           ;newmain.c: 547:         LCDDat(' ');
  3760  0013A4  0E20               	movlw	32
  3761  0013A6  ECC0  F017         	call	i2_LCDDat
  3762  0013AA                     
  3763                           ;newmain.c: 548:         LCDGoto(gameState.player_positions[i].x,gameState.player_positi
      +                          ons[i].y);
  3764  0013AA  0E40               	movlw	low _gameState
  3765  0013AC  6E15               	movwf	??_npcMove^0,c
  3766  0013AE  0E00               	movlw	high _gameState
  3767  0013B0  6E16               	movwf	(??_npcMove+1)^0,c
  3768  0013B2  0E02               	movlw	2
  3769  0013B4  2615               	addwf	??_npcMove^0,f,c
  3770  0013B6  0E00               	movlw	0
  3771  0013B8  2216               	addwfc	(??_npcMove+1)^0,f,c
  3772  0013BA  90D8               	bcf	status,0,c
  3773  0013BC  3425               	rlcf	npcMove@i^0,w,c
  3774  0013BE  6ED9               	movwf	fsr2l,c
  3775  0013C0  3426               	rlcf	(npcMove@i+1)^0,w,c
  3776  0013C2  6EDA               	movwf	fsr2h,c
  3777  0013C4  90D8               	bcf	status,0,c
  3778  0013C6  36D9               	rlcf	fsr2l,f,c
  3779  0013C8  36DA               	rlcf	fsr2h,f,c
  3780  0013CA  5015               	movf	??_npcMove^0,w,c
  3781  0013CC  26D9               	addwf	fsr2l,f,c
  3782  0013CE  5016               	movf	(??_npcMove+1)^0,w,c
  3783  0013D0  22DA               	addwfc	fsr2h,f,c
  3784  0013D2  50DF               	movf	indf2,w,c
  3785  0013D4  6E02               	movwf	i2LCDGoto@p_1^0,c
  3786  0013D6  0E40               	movlw	low _gameState
  3787  0013D8  6E17               	movwf	(??_npcMove+2)^0,c
  3788  0013DA  0E00               	movlw	high _gameState
  3789  0013DC  6E18               	movwf	(??_npcMove+3)^0,c
  3790  0013DE  90D8               	bcf	status,0,c
  3791  0013E0  3425               	rlcf	npcMove@i^0,w,c
  3792  0013E2  6ED9               	movwf	fsr2l,c
  3793  0013E4  3426               	rlcf	(npcMove@i+1)^0,w,c
  3794  0013E6  6EDA               	movwf	fsr2h,c
  3795  0013E8  90D8               	bcf	status,0,c
  3796  0013EA  36D9               	rlcf	fsr2l,f,c
  3797  0013EC  36DA               	rlcf	fsr2h,f,c
  3798  0013EE  5017               	movf	(??_npcMove+2)^0,w,c
  3799  0013F0  26D9               	addwf	fsr2l,f,c
  3800  0013F2  5018               	movf	(??_npcMove+3)^0,w,c
  3801  0013F4  22DA               	addwfc	fsr2h,f,c
  3802  0013F6  50DF               	movf	indf2,w,c
  3803  0013F8  EC13  F015         	call	i2_LCDGoto
  3804  0013FC                     
  3805                           ;newmain.c: 549:         LCDDat(i<2 ? 1 : 3);
  3806  0013FC  BE26               	btfsc	(npcMove@i+1)^0,7,c
  3807  0013FE  EF0A  F00A         	goto	i2u208_41
  3808  001402  5026               	movf	(npcMove@i+1)^0,w,c
  3809  001404  E109               	bnz	i2u208_40
  3810  001406  0E02               	movlw	2
  3811  001408  5C25               	subwf	npcMove@i^0,w,c
  3812  00140A  A0D8               	btfss	status,0,c
  3813  00140C  EF0A  F00A         	goto	i2u208_41
  3814  001410  EF0C  F00A         	goto	i2u208_40
  3815  001414                     i2u208_41:
  3816  001414  EF12  F00A         	goto	i2l2749
  3817  001418                     i2u208_40:
  3818  001418  0E00               	movlw	0
  3819  00141A  6E20               	movwf	(_npcMove$903+1)^0,c
  3820  00141C  0E03               	movlw	3
  3821  00141E  6E1F               	movwf	_npcMove$903^0,c
  3822  001420  EF16  F00A         	goto	i2l2751
  3823  001424                     i2l2749:
  3824  001424  0E00               	movlw	0
  3825  001426  6E20               	movwf	(_npcMove$903+1)^0,c
  3826  001428  0E01               	movlw	1
  3827  00142A  6E1F               	movwf	_npcMove$903^0,c
  3828  00142C                     i2l2751:
  3829  00142C  501F               	movf	_npcMove$903^0,w,c
  3830  00142E  ECC0  F017         	call	i2_LCDDat
  3831  001432                     i2l2753:
  3832  001432  4A25               	infsnz	npcMove@i^0,f,c
  3833  001434  2A26               	incf	(npcMove@i+1)^0,f,c
  3834  001436  BE26               	btfsc	(npcMove@i+1)^0,7,c
  3835  001438  EF27  F00A         	goto	i2u209_41
  3836  00143C  5026               	movf	(npcMove@i+1)^0,w,c
  3837  00143E  E109               	bnz	i2u209_40
  3838  001440  0E04               	movlw	4
  3839  001442  5C25               	subwf	npcMove@i^0,w,c
  3840  001444  A0D8               	btfss	status,0,c
  3841  001446  EF27  F00A         	goto	i2u209_41
  3842  00144A  EF29  F00A         	goto	i2u209_40
  3843  00144E                     i2u209_41:
  3844  00144E  EF0A  F008         	goto	i2l2707
  3845  001452                     i2u209_40:
  3846  001452                     i2l342:
  3847  001452  0012               	return		;funcret
  3848  001454                     __end_of_npcMove:
  3849                           	callstack 0
  3850                           
  3851 ;; *************** function _random_generator *****************
  3852 ;; Defined at:
  3853 ;;		line 204 in file "./the3.h"
  3854 ;; Parameters:    Size  Location     Type
  3855 ;;  modulo          2    5[COMRAM] unsigned short 
  3856 ;; Auto vars:     Size  Location     Type
  3857 ;;  timer_value     2   15[COMRAM] int 
  3858 ;;  rotated_valu    2   13[COMRAM] int 
  3859 ;;  pseudo_rando    2   11[COMRAM] int 
  3860 ;;  rotation        2    0        unsigned short 
  3861 ;; Return value:  Size  Location     Type
  3862 ;;                  2    5[COMRAM] unsigned short 
  3863 ;; Registers used:
  3864 ;;		wreg, status,2, status,0, cstack
  3865 ;; Tracked objects:
  3866 ;;		On entry : 0/0
  3867 ;;		On exit  : 0/0
  3868 ;;		Unchanged: 0/0
  3869 ;; Data sizes:     COMRAM   BANK0   BANK1   BANK2   BANK3   BANK4   BANK5   BANK6   BANK7   BANK8   BANK9  BANK10  BANK1
      +1  BANK12  BANK13  BANK14  BANK15
  3870 ;;      Params:         2       0       0       0       0       0       0       0       0       0       0       0       
      +0       0       0       0       0
  3871 ;;      Locals:         8       0       0       0       0       0       0       0       0       0       0       0       
      +0       0       0       0       0
  3872 ;;      Temps:          2       0       0       0       0       0       0       0       0       0       0       0       
      +0       0       0       0       0
  3873 ;;      Totals:        12       0       0       0       0       0       0       0       0       0       0       0       
      +0       0       0       0       0
  3874 ;;Total ram usage:       12 bytes
  3875 ;; Hardware stack levels used:    1
  3876 ;; Hardware stack levels required when called:    1
  3877 ;; This function calls:
  3878 ;;		___lwmod
  3879 ;; This function is called by:
  3880 ;;		_compute_frisbee_target_and_route
  3881 ;;		_npcMove
  3882 ;; This function uses a non-reentrant model
  3883 ;;
  3884                           
  3885                           	psect	text16
  3886  002D78                     __ptext16:
  3887                           	callstack 0
  3888  002D78                     _random_generator:
  3889                           	callstack 23
  3890  002D78                     
  3891                           ;./the3.h: 209:     int timer_value = TMR1;
  3892  002D78  CFCE F010          	movff	4046,random_generator@timer_value	;volatile
  3893  002D7C  CFCF F011          	movff	4047,random_generator@timer_value+1	;volatile
  3894  002D80                     
  3895                           ;./the3.h: 212:     int pseudo_random = (timer_value % modulo) + 1;
  3896  002D80  C010  F001         	movff	random_generator@timer_value,___lwmod@dividend
  3897  002D84  C011  F002         	movff	random_generator@timer_value+1,___lwmod@dividend+1
  3898  002D88  C006  F003         	movff	random_generator@modulo,___lwmod@divisor
  3899  002D8C  C007  F004         	movff	random_generator@modulo+1,___lwmod@divisor+1
  3900  002D90  EC5C  F016         	call	___lwmod	;wreg free
  3901  002D94  0E01               	movlw	1
  3902  002D96  2401               	addwf	?___lwmod^0,w,c
  3903  002D98  6E0C               	movwf	random_generator@pseudo_random^0,c
  3904  002D9A  0E00               	movlw	0
  3905  002D9C  2002               	addwfc	(?___lwmod+1)^0,w,c
  3906  002D9E  6E0D               	movwf	(random_generator@pseudo_random+1)^0,c
  3907  002DA0                     
  3908                           ;./the3.h: 215:     int rotated_value = timer_value >> rotation;
  3909  002DA0  C010  F008         	movff	random_generator@timer_value,??_random_generator
  3910  002DA4  C011  F009         	movff	random_generator@timer_value+1,??_random_generator+1
  3911  002DA8  3409               	rlcf	(??_random_generator+1)^0,w,c
  3912  002DAA  3209               	rrcf	(??_random_generator+1)^0,f,c
  3913  002DAC  3208               	rrcf	??_random_generator^0,f,c
  3914  002DAE  3409               	rlcf	(??_random_generator+1)^0,w,c
  3915  002DB0  3209               	rrcf	(??_random_generator+1)^0,f,c
  3916  002DB2  3208               	rrcf	??_random_generator^0,f,c
  3917  002DB4  C008  F00E         	movff	??_random_generator,random_generator@rotated_value
  3918  002DB8  C009  F00F         	movff	??_random_generator+1,random_generator@rotated_value+1
  3919  002DBC                     
  3920                           ;./the3.h: 218:     TMR1 = rotated_value;
  3921  002DBC  C00E  FFCE         	movff	random_generator@rotated_value,4046	;volatile
  3922  002DC0  C00F  FFCF         	movff	random_generator@rotated_value+1,4047	;volatile
  3923  002DC4                     
  3924                           ;./the3.h: 221:     return pseudo_random;
  3925  002DC4  C00C  F006         	movff	random_generator@pseudo_random,?_random_generator
  3926  002DC8  C00D  F007         	movff	random_generator@pseudo_random+1,?_random_generator+1
  3927  002DCC  0012               	return		;funcret
  3928  002DCE                     __end_of_random_generator:
  3929                           	callstack 0
  3930                           
  3931 ;; *************** function ___lwmod *****************
  3932 ;; Defined at:
  3933 ;;		line 7 in file "/opt/microchip/xc8/v2.30/pic/sources/c99/common/lwmod.c"
  3934 ;; Parameters:    Size  Location     Type
  3935 ;;  dividend        2    0[COMRAM] unsigned int 
  3936 ;;  divisor         2    2[COMRAM] unsigned int 
  3937 ;; Auto vars:     Size  Location     Type
  3938 ;;  counter         1    4[COMRAM] unsigned char 
  3939 ;; Return value:  Size  Location     Type
  3940 ;;                  2    0[COMRAM] unsigned int 
  3941 ;; Registers used:
  3942 ;;		wreg, status,2, status,0
  3943 ;; Tracked objects:
  3944 ;;		On entry : 0/0
  3945 ;;		On exit  : 0/0
  3946 ;;		Unchanged: 0/0
  3947 ;; Data sizes:     COMRAM   BANK0   BANK1   BANK2   BANK3   BANK4   BANK5   BANK6   BANK7   BANK8   BANK9  BANK10  BANK1
      +1  BANK12  BANK13  BANK14  BANK15
  3948 ;;      Params:         4       0       0       0       0       0       0       0       0       0       0       0       
      +0       0       0       0       0
  3949 ;;      Locals:         1       0       0       0       0       0       0       0       0       0       0       0       
      +0       0       0       0       0
  3950 ;;      Temps:          0       0       0       0       0       0       0       0       0       0       0       0       
      +0       0       0       0       0
  3951 ;;      Totals:         5       0       0       0       0       0       0       0       0       0       0       0       
      +0       0       0       0       0
  3952 ;;Total ram usage:        5 bytes
  3953 ;; Hardware stack levels used:    1
  3954 ;; This function calls:
  3955 ;;		Nothing
  3956 ;; This function is called by:
  3957 ;;		_random_generator
  3958 ;; This function uses a non-reentrant model
  3959 ;;
  3960                           
  3961                           	psect	text17
  3962  002CB8                     __ptext17:
  3963                           	callstack 0
  3964  002CB8                     ___lwmod:
  3965                           	callstack 23
  3966  002CB8  5003               	movf	___lwmod@divisor^0,w,c
  3967  002CBA  1004               	iorwf	(___lwmod@divisor+1)^0,w,c
  3968  002CBC  B4D8               	btfsc	status,2,c
  3969  002CBE  EF63  F016         	goto	i2u112_41
  3970  002CC2  EF65  F016         	goto	i2u112_40
  3971  002CC6                     i2u112_41:
  3972  002CC6  EF89  F016         	goto	i2l891
  3973  002CCA                     i2u112_40:
  3974  002CCA  0E01               	movlw	1
  3975  002CCC  6E05               	movwf	___lwmod@counter^0,c
  3976  002CCE  EF6D  F016         	goto	i2l1961
  3977  002CD2                     i2l1959:
  3978  002CD2  90D8               	bcf	status,0,c
  3979  002CD4  3603               	rlcf	___lwmod@divisor^0,f,c
  3980  002CD6  3604               	rlcf	(___lwmod@divisor+1)^0,f,c
  3981  002CD8  2A05               	incf	___lwmod@counter^0,f,c
  3982  002CDA                     i2l1961:
  3983  002CDA  AE04               	btfss	(___lwmod@divisor+1)^0,7,c
  3984  002CDC  EF72  F016         	goto	i2u113_41
  3985  002CE0  EF74  F016         	goto	i2u113_40
  3986  002CE4                     i2u113_41:
  3987  002CE4  EF69  F016         	goto	i2l1959
  3988  002CE8                     i2u113_40:
  3989  002CE8                     i2l1963:
  3990  002CE8  5003               	movf	___lwmod@divisor^0,w,c
  3991  002CEA  5C01               	subwf	___lwmod@dividend^0,w,c
  3992  002CEC  5004               	movf	(___lwmod@divisor+1)^0,w,c
  3993  002CEE  5802               	subwfb	(___lwmod@dividend+1)^0,w,c
  3994  002CF0  A0D8               	btfss	status,0,c
  3995  002CF2  EF7D  F016         	goto	i2u114_41
  3996  002CF6  EF7F  F016         	goto	i2u114_40
  3997  002CFA                     i2u114_41:
  3998  002CFA  EF83  F016         	goto	i2l1967
  3999  002CFE                     i2u114_40:
  4000  002CFE  5003               	movf	___lwmod@divisor^0,w,c
  4001  002D00  5E01               	subwf	___lwmod@dividend^0,f,c
  4002  002D02  5004               	movf	(___lwmod@divisor+1)^0,w,c
  4003  002D04  5A02               	subwfb	(___lwmod@dividend+1)^0,f,c
  4004  002D06                     i2l1967:
  4005  002D06  90D8               	bcf	status,0,c
  4006  002D08  3204               	rrcf	(___lwmod@divisor+1)^0,f,c
  4007  002D0A  3203               	rrcf	___lwmod@divisor^0,f,c
  4008  002D0C  2E05               	decfsz	___lwmod@counter^0,f,c
  4009  002D0E  EF74  F016         	goto	i2l1963
  4010  002D12                     i2l891:
  4011  002D12  C001  F001         	movff	___lwmod@dividend,?___lwmod
  4012  002D16  C002  F002         	movff	___lwmod@dividend+1,?___lwmod+1
  4013  002D1A  0012               	return		;funcret
  4014  002D1C                     __end_of___lwmod:
  4015                           	callstack 0
  4016                           
  4017 ;; *************** function _isValidNPCMove *****************
  4018 ;; Defined at:
  4019 ;;		line 447 in file "newmain.c"
  4020 ;; Parameters:    Size  Location     Type
  4021 ;;  selected_npc    2   10[COMRAM] int 
  4022 ;;  random_direc    2   12[COMRAM] int 
  4023 ;; Auto vars:     Size  Location     Type
  4024 ;;  y               2   18[COMRAM] int 
  4025 ;;  x               2   16[COMRAM] int 
  4026 ;; Return value:  Size  Location     Type
  4027 ;;                  2   10[COMRAM] int 
  4028 ;; Registers used:
  4029 ;;		wreg, fsr2l, fsr2h, status,2, status,0, cstack
  4030 ;; Tracked objects:
  4031 ;;		On entry : 0/0
  4032 ;;		On exit  : 0/0
  4033 ;;		Unchanged: 0/0
  4034 ;; Data sizes:     COMRAM   BANK0   BANK1   BANK2   BANK3   BANK4   BANK5   BANK6   BANK7   BANK8   BANK9  BANK10  BANK1
      +1  BANK12  BANK13  BANK14  BANK15
  4035 ;;      Params:         4       0       0       0       0       0       0       0       0       0       0       0       
      +0       0       0       0       0
  4036 ;;      Locals:         4       0       0       0       0       0       0       0       0       0       0       0       
      +0       0       0       0       0
  4037 ;;      Temps:          2       0       0       0       0       0       0       0       0       0       0       0       
      +0       0       0       0       0
  4038 ;;      Totals:        10       0       0       0       0       0       0       0       0       0       0       0       
      +0       0       0       0       0
  4039 ;;Total ram usage:       10 bytes
  4040 ;; Hardware stack levels used:    1
  4041 ;; Hardware stack levels required when called:    1
  4042 ;; This function calls:
  4043 ;;		_isThereAnyPlayer
  4044 ;; This function is called by:
  4045 ;;		_npcMove
  4046 ;; This function uses a non-reentrant model
  4047 ;;
  4048                           
  4049                           	psect	text18
  4050  001E3E                     __ptext18:
  4051                           	callstack 0
  4052  001E3E                     _isValidNPCMove:
  4053                           	callstack 24
  4054  001E3E                     
  4055                           ;newmain.c: 448:     int x,y;;newmain.c: 449:     x = gameState.player_positions[selecte
      +                          d_npc].x;
  4056  001E3E  0E40               	movlw	low _gameState
  4057  001E40  6E0F               	movwf	??_isValidNPCMove^0,c
  4058  001E42  0E00               	movlw	high _gameState
  4059  001E44  6E10               	movwf	(??_isValidNPCMove+1)^0,c
  4060  001E46  90D8               	bcf	status,0,c
  4061  001E48  340B               	rlcf	isValidNPCMove@selected_npc^0,w,c
  4062  001E4A  6ED9               	movwf	fsr2l,c
  4063  001E4C  340C               	rlcf	(isValidNPCMove@selected_npc+1)^0,w,c
  4064  001E4E  6EDA               	movwf	fsr2h,c
  4065  001E50  90D8               	bcf	status,0,c
  4066  001E52  36D9               	rlcf	fsr2l,f,c
  4067  001E54  36DA               	rlcf	fsr2h,f,c
  4068  001E56  500F               	movf	??_isValidNPCMove^0,w,c
  4069  001E58  26D9               	addwf	fsr2l,f,c
  4070  001E5A  5010               	movf	(??_isValidNPCMove+1)^0,w,c
  4071  001E5C  22DA               	addwfc	fsr2h,f,c
  4072  001E5E  CFDE F011          	movff	postinc2,isValidNPCMove@x
  4073  001E62  CFDD F012          	movff	postdec2,isValidNPCMove@x+1
  4074                           
  4075                           ;newmain.c: 450:     y = gameState.player_positions[selected_npc].y;
  4076  001E66  0E40               	movlw	low _gameState
  4077  001E68  6E0F               	movwf	??_isValidNPCMove^0,c
  4078  001E6A  0E00               	movlw	high _gameState
  4079  001E6C  6E10               	movwf	(??_isValidNPCMove+1)^0,c
  4080  001E6E  0E02               	movlw	2
  4081  001E70  260F               	addwf	??_isValidNPCMove^0,f,c
  4082  001E72  0E00               	movlw	0
  4083  001E74  2210               	addwfc	(??_isValidNPCMove+1)^0,f,c
  4084  001E76  90D8               	bcf	status,0,c
  4085  001E78  340B               	rlcf	isValidNPCMove@selected_npc^0,w,c
  4086  001E7A  6ED9               	movwf	fsr2l,c
  4087  001E7C  340C               	rlcf	(isValidNPCMove@selected_npc+1)^0,w,c
  4088  001E7E  6EDA               	movwf	fsr2h,c
  4089  001E80  90D8               	bcf	status,0,c
  4090  001E82  36D9               	rlcf	fsr2l,f,c
  4091  001E84  36DA               	rlcf	fsr2h,f,c
  4092  001E86  500F               	movf	??_isValidNPCMove^0,w,c
  4093  001E88  26D9               	addwf	fsr2l,f,c
  4094  001E8A  5010               	movf	(??_isValidNPCMove+1)^0,w,c
  4095  001E8C  22DA               	addwfc	fsr2h,f,c
  4096  001E8E  CFDE F013          	movff	postinc2,isValidNPCMove@y
  4097  001E92  CFDD F014          	movff	postdec2,isValidNPCMove@y+1
  4098                           
  4099                           ;newmain.c: 452:     switch (random_direction){
  4100  001E96  EF7B  F00F         	goto	i2l2331
  4101  001E9A                     i2l2313:
  4102                           
  4103                           ;newmain.c: 454:             y -= 1;
  4104  001E9A  0613               	decf	isValidNPCMove@y^0,f,c
  4105  001E9C  A0D8               	btfss	status,0,c
  4106  001E9E  0614               	decf	(isValidNPCMove@y+1)^0,f,c
  4107                           
  4108                           ;newmain.c: 455:             break;
  4109  001EA0  EFA9  F00F         	goto	i2l2333
  4110  001EA4                     i2l2315:
  4111                           
  4112                           ;newmain.c: 457:             y += 1;
  4113  001EA4  4A13               	infsnz	isValidNPCMove@y^0,f,c
  4114  001EA6  2A14               	incf	(isValidNPCMove@y+1)^0,f,c
  4115                           
  4116                           ;newmain.c: 458:             break;
  4117  001EA8  EFA9  F00F         	goto	i2l2333
  4118  001EAC                     i2l2317:
  4119                           
  4120                           ;newmain.c: 460:             x += 1;
  4121  001EAC  4A11               	infsnz	isValidNPCMove@x^0,f,c
  4122  001EAE  2A12               	incf	(isValidNPCMove@x+1)^0,f,c
  4123                           
  4124                           ;newmain.c: 461:             break;
  4125  001EB0  EFA9  F00F         	goto	i2l2333
  4126  001EB4                     i2l2319:
  4127                           
  4128                           ;newmain.c: 463:             x -= 1;
  4129  001EB4  0611               	decf	isValidNPCMove@x^0,f,c
  4130  001EB6  A0D8               	btfss	status,0,c
  4131  001EB8  0612               	decf	(isValidNPCMove@x+1)^0,f,c
  4132                           
  4133                           ;newmain.c: 464:             break;
  4134  001EBA  EFA9  F00F         	goto	i2l2333
  4135  001EBE                     i2l2321:
  4136                           
  4137                           ;newmain.c: 466:             y--;
  4138  001EBE  0613               	decf	isValidNPCMove@y^0,f,c
  4139  001EC0  A0D8               	btfss	status,0,c
  4140  001EC2  0614               	decf	(isValidNPCMove@y+1)^0,f,c
  4141                           
  4142                           ;newmain.c: 467:             x--;
  4143  001EC4  0611               	decf	isValidNPCMove@x^0,f,c
  4144  001EC6  A0D8               	btfss	status,0,c
  4145  001EC8  0612               	decf	(isValidNPCMove@x+1)^0,f,c
  4146                           
  4147                           ;newmain.c: 468:             break;
  4148  001ECA  EFA9  F00F         	goto	i2l2333
  4149  001ECE                     i2l2323:
  4150                           
  4151                           ;newmain.c: 471:             y++;
  4152  001ECE  4A13               	infsnz	isValidNPCMove@y^0,f,c
  4153  001ED0  2A14               	incf	(isValidNPCMove@y+1)^0,f,c
  4154                           
  4155                           ;newmain.c: 472:             x--;
  4156  001ED2  0611               	decf	isValidNPCMove@x^0,f,c
  4157  001ED4  A0D8               	btfss	status,0,c
  4158  001ED6  0612               	decf	(isValidNPCMove@x+1)^0,f,c
  4159                           
  4160                           ;newmain.c: 473:             break;
  4161  001ED8  EFA9  F00F         	goto	i2l2333
  4162  001EDC                     i2l2325:
  4163                           
  4164                           ;newmain.c: 476:             y--;
  4165  001EDC  0613               	decf	isValidNPCMove@y^0,f,c
  4166  001EDE  A0D8               	btfss	status,0,c
  4167  001EE0  0614               	decf	(isValidNPCMove@y+1)^0,f,c
  4168                           
  4169                           ;newmain.c: 477:             x++;
  4170  001EE2  4A11               	infsnz	isValidNPCMove@x^0,f,c
  4171  001EE4  2A12               	incf	(isValidNPCMove@x+1)^0,f,c
  4172                           
  4173                           ;newmain.c: 478:             break;
  4174  001EE6  EFA9  F00F         	goto	i2l2333
  4175  001EEA                     i2l2327:
  4176                           
  4177                           ;newmain.c: 481:             y++;
  4178  001EEA  4A13               	infsnz	isValidNPCMove@y^0,f,c
  4179  001EEC  2A14               	incf	(isValidNPCMove@y+1)^0,f,c
  4180                           
  4181                           ;newmain.c: 482:             x++;
  4182  001EEE  4A11               	infsnz	isValidNPCMove@x^0,f,c
  4183  001EF0  2A12               	incf	(isValidNPCMove@x+1)^0,f,c
  4184                           
  4185                           ;newmain.c: 483:             break;
  4186  001EF2  EFA9  F00F         	goto	i2l2333
  4187  001EF6                     i2l2331:
  4188  001EF6  C00D  F00F         	movff	isValidNPCMove@random_direction,??_isValidNPCMove
  4189  001EFA  C00E  F010         	movff	isValidNPCMove@random_direction+1,??_isValidNPCMove+1
  4190                           
  4191                           ; Switch on 2 bytes has been partitioned into a top level switch of size 1, and 1 sub-sw
      +                          itches
  4192                           ; Switch size 1, requested type "simple"
  4193                           ; Number of cases is 1, Range of values is 0 to 0
  4194                           ; switch strategies available:
  4195                           ; Name         Instructions Cycles
  4196                           ; simple_byte            4     3 (average)
  4197                           ;	Chosen strategy is simple_byte
  4198  001EFE  5010               	movf	(??_isValidNPCMove+1)^0,w,c
  4199  001F00  0A00               	xorlw	0	; case 0
  4200  001F02  B4D8               	btfsc	status,2,c
  4201  001F04  EF86  F00F         	goto	i2l3091
  4202  001F08  EFA9  F00F         	goto	i2l2333
  4203  001F0C                     i2l3091:
  4204                           
  4205                           ; Switch size 1, requested type "simple"
  4206                           ; Number of cases is 8, Range of values is 0 to 7
  4207                           ; switch strategies available:
  4208                           ; Name         Instructions Cycles
  4209                           ; simple_byte           25    13 (average)
  4210                           ;	Chosen strategy is simple_byte
  4211  001F0C  500F               	movf	??_isValidNPCMove^0,w,c
  4212  001F0E  0A00               	xorlw	0	; case 0
  4213  001F10  B4D8               	btfsc	status,2,c
  4214  001F12  EF4D  F00F         	goto	i2l2313
  4215  001F16  0A01               	xorlw	1	; case 1
  4216  001F18  B4D8               	btfsc	status,2,c
  4217  001F1A  EF52  F00F         	goto	i2l2315
  4218  001F1E  0A03               	xorlw	3	; case 2
  4219  001F20  B4D8               	btfsc	status,2,c
  4220  001F22  EF56  F00F         	goto	i2l2317
  4221  001F26  0A01               	xorlw	1	; case 3
  4222  001F28  B4D8               	btfsc	status,2,c
  4223  001F2A  EF5A  F00F         	goto	i2l2319
  4224  001F2E  0A07               	xorlw	7	; case 4
  4225  001F30  B4D8               	btfsc	status,2,c
  4226  001F32  EF5F  F00F         	goto	i2l2321
  4227  001F36  0A01               	xorlw	1	; case 5
  4228  001F38  B4D8               	btfsc	status,2,c
  4229  001F3A  EF67  F00F         	goto	i2l2323
  4230  001F3E  0A03               	xorlw	3	; case 6
  4231  001F40  B4D8               	btfsc	status,2,c
  4232  001F42  EF6E  F00F         	goto	i2l2325
  4233  001F46  0A01               	xorlw	1	; case 7
  4234  001F48  B4D8               	btfsc	status,2,c
  4235  001F4A  EF75  F00F         	goto	i2l2327
  4236  001F4E  EFA9  F00F         	goto	i2l2333
  4237  001F52                     i2l2333:
  4238                           
  4239                           ;newmain.c: 486:     if (isThereAnyPlayer(x,y) || (x == target_x && y == target_y) || (x
      +                          >16 || x<1 || y>4 || y<1) ){
  4240  001F52  C011  F001         	movff	isValidNPCMove@x,isThereAnyPlayer@x
  4241  001F56  C012  F002         	movff	isValidNPCMove@x+1,isThereAnyPlayer@x+1
  4242  001F5A  C013  F003         	movff	isValidNPCMove@y,isThereAnyPlayer@y
  4243  001F5E  C014  F004         	movff	isValidNPCMove@y+1,isThereAnyPlayer@y+1
  4244  001F62  EC54  F012         	call	_isThereAnyPlayer	;wreg free
  4245  001F66  5001               	movf	?_isThereAnyPlayer^0,w,c
  4246  001F68  1002               	iorwf	(?_isThereAnyPlayer+1)^0,w,c
  4247  001F6A  A4D8               	btfss	status,2,c
  4248  001F6C  EFBA  F00F         	goto	i2u157_41
  4249  001F70  EFBC  F00F         	goto	i2u157_40
  4250  001F74                     i2u157_41:
  4251  001F74  EF0A  F010         	goto	i2l2347
  4252  001F78                     i2u157_40:
  4253  001F78  5077               	movf	_target_x^0,w,c
  4254  001F7A  1811               	xorwf	isValidNPCMove@x^0,w,c
  4255  001F7C  E107               	bnz	i2u158_41
  4256  001F7E  5078               	movf	(_target_x+1)^0,w,c
  4257  001F80  1812               	xorwf	(isValidNPCMove@x+1)^0,w,c
  4258  001F82  A4D8               	btfss	status,2,c
  4259  001F84  EFC6  F00F         	goto	i2u158_41
  4260  001F88  EFC8  F00F         	goto	i2u158_40
  4261  001F8C                     i2u158_41:
  4262  001F8C  EFD4  F00F         	goto	i2l2339
  4263  001F90                     i2u158_40:
  4264  001F90  5075               	movf	_target_y^0,w,c
  4265  001F92  1813               	xorwf	isValidNPCMove@y^0,w,c
  4266  001F94  E109               	bnz	i2u159_40
  4267  001F96  5076               	movf	(_target_y+1)^0,w,c
  4268  001F98  1814               	xorwf	(isValidNPCMove@y+1)^0,w,c
  4269  001F9A  B4D8               	btfsc	status,2,c
  4270  001F9C  EFD2  F00F         	goto	i2u159_41
  4271  001FA0  EFD4  F00F         	goto	i2u159_40
  4272  001FA4                     i2u159_41:
  4273  001FA4  EF0A  F010         	goto	i2l2347
  4274  001FA8                     i2u159_40:
  4275  001FA8                     i2l2339:
  4276  001FA8  BE12               	btfsc	(isValidNPCMove@x+1)^0,7,c
  4277  001FAA  EFE2  F00F         	goto	i2u160_40
  4278  001FAE  5012               	movf	(isValidNPCMove@x+1)^0,w,c
  4279  001FB0  E107               	bnz	i2u160_41
  4280  001FB2  0E11               	movlw	17
  4281  001FB4  5C11               	subwf	isValidNPCMove@x^0,w,c
  4282  001FB6  B0D8               	btfsc	status,0,c
  4283  001FB8  EFE0  F00F         	goto	i2u160_41
  4284  001FBC  EFE2  F00F         	goto	i2u160_40
  4285  001FC0                     i2u160_41:
  4286  001FC0  EF0A  F010         	goto	i2l2347
  4287  001FC4                     i2u160_40:
  4288  001FC4  BE12               	btfsc	(isValidNPCMove@x+1)^0,7,c
  4289  001FC6  EFED  F00F         	goto	i2u161_41
  4290  001FCA  5012               	movf	(isValidNPCMove@x+1)^0,w,c
  4291  001FCC  E108               	bnz	i2u161_40
  4292  001FCE  0411               	decf	isValidNPCMove@x^0,w,c
  4293  001FD0  A0D8               	btfss	status,0,c
  4294  001FD2  EFED  F00F         	goto	i2u161_41
  4295  001FD6  EFEF  F00F         	goto	i2u161_40
  4296  001FDA                     i2u161_41:
  4297  001FDA  EF0A  F010         	goto	i2l2347
  4298  001FDE                     i2u161_40:
  4299  001FDE  BE14               	btfsc	(isValidNPCMove@y+1)^0,7,c
  4300  001FE0  EFFD  F00F         	goto	i2u162_40
  4301  001FE4  5014               	movf	(isValidNPCMove@y+1)^0,w,c
  4302  001FE6  E107               	bnz	i2u162_41
  4303  001FE8  0E05               	movlw	5
  4304  001FEA  5C13               	subwf	isValidNPCMove@y^0,w,c
  4305  001FEC  B0D8               	btfsc	status,0,c
  4306  001FEE  EFFB  F00F         	goto	i2u162_41
  4307  001FF2  EFFD  F00F         	goto	i2u162_40
  4308  001FF6                     i2u162_41:
  4309  001FF6  EF0A  F010         	goto	i2l2347
  4310  001FFA                     i2u162_40:
  4311  001FFA  BE14               	btfsc	(isValidNPCMove@y+1)^0,7,c
  4312  001FFC  EF0A  F010         	goto	i2u163_40
  4313  002000  5014               	movf	(isValidNPCMove@y+1)^0,w,c
  4314  002002  E106               	bnz	i2u163_41
  4315  002004  0413               	decf	isValidNPCMove@y^0,w,c
  4316  002006  B0D8               	btfsc	status,0,c
  4317  002008  EF08  F010         	goto	i2u163_41
  4318  00200C  EF0A  F010         	goto	i2u163_40
  4319  002010                     i2u163_41:
  4320  002010  EF10  F010         	goto	i2l2351
  4321  002014                     i2u163_40:
  4322  002014                     i2l2347:
  4323                           
  4324                           ;newmain.c: 487:         return 0;
  4325  002014  0E00               	movlw	0
  4326  002016  6E0C               	movwf	(?_isValidNPCMove+1)^0,c
  4327  002018  0E00               	movlw	0
  4328  00201A  6E0B               	movwf	?_isValidNPCMove^0,c
  4329  00201C  EF14  F010         	goto	i2l334
  4330  002020                     i2l2351:
  4331                           
  4332                           ;newmain.c: 489:     return 1;
  4333  002020  0E00               	movlw	0
  4334  002022  6E0C               	movwf	(?_isValidNPCMove+1)^0,c
  4335  002024  0E01               	movlw	1
  4336  002026  6E0B               	movwf	?_isValidNPCMove^0,c
  4337  002028                     i2l334:
  4338  002028  0012               	return		;funcret
  4339  00202A                     __end_of_isValidNPCMove:
  4340                           	callstack 0
  4341                           
  4342 ;; *************** function _moveFrisbee *****************
  4343 ;; Defined at:
  4344 ;;		line 386 in file "newmain.c"
  4345 ;; Parameters:    Size  Location     Type
  4346 ;;		None
  4347 ;; Auto vars:     Size  Location     Type
  4348 ;;		None
  4349 ;; Return value:  Size  Location     Type
  4350 ;;                  1    wreg      void 
  4351 ;; Registers used:
  4352 ;;		wreg, fsr2l, fsr2h, status,2, status,0, tblptrl, tblptrh, tblptru, cstack
  4353 ;; Tracked objects:
  4354 ;;		On entry : 0/0
  4355 ;;		On exit  : 0/0
  4356 ;;		Unchanged: 0/0
  4357 ;; Data sizes:     COMRAM   BANK0   BANK1   BANK2   BANK3   BANK4   BANK5   BANK6   BANK7   BANK8   BANK9  BANK10  BANK1
      +1  BANK12  BANK13  BANK14  BANK15
  4358 ;;      Params:         0       0       0       0       0       0       0       0       0       0       0       0       
      +0       0       0       0       0
  4359 ;;      Locals:         2       0       0       0       0       0       0       0       0       0       0       0       
      +0       0       0       0       0
  4360 ;;      Temps:          4       0       0       0       0       0       0       0       0       0       0       0       
      +0       0       0       0       0
  4361 ;;      Totals:         6       0       0       0       0       0       0       0       0       0       0       0       
      +0       0       0       0       0
  4362 ;;Total ram usage:        6 bytes
  4363 ;; Hardware stack levels used:    1
  4364 ;; Hardware stack levels required when called:    2
  4365 ;; This function calls:
  4366 ;;		_LCDStr
  4367 ;;		_ifSelectedPlayerHold
  4368 ;;		_isThereAnyPlayer
  4369 ;;		i2_LCDDat
  4370 ;;		i2_LCDGoto
  4371 ;; This function is called by:
  4372 ;;		_FNC
  4373 ;; This function uses a non-reentrant model
  4374 ;;
  4375                           
  4376                           	psect	text19
  4377  001BA8                     __ptext19:
  4378                           	callstack 0
  4379  001BA8                     _moveFrisbee:
  4380                           	callstack 24
  4381  001BA8                     
  4382                           ;newmain.c: 388:     if( current_step == 16 || (frisbee_steps[current_step][0] == target
      +                          _x && frisbee_steps[current_step][1] == target_y)){
  4383  001BA8  0E10               	movlw	16
  4384  001BAA  186F               	xorwf	_current_step^0,w,c
  4385  001BAC  1070               	iorwf	(_current_step+1)^0,w,c
  4386  001BAE  B4D8               	btfsc	status,2,c
  4387  001BB0  EFDC  F00D         	goto	i2u182_41
  4388  001BB4  EFDE  F00D         	goto	i2u182_40
  4389  001BB8                     i2u182_41:
  4390  001BB8  EF1A  F00E         	goto	i2l2631
  4391  001BBC                     i2u182_40:
  4392  001BBC  0E00               	movlw	low _frisbee_steps
  4393  001BBE  6E0B               	movwf	??_moveFrisbee^0,c
  4394  001BC0  0E01               	movlw	high _frisbee_steps
  4395  001BC2  6E0C               	movwf	(??_moveFrisbee+1)^0,c
  4396  001BC4  90D8               	bcf	status,0,c
  4397  001BC6  346F               	rlcf	_current_step^0,w,c
  4398  001BC8  6ED9               	movwf	fsr2l,c
  4399  001BCA  3470               	rlcf	(_current_step+1)^0,w,c
  4400  001BCC  6EDA               	movwf	fsr2h,c
  4401  001BCE  90D8               	bcf	status,0,c
  4402  001BD0  36D9               	rlcf	fsr2l,f,c
  4403  001BD2  36DA               	rlcf	fsr2h,f,c
  4404  001BD4  500B               	movf	??_moveFrisbee^0,w,c
  4405  001BD6  26D9               	addwf	fsr2l,f,c
  4406  001BD8  500C               	movf	(??_moveFrisbee+1)^0,w,c
  4407  001BDA  22DA               	addwfc	fsr2h,f,c
  4408  001BDC  5077               	movf	_target_x^0,w,c
  4409  001BDE  18DE               	xorwf	postinc2,w,c
  4410  001BE0  E107               	bnz	i2u183_41
  4411  001BE2  5078               	movf	(_target_x+1)^0,w,c
  4412  001BE4  18DE               	xorwf	postinc2,w,c
  4413  001BE6  A4D8               	btfss	status,2,c
  4414  001BE8  EFF8  F00D         	goto	i2u183_41
  4415  001BEC  EFFA  F00D         	goto	i2u183_40
  4416  001BF0                     i2u183_41:
  4417  001BF0  EFAE  F00E         	goto	i2l2669
  4418  001BF4                     i2u183_40:
  4419  001BF4  0E00               	movlw	low _frisbee_steps
  4420  001BF6  6E0B               	movwf	??_moveFrisbee^0,c
  4421  001BF8  0E01               	movlw	high _frisbee_steps
  4422  001BFA  6E0C               	movwf	(??_moveFrisbee+1)^0,c
  4423  001BFC  0E02               	movlw	2
  4424  001BFE  260B               	addwf	??_moveFrisbee^0,f,c
  4425  001C00  0E00               	movlw	0
  4426  001C02  220C               	addwfc	(??_moveFrisbee+1)^0,f,c
  4427  001C04  90D8               	bcf	status,0,c
  4428  001C06  346F               	rlcf	_current_step^0,w,c
  4429  001C08  6ED9               	movwf	fsr2l,c
  4430  001C0A  3470               	rlcf	(_current_step+1)^0,w,c
  4431  001C0C  6EDA               	movwf	fsr2h,c
  4432  001C0E  90D8               	bcf	status,0,c
  4433  001C10  36D9               	rlcf	fsr2l,f,c
  4434  001C12  36DA               	rlcf	fsr2h,f,c
  4435  001C14  500B               	movf	??_moveFrisbee^0,w,c
  4436  001C16  26D9               	addwf	fsr2l,f,c
  4437  001C18  500C               	movf	(??_moveFrisbee+1)^0,w,c
  4438  001C1A  22DA               	addwfc	fsr2h,f,c
  4439  001C1C  5075               	movf	_target_y^0,w,c
  4440  001C1E  18DE               	xorwf	postinc2,w,c
  4441  001C20  E107               	bnz	i2u184_41
  4442  001C22  5076               	movf	(_target_y+1)^0,w,c
  4443  001C24  18DE               	xorwf	postinc2,w,c
  4444  001C26  A4D8               	btfss	status,2,c
  4445  001C28  EF18  F00E         	goto	i2u184_41
  4446  001C2C  EF1A  F00E         	goto	i2u184_40
  4447  001C30                     i2u184_41:
  4448  001C30  EFAE  F00E         	goto	i2l2669
  4449  001C34                     i2u184_40:
  4450  001C34                     i2l2631:
  4451                           
  4452                           ;newmain.c: 390:         gameState.game_mode = 1;
  4453  001C34  0E00               	movlw	0
  4454  001C36  6E5B               	movwf	(_gameState+27)^0,c
  4455  001C38  0E01               	movlw	1
  4456  001C3A  6E5A               	movwf	(_gameState+26)^0,c
  4457                           
  4458                           ;newmain.c: 391:         current_step = 0;
  4459  001C3C  0E00               	movlw	0
  4460  001C3E  6E70               	movwf	(_current_step+1)^0,c
  4461  001C40  0E00               	movlw	0
  4462  001C42  6E6F               	movwf	_current_step^0,c
  4463  001C44                     
  4464                           ;newmain.c: 393:         if(!isThereAnyPlayer(gameState.frisbee_position.x, gameState.fr
      +                          isbee_position.y)){
  4465  001C44  C050  F001         	movff	_gameState+16,isThereAnyPlayer@x
  4466  001C48  C051  F002         	movff	_gameState+17,isThereAnyPlayer@x+1
  4467  001C4C  C052  F003         	movff	_gameState+18,isThereAnyPlayer@y
  4468  001C50  C053  F004         	movff	_gameState+19,isThereAnyPlayer@y+1
  4469  001C54  EC54  F012         	call	_isThereAnyPlayer	;wreg free
  4470  001C58  5001               	movf	?_isThereAnyPlayer^0,w,c
  4471  001C5A  1002               	iorwf	(?_isThereAnyPlayer+1)^0,w,c
  4472  001C5C  A4D8               	btfss	status,2,c
  4473  001C5E  EF33  F00E         	goto	i2u185_41
  4474  001C62  EF35  F00E         	goto	i2u185_40
  4475  001C66                     i2u185_41:
  4476  001C66  EF40  F00E         	goto	i2l2639
  4477  001C6A                     i2u185_40:
  4478  001C6A                     
  4479                           ;newmain.c: 394:             LCDGoto(gameState.frisbee_position.x,gameState.frisbee_posi
      +                          tion.y);
  4480  001C6A  C052  F002         	movff	_gameState+18,i2LCDGoto@p_1
  4481  001C6E  5050               	movf	(_gameState+16)^0,w,c
  4482  001C70  EC13  F015         	call	i2_LCDGoto
  4483  001C74                     
  4484                           ;newmain.c: 395:             LCDStr(" ");
  4485  001C74  0E01               	movlw	low STR_1
  4486  001C76  6E02               	movwf	LCDStr@str^0,c
  4487  001C78  0E10               	movlw	high STR_1
  4488  001C7A  6E03               	movwf	(LCDStr@str+1)^0,c
  4489  001C7C  EC97  F014         	call	_LCDStr	;wreg free
  4490  001C80                     i2l2639:
  4491                           
  4492                           ;newmain.c: 397:         gameState.frisbee_position.x = target_x;
  4493  001C80  C077  F050         	movff	_target_x,_gameState+16
  4494  001C84  C078  F051         	movff	_target_x+1,_gameState+17
  4495  001C88                     
  4496                           ;newmain.c: 398:         gameState.frisbee_position.y = target_y;
  4497  001C88  C075  F052         	movff	_target_y,_gameState+18
  4498  001C8C  C076  F053         	movff	_target_y+1,_gameState+19
  4499  001C90                     
  4500                           ;newmain.c: 399:         if(ifSelectedPlayerHold()){
  4501  001C90  EC4F  F014         	call	_ifSelectedPlayerHold	;wreg free
  4502  001C94  5001               	movf	?_ifSelectedPlayerHold^0,w,c
  4503  001C96  1002               	iorwf	(?_ifSelectedPlayerHold+1)^0,w,c
  4504  001C98  B4D8               	btfsc	status,2,c
  4505  001C9A  EF51  F00E         	goto	i2u186_41
  4506  001C9E  EF53  F00E         	goto	i2u186_40
  4507  001CA2                     i2u186_41:
  4508  001CA2  EF9F  F00E         	goto	i2l2659
  4509  001CA6                     i2u186_40:
  4510  001CA6                     
  4511                           ;newmain.c: 400:             gameState.teamA_score += gameState.selected_player < 2 ? 1:
      +                          0;
  4512  001CA6  BE55               	btfsc	(_gameState+21)^0,7,c
  4513  001CA8  EF5F  F00E         	goto	i2u187_41
  4514  001CAC  5055               	movf	(_gameState+21)^0,w,c
  4515  001CAE  E10A               	bnz	i2u187_40
  4516  001CB0  0E02               	movlw	2
  4517  001CB2  5C54               	subwf	(_gameState+20)^0,w,c
  4518  001CB4  A0D8               	btfss	status,0,c
  4519  001CB6  EF5F  F00E         	goto	i2u187_41
  4520  001CBA  EF62  F00E         	goto	i2u187_40
  4521  001CBE                     i2u187_41:
  4522  001CBE  0E01               	movlw	1
  4523  001CC0  EF63  F00E         	goto	i2u188_40
  4524  001CC4                     i2u187_40:
  4525  001CC4  0E00               	movlw	0
  4526  001CC6                     i2u188_40:
  4527  001CC6  2656               	addwf	(_gameState+22)^0,f,c
  4528  001CC8  0E00               	movlw	0
  4529  001CCA  2257               	addwfc	(_gameState+23)^0,f,c
  4530                           
  4531                           ;newmain.c: 401:             gameState.teamB_score += gameState.selected_player >= 2 ? 1
      +                          :0;
  4532  001CCC  BE55               	btfsc	(_gameState+21)^0,7,c
  4533  001CCE  EF75  F00E         	goto	i2u189_40
  4534  001CD2  5055               	movf	(_gameState+21)^0,w,c
  4535  001CD4  E107               	bnz	i2u189_41
  4536  001CD6  0E02               	movlw	2
  4537  001CD8  5C54               	subwf	(_gameState+20)^0,w,c
  4538  001CDA  B0D8               	btfsc	status,0,c
  4539  001CDC  EF72  F00E         	goto	i2u189_41
  4540  001CE0  EF75  F00E         	goto	i2u189_40
  4541  001CE4                     i2u189_41:
  4542  001CE4  0E01               	movlw	1
  4543  001CE6  EF76  F00E         	goto	i2u190_40
  4544  001CEA                     i2u189_40:
  4545  001CEA  0E00               	movlw	0
  4546  001CEC                     i2u190_40:
  4547  001CEC  2658               	addwf	(_gameState+24)^0,f,c
  4548  001CEE  0E00               	movlw	0
  4549  001CF0  2259               	addwfc	(_gameState+25)^0,f,c
  4550  001CF2                     
  4551                           ;newmain.c: 403:             LCDGoto(target_x,target_y);
  4552  001CF2  C075  F002         	movff	_target_y,i2LCDGoto@p_1
  4553  001CF6  5077               	movf	_target_x^0,w,c
  4554  001CF8  EC13  F015         	call	i2_LCDGoto
  4555  001CFC                     
  4556                           ;newmain.c: 404:             LCDDat (gameState.selected_player < 2 ? 5:6);
  4557  001CFC  BE55               	btfsc	(_gameState+21)^0,7,c
  4558  001CFE  EF8A  F00E         	goto	i2u191_41
  4559  001D02  5055               	movf	(_gameState+21)^0,w,c
  4560  001D04  E109               	bnz	i2u191_40
  4561  001D06  0E02               	movlw	2
  4562  001D08  5C54               	subwf	(_gameState+20)^0,w,c
  4563  001D0A  A0D8               	btfss	status,0,c
  4564  001D0C  EF8A  F00E         	goto	i2u191_41
  4565  001D10  EF8C  F00E         	goto	i2u191_40
  4566  001D14                     i2u191_41:
  4567  001D14  EF92  F00E         	goto	i2l2653
  4568  001D18                     i2u191_40:
  4569  001D18  0E00               	movlw	0
  4570  001D1A  6E10               	movwf	(_moveFrisbee$886+1)^0,c
  4571  001D1C  0E06               	movlw	6
  4572  001D1E  6E0F               	movwf	_moveFrisbee$886^0,c
  4573  001D20  EF96  F00E         	goto	i2l2655
  4574  001D24                     i2l2653:
  4575  001D24  0E00               	movlw	0
  4576  001D26  6E10               	movwf	(_moveFrisbee$886+1)^0,c
  4577  001D28  0E05               	movlw	5
  4578  001D2A  6E0F               	movwf	_moveFrisbee$886^0,c
  4579  001D2C                     i2l2655:
  4580  001D2C  500F               	movf	_moveFrisbee$886^0,w,c
  4581  001D2E  ECC0  F017         	call	i2_LCDDat
  4582  001D32                     
  4583                           ;newmain.c: 406:             frisbee_held = 1;
  4584  001D32  0E00               	movlw	0
  4585  001D34  6E72               	movwf	(_frisbee_held+1)^0,c
  4586  001D36  0E01               	movlw	1
  4587  001D38  6E71               	movwf	_frisbee_held^0,c
  4588                           
  4589                           ;newmain.c: 407:         }
  4590  001D3A  EFA7  F00E         	goto	i2l2663
  4591  001D3E                     i2l2659:
  4592                           
  4593                           ;newmain.c: 409:             LCDGoto(target_x,target_y);
  4594  001D3E  C075  F002         	movff	_target_y,i2LCDGoto@p_1
  4595  001D42  5077               	movf	_target_x^0,w,c
  4596  001D44  EC13  F015         	call	i2_LCDGoto
  4597  001D48                     
  4598                           ;newmain.c: 410:             LCDDat(4);
  4599  001D48  0E04               	movlw	4
  4600  001D4A  ECC0  F017         	call	i2_LCDDat
  4601  001D4E                     i2l2663:
  4602                           
  4603                           ;newmain.c: 415:         gameState.game_mode =1 ;
  4604  001D4E  0E00               	movlw	0
  4605  001D50  6E5B               	movwf	(_gameState+27)^0,c
  4606  001D52  0E01               	movlw	1
  4607  001D54  6E5A               	movwf	(_gameState+26)^0,c
  4608  001D56                     
  4609                           ;newmain.c: 416:         T0CONbits.TMR0ON = 0;
  4610  001D56  9ED5               	bcf	213,7,c	;volatile
  4611  001D58  EF1E  F00F         	goto	i2l305
  4612  001D5C                     i2l2669:
  4613                           
  4614                           ;newmain.c: 422:     if(current_step!=0 && !isThereAnyPlayer(gameState.frisbee_position.
      +                          x, gameState.frisbee_position.y)){
  4615  001D5C  506F               	movf	_current_step^0,w,c
  4616  001D5E  1070               	iorwf	(_current_step+1)^0,w,c
  4617  001D60  B4D8               	btfsc	status,2,c
  4618  001D62  EFB5  F00E         	goto	i2u192_41
  4619  001D66  EFB7  F00E         	goto	i2u192_40
  4620  001D6A                     i2u192_41:
  4621  001D6A  EFD5  F00E         	goto	i2l2677
  4622  001D6E                     i2u192_40:
  4623  001D6E  C050  F001         	movff	_gameState+16,isThereAnyPlayer@x
  4624  001D72  C051  F002         	movff	_gameState+17,isThereAnyPlayer@x+1
  4625  001D76  C052  F003         	movff	_gameState+18,isThereAnyPlayer@y
  4626  001D7A  C053  F004         	movff	_gameState+19,isThereAnyPlayer@y+1
  4627  001D7E  EC54  F012         	call	_isThereAnyPlayer	;wreg free
  4628  001D82  5001               	movf	?_isThereAnyPlayer^0,w,c
  4629  001D84  1002               	iorwf	(?_isThereAnyPlayer+1)^0,w,c
  4630  001D86  A4D8               	btfss	status,2,c
  4631  001D88  EFC8  F00E         	goto	i2u193_41
  4632  001D8C  EFCA  F00E         	goto	i2u193_40
  4633  001D90                     i2u193_41:
  4634  001D90  EFD5  F00E         	goto	i2l2677
  4635  001D94                     i2u193_40:
  4636  001D94                     
  4637                           ;newmain.c: 423:         LCDGoto(gameState.frisbee_position.x,gameState.frisbee_position
      +                          .y);
  4638  001D94  C052  F002         	movff	_gameState+18,i2LCDGoto@p_1
  4639  001D98  5050               	movf	(_gameState+16)^0,w,c
  4640  001D9A  EC13  F015         	call	i2_LCDGoto
  4641  001D9E                     
  4642                           ;newmain.c: 424:         LCDStr(" ");
  4643  001D9E  0E01               	movlw	low STR_1
  4644  001DA0  6E02               	movwf	LCDStr@str^0,c
  4645  001DA2  0E10               	movlw	high STR_1
  4646  001DA4  6E03               	movwf	(LCDStr@str+1)^0,c
  4647  001DA6  EC97  F014         	call	_LCDStr	;wreg free
  4648  001DAA                     i2l2677:
  4649                           
  4650                           ;newmain.c: 427:     gameState.frisbee_position.x = frisbee_steps[current_step][0] ;
  4651  001DAA  0E00               	movlw	low _frisbee_steps
  4652  001DAC  6E0B               	movwf	??_moveFrisbee^0,c
  4653  001DAE  0E01               	movlw	high _frisbee_steps
  4654  001DB0  6E0C               	movwf	(??_moveFrisbee+1)^0,c
  4655  001DB2  90D8               	bcf	status,0,c
  4656  001DB4  346F               	rlcf	_current_step^0,w,c
  4657  001DB6  6ED9               	movwf	fsr2l,c
  4658  001DB8  3470               	rlcf	(_current_step+1)^0,w,c
  4659  001DBA  6EDA               	movwf	fsr2h,c
  4660  001DBC  90D8               	bcf	status,0,c
  4661  001DBE  36D9               	rlcf	fsr2l,f,c
  4662  001DC0  36DA               	rlcf	fsr2h,f,c
  4663  001DC2  500B               	movf	??_moveFrisbee^0,w,c
  4664  001DC4  26D9               	addwf	fsr2l,f,c
  4665  001DC6  500C               	movf	(??_moveFrisbee+1)^0,w,c
  4666  001DC8  22DA               	addwfc	fsr2h,f,c
  4667  001DCA  CFDE F050          	movff	postinc2,_gameState+16
  4668  001DCE  CFDD F051          	movff	postdec2,_gameState+17
  4669  001DD2                     
  4670                           ;newmain.c: 428:     gameState.frisbee_position.y = frisbee_steps[current_step][1] ;
  4671  001DD2  0E00               	movlw	low _frisbee_steps
  4672  001DD4  6E0B               	movwf	??_moveFrisbee^0,c
  4673  001DD6  0E01               	movlw	high _frisbee_steps
  4674  001DD8  6E0C               	movwf	(??_moveFrisbee+1)^0,c
  4675  001DDA  0E02               	movlw	2
  4676  001DDC  260B               	addwf	??_moveFrisbee^0,f,c
  4677  001DDE  0E00               	movlw	0
  4678  001DE0  220C               	addwfc	(??_moveFrisbee+1)^0,f,c
  4679  001DE2  90D8               	bcf	status,0,c
  4680  001DE4  346F               	rlcf	_current_step^0,w,c
  4681  001DE6  6ED9               	movwf	fsr2l,c
  4682  001DE8  3470               	rlcf	(_current_step+1)^0,w,c
  4683  001DEA  6EDA               	movwf	fsr2h,c
  4684  001DEC  90D8               	bcf	status,0,c
  4685  001DEE  36D9               	rlcf	fsr2l,f,c
  4686  001DF0  36DA               	rlcf	fsr2h,f,c
  4687  001DF2  500B               	movf	??_moveFrisbee^0,w,c
  4688  001DF4  26D9               	addwf	fsr2l,f,c
  4689  001DF6  500C               	movf	(??_moveFrisbee+1)^0,w,c
  4690  001DF8  22DA               	addwfc	fsr2h,f,c
  4691  001DFA  CFDE F052          	movff	postinc2,_gameState+18
  4692  001DFE  CFDD F053          	movff	postdec2,_gameState+19
  4693  001E02                     
  4694                           ;newmain.c: 431:     if(!isThereAnyPlayer(gameState.frisbee_position.x, gameState.frisbe
      +                          e_position.y)){
  4695  001E02  C050  F001         	movff	_gameState+16,isThereAnyPlayer@x
  4696  001E06  C051  F002         	movff	_gameState+17,isThereAnyPlayer@x+1
  4697  001E0A  C052  F003         	movff	_gameState+18,isThereAnyPlayer@y
  4698  001E0E  C053  F004         	movff	_gameState+19,isThereAnyPlayer@y+1
  4699  001E12  EC54  F012         	call	_isThereAnyPlayer	;wreg free
  4700  001E16  5001               	movf	?_isThereAnyPlayer^0,w,c
  4701  001E18  1002               	iorwf	(?_isThereAnyPlayer+1)^0,w,c
  4702  001E1A  A4D8               	btfss	status,2,c
  4703  001E1C  EF12  F00F         	goto	i2u194_41
  4704  001E20  EF14  F00F         	goto	i2u194_40
  4705  001E24                     i2u194_41:
  4706  001E24  EF1C  F00F         	goto	i2l307
  4707  001E28                     i2u194_40:
  4708  001E28                     
  4709                           ;newmain.c: 432:         LCDGoto(gameState.frisbee_position.x,gameState.frisbee_position
      +                          .y);
  4710  001E28  C052  F002         	movff	_gameState+18,i2LCDGoto@p_1
  4711  001E2C  5050               	movf	(_gameState+16)^0,w,c
  4712  001E2E  EC13  F015         	call	i2_LCDGoto
  4713  001E32                     
  4714                           ;newmain.c: 433:         LCDDat(4);
  4715  001E32  0E04               	movlw	4
  4716  001E34  ECC0  F017         	call	i2_LCDDat
  4717  001E38                     i2l307:
  4718                           
  4719                           ;newmain.c: 436:     current_step++;
  4720  001E38  4A6F               	infsnz	_current_step^0,f,c
  4721  001E3A  2A70               	incf	(_current_step+1)^0,f,c
  4722  001E3C                     i2l305:
  4723  001E3C  0012               	return		;funcret
  4724  001E3E                     __end_of_moveFrisbee:
  4725                           	callstack 0
  4726                           
  4727 ;; *************** function _isThereAnyPlayer *****************
  4728 ;; Defined at:
  4729 ;;		line 347 in file "newmain.c"
  4730 ;; Parameters:    Size  Location     Type
  4731 ;;  x               2    0[COMRAM] int 
  4732 ;;  y               2    2[COMRAM] int 
  4733 ;; Auto vars:     Size  Location     Type
  4734 ;;  i               2    8[COMRAM] int 
  4735 ;; Return value:  Size  Location     Type
  4736 ;;                  2    0[COMRAM] int 
  4737 ;; Registers used:
  4738 ;;		wreg, fsr2l, fsr2h, status,2, status,0
  4739 ;; Tracked objects:
  4740 ;;		On entry : 0/0
  4741 ;;		On exit  : 0/0
  4742 ;;		Unchanged: 0/0
  4743 ;; Data sizes:     COMRAM   BANK0   BANK1   BANK2   BANK3   BANK4   BANK5   BANK6   BANK7   BANK8   BANK9  BANK10  BANK1
      +1  BANK12  BANK13  BANK14  BANK15
  4744 ;;      Params:         4       0       0       0       0       0       0       0       0       0       0       0       
      +0       0       0       0       0
  4745 ;;      Locals:         2       0       0       0       0       0       0       0       0       0       0       0       
      +0       0       0       0       0
  4746 ;;      Temps:          4       0       0       0       0       0       0       0       0       0       0       0       
      +0       0       0       0       0
  4747 ;;      Totals:        10       0       0       0       0       0       0       0       0       0       0       0       
      +0       0       0       0       0
  4748 ;;Total ram usage:       10 bytes
  4749 ;; Hardware stack levels used:    1
  4750 ;; This function calls:
  4751 ;;		Nothing
  4752 ;; This function is called by:
  4753 ;;		_moveFrisbee
  4754 ;;		_isValidNPCMove
  4755 ;; This function uses a non-reentrant model
  4756 ;;
  4757                           
  4758                           	psect	text20
  4759  0024A8                     __ptext20:
  4760                           	callstack 0
  4761  0024A8                     _isThereAnyPlayer:
  4762                           	callstack 24
  4763  0024A8                     
  4764                           ;newmain.c: 348:    for (int i=0 ; i<4; i++){
  4765  0024A8  0E00               	movlw	0
  4766  0024AA  6E0A               	movwf	(isThereAnyPlayer@i+1)^0,c
  4767  0024AC  0E00               	movlw	0
  4768  0024AE  6E09               	movwf	isThereAnyPlayer@i^0,c
  4769  0024B0                     i2l2047:
  4770                           
  4771                           ;newmain.c: 349:        if (gameState.player_positions[i].x == x && gameState.player_pos
      +                          itions[i].y == y){
  4772  0024B0  0E40               	movlw	low _gameState
  4773  0024B2  6E05               	movwf	??_isThereAnyPlayer^0,c
  4774  0024B4  0E00               	movlw	high _gameState
  4775  0024B6  6E06               	movwf	(??_isThereAnyPlayer+1)^0,c
  4776  0024B8  90D8               	bcf	status,0,c
  4777  0024BA  3409               	rlcf	isThereAnyPlayer@i^0,w,c
  4778  0024BC  6ED9               	movwf	fsr2l,c
  4779  0024BE  340A               	rlcf	(isThereAnyPlayer@i+1)^0,w,c
  4780  0024C0  6EDA               	movwf	fsr2h,c
  4781  0024C2  90D8               	bcf	status,0,c
  4782  0024C4  36D9               	rlcf	fsr2l,f,c
  4783  0024C6  36DA               	rlcf	fsr2h,f,c
  4784  0024C8  5005               	movf	??_isThereAnyPlayer^0,w,c
  4785  0024CA  26D9               	addwf	fsr2l,f,c
  4786  0024CC  5006               	movf	(??_isThereAnyPlayer+1)^0,w,c
  4787  0024CE  22DA               	addwfc	fsr2h,f,c
  4788  0024D0  5001               	movf	isThereAnyPlayer@x^0,w,c
  4789  0024D2  18DE               	xorwf	postinc2,w,c
  4790  0024D4  E107               	bnz	i2u118_41
  4791  0024D6  5002               	movf	(isThereAnyPlayer@x+1)^0,w,c
  4792  0024D8  18DE               	xorwf	postinc2,w,c
  4793  0024DA  A4D8               	btfss	status,2,c
  4794  0024DC  EF72  F012         	goto	i2u118_41
  4795  0024E0  EF74  F012         	goto	i2u118_40
  4796  0024E4                     i2u118_41:
  4797  0024E4  EF9A  F012         	goto	i2l2055
  4798  0024E8                     i2u118_40:
  4799  0024E8  0E40               	movlw	low _gameState
  4800  0024EA  6E05               	movwf	??_isThereAnyPlayer^0,c
  4801  0024EC  0E00               	movlw	high _gameState
  4802  0024EE  6E06               	movwf	(??_isThereAnyPlayer+1)^0,c
  4803  0024F0  0E02               	movlw	2
  4804  0024F2  2605               	addwf	??_isThereAnyPlayer^0,f,c
  4805  0024F4  0E00               	movlw	0
  4806  0024F6  2206               	addwfc	(??_isThereAnyPlayer+1)^0,f,c
  4807  0024F8  90D8               	bcf	status,0,c
  4808  0024FA  3409               	rlcf	isThereAnyPlayer@i^0,w,c
  4809  0024FC  6ED9               	movwf	fsr2l,c
  4810  0024FE  340A               	rlcf	(isThereAnyPlayer@i+1)^0,w,c
  4811  002500  6EDA               	movwf	fsr2h,c
  4812  002502  90D8               	bcf	status,0,c
  4813  002504  36D9               	rlcf	fsr2l,f,c
  4814  002506  36DA               	rlcf	fsr2h,f,c
  4815  002508  5005               	movf	??_isThereAnyPlayer^0,w,c
  4816  00250A  26D9               	addwf	fsr2l,f,c
  4817  00250C  5006               	movf	(??_isThereAnyPlayer+1)^0,w,c
  4818  00250E  22DA               	addwfc	fsr2h,f,c
  4819  002510  5003               	movf	isThereAnyPlayer@y^0,w,c
  4820  002512  18DE               	xorwf	postinc2,w,c
  4821  002514  E107               	bnz	i2u119_41
  4822  002516  5004               	movf	(isThereAnyPlayer@y+1)^0,w,c
  4823  002518  18DE               	xorwf	postinc2,w,c
  4824  00251A  A4D8               	btfss	status,2,c
  4825  00251C  EF92  F012         	goto	i2u119_41
  4826  002520  EF94  F012         	goto	i2u119_40
  4827  002524                     i2u119_41:
  4828  002524  EF9A  F012         	goto	i2l2055
  4829  002528                     i2u119_40:
  4830  002528                     
  4831                           ;newmain.c: 350:            return 1;
  4832  002528  0E00               	movlw	0
  4833  00252A  6E02               	movwf	(?_isThereAnyPlayer+1)^0,c
  4834  00252C  0E01               	movlw	1
  4835  00252E  6E01               	movwf	?_isThereAnyPlayer^0,c
  4836  002530  EFAE  F012         	goto	i2l280
  4837  002534                     i2l2055:
  4838                           
  4839                           ;newmain.c: 352:    }
  4840  002534  4A09               	infsnz	isThereAnyPlayer@i^0,f,c
  4841  002536  2A0A               	incf	(isThereAnyPlayer@i+1)^0,f,c
  4842  002538  BE0A               	btfsc	(isThereAnyPlayer@i+1)^0,7,c
  4843  00253A  EFA8  F012         	goto	i2u120_41
  4844  00253E  500A               	movf	(isThereAnyPlayer@i+1)^0,w,c
  4845  002540  E109               	bnz	i2u120_40
  4846  002542  0E04               	movlw	4
  4847  002544  5C09               	subwf	isThereAnyPlayer@i^0,w,c
  4848  002546  A0D8               	btfss	status,0,c
  4849  002548  EFA8  F012         	goto	i2u120_41
  4850  00254C  EFAA  F012         	goto	i2u120_40
  4851  002550                     i2u120_41:
  4852  002550  EF58  F012         	goto	i2l2047
  4853  002554                     i2u120_40:
  4854  002554                     
  4855                           ;newmain.c: 353:    return 0;
  4856  002554  0E00               	movlw	0
  4857  002556  6E02               	movwf	(?_isThereAnyPlayer+1)^0,c
  4858  002558  0E00               	movlw	0
  4859  00255A  6E01               	movwf	?_isThereAnyPlayer^0,c
  4860  00255C                     i2l280:
  4861  00255C  0012               	return		;funcret
  4862  00255E                     __end_of_isThereAnyPlayer:
  4863                           	callstack 0
  4864                           
  4865 ;; *************** function _ifSelectedPlayerHold *****************
  4866 ;; Defined at:
  4867 ;;		line 380 in file "newmain.c"
  4868 ;; Parameters:    Size  Location     Type
  4869 ;;		None
  4870 ;; Auto vars:     Size  Location     Type
  4871 ;;  selected_pla    2    7[COMRAM] int 
  4872 ;; Return value:  Size  Location     Type
  4873 ;;                  2    0[COMRAM] int 
  4874 ;; Registers used:
  4875 ;;		wreg, fsr2l, fsr2h, status,2, status,0
  4876 ;; Tracked objects:
  4877 ;;		On entry : 0/0
  4878 ;;		On exit  : 0/0
  4879 ;;		Unchanged: 0/0
  4880 ;; Data sizes:     COMRAM   BANK0   BANK1   BANK2   BANK3   BANK4   BANK5   BANK6   BANK7   BANK8   BANK9  BANK10  BANK1
      +1  BANK12  BANK13  BANK14  BANK15
  4881 ;;      Params:         2       0       0       0       0       0       0       0       0       0       0       0       
      +0       0       0       0       0
  4882 ;;      Locals:         3       0       0       0       0       0       0       0       0       0       0       0       
      +0       0       0       0       0
  4883 ;;      Temps:          4       0       0       0       0       0       0       0       0       0       0       0       
      +0       0       0       0       0
  4884 ;;      Totals:         9       0       0       0       0       0       0       0       0       0       0       0       
      +0       0       0       0       0
  4885 ;;Total ram usage:        9 bytes
  4886 ;; Hardware stack levels used:    1
  4887 ;; This function calls:
  4888 ;;		Nothing
  4889 ;; This function is called by:
  4890 ;;		_moveFrisbee
  4891 ;; This function uses a non-reentrant model
  4892 ;;
  4893                           
  4894                           	psect	text21
  4895  00289E                     __ptext21:
  4896                           	callstack 0
  4897  00289E                     _ifSelectedPlayerHold:
  4898                           	callstack 25
  4899  00289E                     
  4900                           ;newmain.c: 381:     int selected_player = gameState.selected_player;
  4901  00289E  C054  F008         	movff	_gameState+20,ifSelectedPlayerHold@selected_player
  4902  0028A2  C055  F009         	movff	_gameState+21,ifSelectedPlayerHold@selected_player+1
  4903  0028A6                     
  4904                           ;newmain.c: 382:     return gameState.frisbee_position.x == gameState.player_positions[s
      +                          elected_player].x &&
  4905  0028A6  0E00               	movlw	0
  4906  0028A8  6E07               	movwf	_ifSelectedPlayerHold$881^0,c
  4907  0028AA  0E40               	movlw	low _gameState
  4908  0028AC  6E03               	movwf	??_ifSelectedPlayerHold^0,c
  4909  0028AE  0E00               	movlw	high _gameState
  4910  0028B0  6E04               	movwf	(??_ifSelectedPlayerHold+1)^0,c
  4911  0028B2  90D8               	bcf	status,0,c
  4912  0028B4  3408               	rlcf	ifSelectedPlayerHold@selected_player^0,w,c
  4913  0028B6  6ED9               	movwf	fsr2l,c
  4914  0028B8  3409               	rlcf	(ifSelectedPlayerHold@selected_player+1)^0,w,c
  4915  0028BA  6EDA               	movwf	fsr2h,c
  4916  0028BC  90D8               	bcf	status,0,c
  4917  0028BE  36D9               	rlcf	fsr2l,f,c
  4918  0028C0  36DA               	rlcf	fsr2h,f,c
  4919  0028C2  5003               	movf	??_ifSelectedPlayerHold^0,w,c
  4920  0028C4  26D9               	addwf	fsr2l,f,c
  4921  0028C6  5004               	movf	(??_ifSelectedPlayerHold+1)^0,w,c
  4922  0028C8  22DA               	addwfc	fsr2h,f,c
  4923  0028CA  50DE               	movf	postinc2,w,c
  4924  0028CC  1850               	xorwf	(_gameState+16)^0,w,c
  4925  0028CE  E107               	bnz	i2u155_41
  4926  0028D0  50DE               	movf	postinc2,w,c
  4927  0028D2  1851               	xorwf	(_gameState+17)^0,w,c
  4928  0028D4  A4D8               	btfss	status,2,c
  4929  0028D6  EF6F  F014         	goto	i2u155_41
  4930  0028DA  EF71  F014         	goto	i2u155_40
  4931  0028DE                     i2u155_41:
  4932  0028DE  EF93  F014         	goto	i2l2307
  4933  0028E2                     i2u155_40:
  4934  0028E2  0E40               	movlw	low _gameState
  4935  0028E4  6E03               	movwf	??_ifSelectedPlayerHold^0,c
  4936  0028E6  0E00               	movlw	high _gameState
  4937  0028E8  6E04               	movwf	(??_ifSelectedPlayerHold+1)^0,c
  4938  0028EA  0E02               	movlw	2
  4939  0028EC  2603               	addwf	??_ifSelectedPlayerHold^0,f,c
  4940  0028EE  0E00               	movlw	0
  4941  0028F0  2204               	addwfc	(??_ifSelectedPlayerHold+1)^0,f,c
  4942  0028F2  90D8               	bcf	status,0,c
  4943  0028F4  3408               	rlcf	ifSelectedPlayerHold@selected_player^0,w,c
  4944  0028F6  6ED9               	movwf	fsr2l,c
  4945  0028F8  3409               	rlcf	(ifSelectedPlayerHold@selected_player+1)^0,w,c
  4946  0028FA  6EDA               	movwf	fsr2h,c
  4947  0028FC  90D8               	bcf	status,0,c
  4948  0028FE  36D9               	rlcf	fsr2l,f,c
  4949  002900  36DA               	rlcf	fsr2h,f,c
  4950  002902  5003               	movf	??_ifSelectedPlayerHold^0,w,c
  4951  002904  26D9               	addwf	fsr2l,f,c
  4952  002906  5004               	movf	(??_ifSelectedPlayerHold+1)^0,w,c
  4953  002908  22DA               	addwfc	fsr2h,f,c
  4954  00290A  50DE               	movf	postinc2,w,c
  4955  00290C  1852               	xorwf	(_gameState+18)^0,w,c
  4956  00290E  E107               	bnz	i2u156_41
  4957  002910  50DE               	movf	postinc2,w,c
  4958  002912  1853               	xorwf	(_gameState+19)^0,w,c
  4959  002914  A4D8               	btfss	status,2,c
  4960  002916  EF8F  F014         	goto	i2u156_41
  4961  00291A  EF91  F014         	goto	i2u156_40
  4962  00291E                     i2u156_41:
  4963  00291E  EF93  F014         	goto	i2l2307
  4964  002922                     i2u156_40:
  4965  002922  0E01               	movlw	1
  4966  002924  6E07               	movwf	_ifSelectedPlayerHold$881^0,c
  4967  002926                     i2l2307:
  4968  002926  C007  F001         	movff	_ifSelectedPlayerHold$881,?_ifSelectedPlayerHold
  4969  00292A  6A02               	clrf	(?_ifSelectedPlayerHold+1)^0,c
  4970  00292C  0012               	return		;funcret
  4971  00292E                     __end_of_ifSelectedPlayerHold:
  4972                           	callstack 0
  4973                           
  4974 ;; *************** function _gamepadPressed *****************
  4975 ;; Defined at:
  4976 ;;		line 194 in file "newmain.c"
  4977 ;; Parameters:    Size  Location     Type
  4978 ;;		None
  4979 ;; Auto vars:     Size  Location     Type
  4980 ;;  oldY            2   24[COMRAM] int 
  4981 ;;  oldX            2   22[COMRAM] int 
  4982 ;;  current_port    1   26[COMRAM] unsigned char 
  4983 ;; Return value:  Size  Location     Type
  4984 ;;                  1    wreg      void 
  4985 ;; Registers used:
  4986 ;;		wreg, fsr2l, fsr2h, status,2, status,0, tblptrl, tblptrh, tblptru, cstack
  4987 ;; Tracked objects:
  4988 ;;		On entry : 0/0
  4989 ;;		On exit  : 0/0
  4990 ;;		Unchanged: 0/0
  4991 ;; Data sizes:     COMRAM   BANK0   BANK1   BANK2   BANK3   BANK4   BANK5   BANK6   BANK7   BANK8   BANK9  BANK10  BANK1
      +1  BANK12  BANK13  BANK14  BANK15
  4992 ;;      Params:         0       0       0       0       0       0       0       0       0       0       0       0       
      +0       0       0       0       0
  4993 ;;      Locals:         5       0       0       0       0       0       0       0       0       0       0       0       
      +0       0       0       0       0
  4994 ;;      Temps:          4       0       0       0       0       0       0       0       0       0       0       0       
      +0       0       0       0       0
  4995 ;;      Totals:         9       0       0       0       0       0       0       0       0       0       0       0       
      +0       0       0       0       0
  4996 ;;Total ram usage:        9 bytes
  4997 ;; Hardware stack levels used:    1
  4998 ;; Hardware stack levels required when called:    3
  4999 ;; This function calls:
  5000 ;;		_bitChangedToZero
  5001 ;;		_frisbeeHeld
  5002 ;;		_frisbeeHeldOnLCD
  5003 ;;		_frisbeeReleasedOnLCD
  5004 ;;		_hasPlayerLeftFrisbeeLocation
  5005 ;;		_isThereOtherPlayer
  5006 ;;		_moveSelectedPlayerPositionOnLCD
  5007 ;; This function is called by:
  5008 ;;		_FNC
  5009 ;; This function uses a non-reentrant model
  5010 ;;
  5011                           
  5012                           	psect	text22
  5013  001454                     __ptext22:
  5014                           	callstack 0
  5015  001454                     _gamepadPressed:
  5016                           	callstack 23
  5017  001454                     
  5018                           ;newmain.c: 195:     byte current_portb = PORTB;;
  5019  001454  CF81 F01B          	movff	3969,gamepadPressed@current_portb	;volatile
  5020  001458                     
  5021                           ;newmain.c: 196:     _delay((unsigned long)((1)*(40000000L/4000.0)));
  5022  001458  0E0D               	movlw	13
  5023  00145A  6E13               	movwf	??_gamepadPressed^0,c
  5024  00145C  0EFC               	movlw	252
  5025  00145E                     i2u234_47:
  5026  00145E  2EE8               	decfsz	wreg,f,c
  5027  001460  D7FE               	bra	i2u234_47
  5028  001462  2E13               	decfsz	??_gamepadPressed^0,f,c
  5029  001464  D7FC               	bra	i2u234_47
  5030  001466                     
  5031                           ;newmain.c: 197:     int oldX = gameState.player_positions[gameState.selected_player].x;
  5032  001466  0E40               	movlw	low _gameState
  5033  001468  6E13               	movwf	??_gamepadPressed^0,c
  5034  00146A  0E00               	movlw	high _gameState
  5035  00146C  6E14               	movwf	(??_gamepadPressed+1)^0,c
  5036  00146E  90D8               	bcf	status,0,c
  5037  001470  3454               	rlcf	(_gameState+20)^0,w,c
  5038  001472  6ED9               	movwf	fsr2l,c
  5039  001474  3455               	rlcf	(_gameState+21)^0,w,c
  5040  001476  6EDA               	movwf	fsr2h,c
  5041  001478  90D8               	bcf	status,0,c
  5042  00147A  36D9               	rlcf	fsr2l,f,c
  5043  00147C  36DA               	rlcf	fsr2h,f,c
  5044  00147E  5013               	movf	??_gamepadPressed^0,w,c
  5045  001480  26D9               	addwf	fsr2l,f,c
  5046  001482  5014               	movf	(??_gamepadPressed+1)^0,w,c
  5047  001484  22DA               	addwfc	fsr2h,f,c
  5048  001486  CFDE F017          	movff	postinc2,gamepadPressed@oldX
  5049  00148A  CFDD F018          	movff	postdec2,gamepadPressed@oldX+1
  5050  00148E                     
  5051                           ;newmain.c: 198:     int oldY = gameState.player_positions[gameState.selected_player].y;
  5052  00148E  0E40               	movlw	low _gameState
  5053  001490  6E13               	movwf	??_gamepadPressed^0,c
  5054  001492  0E00               	movlw	high _gameState
  5055  001494  6E14               	movwf	(??_gamepadPressed+1)^0,c
  5056  001496  0E02               	movlw	2
  5057  001498  2613               	addwf	??_gamepadPressed^0,f,c
  5058  00149A  0E00               	movlw	0
  5059  00149C  2214               	addwfc	(??_gamepadPressed+1)^0,f,c
  5060  00149E  90D8               	bcf	status,0,c
  5061  0014A0  3454               	rlcf	(_gameState+20)^0,w,c
  5062  0014A2  6ED9               	movwf	fsr2l,c
  5063  0014A4  3455               	rlcf	(_gameState+21)^0,w,c
  5064  0014A6  6EDA               	movwf	fsr2h,c
  5065  0014A8  90D8               	bcf	status,0,c
  5066  0014AA  36D9               	rlcf	fsr2l,f,c
  5067  0014AC  36DA               	rlcf	fsr2h,f,c
  5068  0014AE  5013               	movf	??_gamepadPressed^0,w,c
  5069  0014B0  26D9               	addwf	fsr2l,f,c
  5070  0014B2  5014               	movf	(??_gamepadPressed+1)^0,w,c
  5071  0014B4  22DA               	addwfc	fsr2h,f,c
  5072  0014B6  CFDE F019          	movff	postinc2,gamepadPressed@oldY
  5073  0014BA  CFDD F01A          	movff	postdec2,gamepadPressed@oldY+1
  5074  0014BE                     
  5075                           ;newmain.c: 203:     if (bitChangedToZero(previous_portb,current_portb,4))
  5076  0014BE  C01B  F001         	movff	gamepadPressed@current_portb,bitChangedToZero@curr
  5077  0014C2  0E00               	movlw	0
  5078  0014C4  6E03               	movwf	(bitChangedToZero@bit+1)^0,c
  5079  0014C6  0E04               	movlw	4
  5080  0014C8  6E02               	movwf	bitChangedToZero@bit^0,c
  5081  0014CA  5079               	movf	_previous_portb^0,w,c
  5082  0014CC  ECF4  F015         	call	_bitChangedToZero
  5083  0014D0  5001               	movf	?_bitChangedToZero^0,w,c
  5084  0014D2  1002               	iorwf	(?_bitChangedToZero+1)^0,w,c
  5085  0014D4  B4D8               	btfsc	status,2,c
  5086  0014D6  EF6F  F00A         	goto	i2u165_41
  5087  0014DA  EF71  F00A         	goto	i2u165_40
  5088  0014DE                     i2u165_41:
  5089  0014DE  EFC0  F00A         	goto	i2l2447
  5090  0014E2                     i2u165_40:
  5091  0014E2                     
  5092                           ;newmain.c: 204:     {;newmain.c: 205:         if (gameState.player_positions[gameState.
      +                          selected_player].y == 1){
  5093  0014E2  0E40               	movlw	low _gameState
  5094  0014E4  6E13               	movwf	??_gamepadPressed^0,c
  5095  0014E6  0E00               	movlw	high _gameState
  5096  0014E8  6E14               	movwf	(??_gamepadPressed+1)^0,c
  5097  0014EA  0E02               	movlw	2
  5098  0014EC  2613               	addwf	??_gamepadPressed^0,f,c
  5099  0014EE  0E00               	movlw	0
  5100  0014F0  2214               	addwfc	(??_gamepadPressed+1)^0,f,c
  5101  0014F2  90D8               	bcf	status,0,c
  5102  0014F4  3454               	rlcf	(_gameState+20)^0,w,c
  5103  0014F6  6ED9               	movwf	fsr2l,c
  5104  0014F8  3455               	rlcf	(_gameState+21)^0,w,c
  5105  0014FA  6EDA               	movwf	fsr2h,c
  5106  0014FC  90D8               	bcf	status,0,c
  5107  0014FE  36D9               	rlcf	fsr2l,f,c
  5108  001500  36DA               	rlcf	fsr2h,f,c
  5109  001502  5013               	movf	??_gamepadPressed^0,w,c
  5110  001504  26D9               	addwf	fsr2l,f,c
  5111  001506  5014               	movf	(??_gamepadPressed+1)^0,w,c
  5112  001508  22DA               	addwfc	fsr2h,f,c
  5113  00150A  04DE               	decf	postinc2,w,c
  5114  00150C  10DE               	iorwf	postinc2,w,c
  5115  00150E  A4D8               	btfss	status,2,c
  5116  001510  EF8C  F00A         	goto	i2u166_41
  5117  001514  EF8E  F00A         	goto	i2u166_40
  5118  001518                     i2u166_41:
  5119  001518  EF90  F00A         	goto	i2l2441
  5120  00151C                     i2u166_40:
  5121  00151C  EF2B  F00C         	goto	i2l244
  5122  001520                     i2l2441:
  5123                           
  5124                           ;newmain.c: 208:         if (isThereOtherPlayer(oldX,oldY-1)){
  5125  001520  C017  F001         	movff	gamepadPressed@oldX,isThereOtherPlayer@oldX
  5126  001524  C018  F002         	movff	gamepadPressed@oldX+1,isThereOtherPlayer@oldX+1
  5127  001528  0EFF               	movlw	255
  5128  00152A  2419               	addwf	gamepadPressed@oldY^0,w,c
  5129  00152C  6E03               	movwf	isThereOtherPlayer@oldY^0,c
  5130  00152E  0EFF               	movlw	255
  5131  001530  201A               	addwfc	(gamepadPressed@oldY+1)^0,w,c
  5132  001532  6E04               	movwf	(isThereOtherPlayer@oldY+1)^0,c
  5133  001534  ECAF  F012         	call	_isThereOtherPlayer	;wreg free
  5134  001538  5001               	movf	?_isThereOtherPlayer^0,w,c
  5135  00153A  1002               	iorwf	(?_isThereOtherPlayer+1)^0,w,c
  5136  00153C  B4D8               	btfsc	status,2,c
  5137  00153E  EFA3  F00A         	goto	i2u167_41
  5138  001542  EFA5  F00A         	goto	i2u167_40
  5139  001546                     i2u167_41:
  5140  001546  EFA7  F00A         	goto	i2l2445
  5141  00154A                     i2u167_40:
  5142  00154A  EF2B  F00C         	goto	i2l244
  5143  00154E                     i2l2445:
  5144                           
  5145                           ;newmain.c: 212:         gameState.player_positions[gameState.selected_player].y--;
  5146  00154E  0E40               	movlw	low _gameState
  5147  001550  6E13               	movwf	??_gamepadPressed^0,c
  5148  001552  0E00               	movlw	high _gameState
  5149  001554  6E14               	movwf	(??_gamepadPressed+1)^0,c
  5150  001556  0E02               	movlw	2
  5151  001558  2613               	addwf	??_gamepadPressed^0,f,c
  5152  00155A  0E00               	movlw	0
  5153  00155C  2214               	addwfc	(??_gamepadPressed+1)^0,f,c
  5154  00155E  90D8               	bcf	status,0,c
  5155  001560  3454               	rlcf	(_gameState+20)^0,w,c
  5156  001562  6ED9               	movwf	fsr2l,c
  5157  001564  3455               	rlcf	(_gameState+21)^0,w,c
  5158  001566  6EDA               	movwf	fsr2h,c
  5159  001568  90D8               	bcf	status,0,c
  5160  00156A  36D9               	rlcf	fsr2l,f,c
  5161  00156C  36DA               	rlcf	fsr2h,f,c
  5162  00156E  5013               	movf	??_gamepadPressed^0,w,c
  5163  001570  26D9               	addwf	fsr2l,f,c
  5164  001572  5014               	movf	(??_gamepadPressed+1)^0,w,c
  5165  001574  22DA               	addwfc	fsr2h,f,c
  5166  001576  06DE               	decf	postinc2,f,c
  5167  001578  0E00               	movlw	0
  5168  00157A  5ADD               	subwfb	postdec2,f,c
  5169                           
  5170                           ;newmain.c: 213:     } else if (bitChangedToZero(previous_portb,current_portb,6))
  5171  00157C  EFD5  F00B         	goto	i2l246
  5172  001580                     i2l2447:
  5173  001580  C01B  F001         	movff	gamepadPressed@current_portb,bitChangedToZero@curr
  5174  001584  0E00               	movlw	0
  5175  001586  6E03               	movwf	(bitChangedToZero@bit+1)^0,c
  5176  001588  0E06               	movlw	6
  5177  00158A  6E02               	movwf	bitChangedToZero@bit^0,c
  5178  00158C  5079               	movf	_previous_portb^0,w,c
  5179  00158E  ECF4  F015         	call	_bitChangedToZero
  5180  001592  5001               	movf	?_bitChangedToZero^0,w,c
  5181  001594  1002               	iorwf	(?_bitChangedToZero+1)^0,w,c
  5182  001596  B4D8               	btfsc	status,2,c
  5183  001598  EFD0  F00A         	goto	i2u168_41
  5184  00159C  EFD2  F00A         	goto	i2u168_40
  5185  0015A0                     i2u168_41:
  5186  0015A0  EF22  F00B         	goto	i2l2459
  5187  0015A4                     i2u168_40:
  5188  0015A4                     
  5189                           ;newmain.c: 214:     {;newmain.c: 215:         if (gameState.player_positions[gameState.
      +                          selected_player].y == 4){
  5190  0015A4  0E40               	movlw	low _gameState
  5191  0015A6  6E13               	movwf	??_gamepadPressed^0,c
  5192  0015A8  0E00               	movlw	high _gameState
  5193  0015AA  6E14               	movwf	(??_gamepadPressed+1)^0,c
  5194  0015AC  0E02               	movlw	2
  5195  0015AE  2613               	addwf	??_gamepadPressed^0,f,c
  5196  0015B0  0E00               	movlw	0
  5197  0015B2  2214               	addwfc	(??_gamepadPressed+1)^0,f,c
  5198  0015B4  90D8               	bcf	status,0,c
  5199  0015B6  3454               	rlcf	(_gameState+20)^0,w,c
  5200  0015B8  6ED9               	movwf	fsr2l,c
  5201  0015BA  3455               	rlcf	(_gameState+21)^0,w,c
  5202  0015BC  6EDA               	movwf	fsr2h,c
  5203  0015BE  90D8               	bcf	status,0,c
  5204  0015C0  36D9               	rlcf	fsr2l,f,c
  5205  0015C2  36DA               	rlcf	fsr2h,f,c
  5206  0015C4  5013               	movf	??_gamepadPressed^0,w,c
  5207  0015C6  26D9               	addwf	fsr2l,f,c
  5208  0015C8  5014               	movf	(??_gamepadPressed+1)^0,w,c
  5209  0015CA  22DA               	addwfc	fsr2h,f,c
  5210  0015CC  0E04               	movlw	4
  5211  0015CE  18DE               	xorwf	postinc2,w,c
  5212  0015D0  10DE               	iorwf	postinc2,w,c
  5213  0015D2  A4D8               	btfss	status,2,c
  5214  0015D4  EFEE  F00A         	goto	i2u169_41
  5215  0015D8  EFF0  F00A         	goto	i2u169_40
  5216  0015DC                     i2u169_41:
  5217  0015DC  EFF2  F00A         	goto	i2l2453
  5218  0015E0                     i2u169_40:
  5219  0015E0  EF2B  F00C         	goto	i2l244
  5220  0015E4                     i2l2453:
  5221                           
  5222                           ;newmain.c: 218:         if (isThereOtherPlayer(oldX,oldY+1)){
  5223  0015E4  C017  F001         	movff	gamepadPressed@oldX,isThereOtherPlayer@oldX
  5224  0015E8  C018  F002         	movff	gamepadPressed@oldX+1,isThereOtherPlayer@oldX+1
  5225  0015EC  0E01               	movlw	1
  5226  0015EE  2419               	addwf	gamepadPressed@oldY^0,w,c
  5227  0015F0  6E03               	movwf	isThereOtherPlayer@oldY^0,c
  5228  0015F2  0E00               	movlw	0
  5229  0015F4  201A               	addwfc	(gamepadPressed@oldY+1)^0,w,c
  5230  0015F6  6E04               	movwf	(isThereOtherPlayer@oldY+1)^0,c
  5231  0015F8  ECAF  F012         	call	_isThereOtherPlayer	;wreg free
  5232  0015FC  5001               	movf	?_isThereOtherPlayer^0,w,c
  5233  0015FE  1002               	iorwf	(?_isThereOtherPlayer+1)^0,w,c
  5234  001600  B4D8               	btfsc	status,2,c
  5235  001602  EF05  F00B         	goto	i2u170_41
  5236  001606  EF07  F00B         	goto	i2u170_40
  5237  00160A                     i2u170_41:
  5238  00160A  EF09  F00B         	goto	i2l2457
  5239  00160E                     i2u170_40:
  5240  00160E  EF2B  F00C         	goto	i2l244
  5241  001612                     i2l2457:
  5242                           
  5243                           ;newmain.c: 221:         gameState.player_positions[gameState.selected_player].y++;
  5244  001612  0E40               	movlw	low _gameState
  5245  001614  6E13               	movwf	??_gamepadPressed^0,c
  5246  001616  0E00               	movlw	high _gameState
  5247  001618  6E14               	movwf	(??_gamepadPressed+1)^0,c
  5248  00161A  0E02               	movlw	2
  5249  00161C  2613               	addwf	??_gamepadPressed^0,f,c
  5250  00161E  0E00               	movlw	0
  5251  001620  2214               	addwfc	(??_gamepadPressed+1)^0,f,c
  5252  001622  90D8               	bcf	status,0,c
  5253  001624  3454               	rlcf	(_gameState+20)^0,w,c
  5254  001626  6ED9               	movwf	fsr2l,c
  5255  001628  3455               	rlcf	(_gameState+21)^0,w,c
  5256  00162A  6EDA               	movwf	fsr2h,c
  5257  00162C  90D8               	bcf	status,0,c
  5258  00162E  36D9               	rlcf	fsr2l,f,c
  5259  001630  36DA               	rlcf	fsr2h,f,c
  5260  001632  5013               	movf	??_gamepadPressed^0,w,c
  5261  001634  26D9               	addwf	fsr2l,f,c
  5262  001636  5014               	movf	(??_gamepadPressed+1)^0,w,c
  5263  001638  22DA               	addwfc	fsr2h,f,c
  5264  00163A  2ADE               	incf	postinc2,f,c
  5265  00163C  0E00               	movlw	0
  5266  00163E  22DD               	addwfc	postdec2,f,c
  5267                           
  5268                           ;newmain.c: 222:     } else if (bitChangedToZero(previous_portb,current_portb,7))
  5269  001640  EFD5  F00B         	goto	i2l246
  5270  001644                     i2l2459:
  5271  001644  C01B  F001         	movff	gamepadPressed@current_portb,bitChangedToZero@curr
  5272  001648  0E00               	movlw	0
  5273  00164A  6E03               	movwf	(bitChangedToZero@bit+1)^0,c
  5274  00164C  0E07               	movlw	7
  5275  00164E  6E02               	movwf	bitChangedToZero@bit^0,c
  5276  001650  5079               	movf	_previous_portb^0,w,c
  5277  001652  ECF4  F015         	call	_bitChangedToZero
  5278  001656  5001               	movf	?_bitChangedToZero^0,w,c
  5279  001658  1002               	iorwf	(?_bitChangedToZero+1)^0,w,c
  5280  00165A  B4D8               	btfsc	status,2,c
  5281  00165C  EF32  F00B         	goto	i2u171_41
  5282  001660  EF34  F00B         	goto	i2u171_40
  5283  001664                     i2u171_41:
  5284  001664  EF7B  F00B         	goto	i2l2471
  5285  001668                     i2u171_40:
  5286  001668                     
  5287                           ;newmain.c: 223:     {;newmain.c: 224:         if (gameState.player_positions[gameState.
      +                          selected_player].x == 1) {
  5288  001668  0E40               	movlw	low _gameState
  5289  00166A  6E13               	movwf	??_gamepadPressed^0,c
  5290  00166C  0E00               	movlw	high _gameState
  5291  00166E  6E14               	movwf	(??_gamepadPressed+1)^0,c
  5292  001670  90D8               	bcf	status,0,c
  5293  001672  3454               	rlcf	(_gameState+20)^0,w,c
  5294  001674  6ED9               	movwf	fsr2l,c
  5295  001676  3455               	rlcf	(_gameState+21)^0,w,c
  5296  001678  6EDA               	movwf	fsr2h,c
  5297  00167A  90D8               	bcf	status,0,c
  5298  00167C  36D9               	rlcf	fsr2l,f,c
  5299  00167E  36DA               	rlcf	fsr2h,f,c
  5300  001680  5013               	movf	??_gamepadPressed^0,w,c
  5301  001682  26D9               	addwf	fsr2l,f,c
  5302  001684  5014               	movf	(??_gamepadPressed+1)^0,w,c
  5303  001686  22DA               	addwfc	fsr2h,f,c
  5304  001688  04DE               	decf	postinc2,w,c
  5305  00168A  10DE               	iorwf	postinc2,w,c
  5306  00168C  A4D8               	btfss	status,2,c
  5307  00168E  EF4B  F00B         	goto	i2u172_41
  5308  001692  EF4D  F00B         	goto	i2u172_40
  5309  001696                     i2u172_41:
  5310  001696  EF4F  F00B         	goto	i2l2465
  5311  00169A                     i2u172_40:
  5312  00169A  EF2B  F00C         	goto	i2l244
  5313  00169E                     i2l2465:
  5314                           
  5315                           ;newmain.c: 227:         if (isThereOtherPlayer(oldX-1,oldY)){
  5316  00169E  0EFF               	movlw	255
  5317  0016A0  2417               	addwf	gamepadPressed@oldX^0,w,c
  5318  0016A2  6E01               	movwf	isThereOtherPlayer@oldX^0,c
  5319  0016A4  0EFF               	movlw	255
  5320  0016A6  2018               	addwfc	(gamepadPressed@oldX+1)^0,w,c
  5321  0016A8  6E02               	movwf	(isThereOtherPlayer@oldX+1)^0,c
  5322  0016AA  C019  F003         	movff	gamepadPressed@oldY,isThereOtherPlayer@oldY
  5323  0016AE  C01A  F004         	movff	gamepadPressed@oldY+1,isThereOtherPlayer@oldY+1
  5324  0016B2  ECAF  F012         	call	_isThereOtherPlayer	;wreg free
  5325  0016B6  5001               	movf	?_isThereOtherPlayer^0,w,c
  5326  0016B8  1002               	iorwf	(?_isThereOtherPlayer+1)^0,w,c
  5327  0016BA  B4D8               	btfsc	status,2,c
  5328  0016BC  EF62  F00B         	goto	i2u173_41
  5329  0016C0  EF64  F00B         	goto	i2u173_40
  5330  0016C4                     i2u173_41:
  5331  0016C4  EF66  F00B         	goto	i2l2469
  5332  0016C8                     i2u173_40:
  5333  0016C8  EF2B  F00C         	goto	i2l244
  5334  0016CC                     i2l2469:
  5335                           
  5336                           ;newmain.c: 230:         gameState.player_positions[gameState.selected_player].x--;
  5337  0016CC  0E40               	movlw	low _gameState
  5338  0016CE  6E13               	movwf	??_gamepadPressed^0,c
  5339  0016D0  0E00               	movlw	high _gameState
  5340  0016D2  6E14               	movwf	(??_gamepadPressed+1)^0,c
  5341  0016D4  90D8               	bcf	status,0,c
  5342  0016D6  3454               	rlcf	(_gameState+20)^0,w,c
  5343  0016D8  6ED9               	movwf	fsr2l,c
  5344  0016DA  3455               	rlcf	(_gameState+21)^0,w,c
  5345  0016DC  6EDA               	movwf	fsr2h,c
  5346  0016DE  90D8               	bcf	status,0,c
  5347  0016E0  36D9               	rlcf	fsr2l,f,c
  5348  0016E2  36DA               	rlcf	fsr2h,f,c
  5349  0016E4  5013               	movf	??_gamepadPressed^0,w,c
  5350  0016E6  26D9               	addwf	fsr2l,f,c
  5351  0016E8  5014               	movf	(??_gamepadPressed+1)^0,w,c
  5352  0016EA  22DA               	addwfc	fsr2h,f,c
  5353  0016EC  06DE               	decf	postinc2,f,c
  5354  0016EE  0E00               	movlw	0
  5355  0016F0  5ADD               	subwfb	postdec2,f,c
  5356                           
  5357                           ;newmain.c: 231:     } else if (bitChangedToZero(previous_portb,current_portb,5))
  5358  0016F2  EFD5  F00B         	goto	i2l246
  5359  0016F6                     i2l2471:
  5360  0016F6  C01B  F001         	movff	gamepadPressed@current_portb,bitChangedToZero@curr
  5361  0016FA  0E00               	movlw	0
  5362  0016FC  6E03               	movwf	(bitChangedToZero@bit+1)^0,c
  5363  0016FE  0E05               	movlw	5
  5364  001700  6E02               	movwf	bitChangedToZero@bit^0,c
  5365  001702  5079               	movf	_previous_portb^0,w,c
  5366  001704  ECF4  F015         	call	_bitChangedToZero
  5367  001708  5001               	movf	?_bitChangedToZero^0,w,c
  5368  00170A  1002               	iorwf	(?_bitChangedToZero+1)^0,w,c
  5369  00170C  B4D8               	btfsc	status,2,c
  5370  00170E  EF8B  F00B         	goto	i2u174_41
  5371  001712  EF8D  F00B         	goto	i2u174_40
  5372  001716                     i2u174_41:
  5373  001716  EFD5  F00B         	goto	i2l254
  5374  00171A                     i2u174_40:
  5375  00171A                     
  5376                           ;newmain.c: 232:     {;newmain.c: 233:         if (gameState.player_positions[gameState.
      +                          selected_player].x == 16) {
  5377  00171A  0E40               	movlw	low _gameState
  5378  00171C  6E13               	movwf	??_gamepadPressed^0,c
  5379  00171E  0E00               	movlw	high _gameState
  5380  001720  6E14               	movwf	(??_gamepadPressed+1)^0,c
  5381  001722  90D8               	bcf	status,0,c
  5382  001724  3454               	rlcf	(_gameState+20)^0,w,c
  5383  001726  6ED9               	movwf	fsr2l,c
  5384  001728  3455               	rlcf	(_gameState+21)^0,w,c
  5385  00172A  6EDA               	movwf	fsr2h,c
  5386  00172C  90D8               	bcf	status,0,c
  5387  00172E  36D9               	rlcf	fsr2l,f,c
  5388  001730  36DA               	rlcf	fsr2h,f,c
  5389  001732  5013               	movf	??_gamepadPressed^0,w,c
  5390  001734  26D9               	addwf	fsr2l,f,c
  5391  001736  5014               	movf	(??_gamepadPressed+1)^0,w,c
  5392  001738  22DA               	addwfc	fsr2h,f,c
  5393  00173A  0E10               	movlw	16
  5394  00173C  18DE               	xorwf	postinc2,w,c
  5395  00173E  10DE               	iorwf	postinc2,w,c
  5396  001740  A4D8               	btfss	status,2,c
  5397  001742  EFA5  F00B         	goto	i2u175_41
  5398  001746  EFA7  F00B         	goto	i2u175_40
  5399  00174A                     i2u175_41:
  5400  00174A  EFA9  F00B         	goto	i2l2477
  5401  00174E                     i2u175_40:
  5402  00174E  EF2B  F00C         	goto	i2l244
  5403  001752                     i2l2477:
  5404                           
  5405                           ;newmain.c: 236:         if (isThereOtherPlayer(oldX+1,oldY)){
  5406  001752  0E01               	movlw	1
  5407  001754  2417               	addwf	gamepadPressed@oldX^0,w,c
  5408  001756  6E01               	movwf	isThereOtherPlayer@oldX^0,c
  5409  001758  0E00               	movlw	0
  5410  00175A  2018               	addwfc	(gamepadPressed@oldX+1)^0,w,c
  5411  00175C  6E02               	movwf	(isThereOtherPlayer@oldX+1)^0,c
  5412  00175E  C019  F003         	movff	gamepadPressed@oldY,isThereOtherPlayer@oldY
  5413  001762  C01A  F004         	movff	gamepadPressed@oldY+1,isThereOtherPlayer@oldY+1
  5414  001766  ECAF  F012         	call	_isThereOtherPlayer	;wreg free
  5415  00176A  5001               	movf	?_isThereOtherPlayer^0,w,c
  5416  00176C  1002               	iorwf	(?_isThereOtherPlayer+1)^0,w,c
  5417  00176E  B4D8               	btfsc	status,2,c
  5418  001770  EFBC  F00B         	goto	i2u176_41
  5419  001774  EFBE  F00B         	goto	i2u176_40
  5420  001778                     i2u176_41:
  5421  001778  EFC0  F00B         	goto	i2l2481
  5422  00177C                     i2u176_40:
  5423  00177C  EF2B  F00C         	goto	i2l244
  5424  001780                     i2l2481:
  5425                           
  5426                           ;newmain.c: 239:         gameState.player_positions[gameState.selected_player].x++;
  5427  001780  0E40               	movlw	low _gameState
  5428  001782  6E13               	movwf	??_gamepadPressed^0,c
  5429  001784  0E00               	movlw	high _gameState
  5430  001786  6E14               	movwf	(??_gamepadPressed+1)^0,c
  5431  001788  90D8               	bcf	status,0,c
  5432  00178A  3454               	rlcf	(_gameState+20)^0,w,c
  5433  00178C  6ED9               	movwf	fsr2l,c
  5434  00178E  3455               	rlcf	(_gameState+21)^0,w,c
  5435  001790  6EDA               	movwf	fsr2h,c
  5436  001792  90D8               	bcf	status,0,c
  5437  001794  36D9               	rlcf	fsr2l,f,c
  5438  001796  36DA               	rlcf	fsr2h,f,c
  5439  001798  5013               	movf	??_gamepadPressed^0,w,c
  5440  00179A  26D9               	addwf	fsr2l,f,c
  5441  00179C  5014               	movf	(??_gamepadPressed+1)^0,w,c
  5442  00179E  22DA               	addwfc	fsr2h,f,c
  5443  0017A0  2ADE               	incf	postinc2,f,c
  5444  0017A2  0E00               	movlw	0
  5445  0017A4  22DD               	addwfc	postdec2,f,c
  5446                           
  5447                           ;newmain.c: 240:     }
  5448  0017A6  EFD5  F00B         	goto	i2l246
  5449  0017AA                     i2l254:
  5450  0017AA                     i2l246:
  5451                           
  5452                           ;newmain.c: 244:     previous_portb = current_portb;
  5453  0017AA  C01B  F079         	movff	gamepadPressed@current_portb,_previous_portb
  5454  0017AE                     
  5455                           ;newmain.c: 247:     moveSelectedPlayerPositionOnLCD(oldX, oldY,
  5456  0017AE  C017  F007         	movff	gamepadPressed@oldX,moveSelectedPlayerPositionOnLCD@oldX
  5457  0017B2  C018  F008         	movff	gamepadPressed@oldX+1,moveSelectedPlayerPositionOnLCD@oldX+1
  5458  0017B6  C019  F009         	movff	gamepadPressed@oldY,moveSelectedPlayerPositionOnLCD@oldY
  5459  0017BA  C01A  F00A         	movff	gamepadPressed@oldY+1,moveSelectedPlayerPositionOnLCD@oldY+1
  5460  0017BE  0E40               	movlw	low _gameState
  5461  0017C0  6E13               	movwf	??_gamepadPressed^0,c
  5462  0017C2  0E00               	movlw	high _gameState
  5463  0017C4  6E14               	movwf	(??_gamepadPressed+1)^0,c
  5464  0017C6  90D8               	bcf	status,0,c
  5465  0017C8  3454               	rlcf	(_gameState+20)^0,w,c
  5466  0017CA  6ED9               	movwf	fsr2l,c
  5467  0017CC  3455               	rlcf	(_gameState+21)^0,w,c
  5468  0017CE  6EDA               	movwf	fsr2h,c
  5469  0017D0  90D8               	bcf	status,0,c
  5470  0017D2  36D9               	rlcf	fsr2l,f,c
  5471  0017D4  36DA               	rlcf	fsr2h,f,c
  5472  0017D6  5013               	movf	??_gamepadPressed^0,w,c
  5473  0017D8  26D9               	addwf	fsr2l,f,c
  5474  0017DA  5014               	movf	(??_gamepadPressed+1)^0,w,c
  5475  0017DC  22DA               	addwfc	fsr2h,f,c
  5476  0017DE  CFDE F00B          	movff	postinc2,moveSelectedPlayerPositionOnLCD@newX
  5477  0017E2  CFDD F00C          	movff	postdec2,moveSelectedPlayerPositionOnLCD@newX+1
  5478  0017E6  0E40               	movlw	low _gameState
  5479  0017E8  6E15               	movwf	(??_gamepadPressed+2)^0,c
  5480  0017EA  0E00               	movlw	high _gameState
  5481  0017EC  6E16               	movwf	(??_gamepadPressed+3)^0,c
  5482  0017EE  0E02               	movlw	2
  5483  0017F0  2615               	addwf	(??_gamepadPressed+2)^0,f,c
  5484  0017F2  0E00               	movlw	0
  5485  0017F4  2216               	addwfc	(??_gamepadPressed+3)^0,f,c
  5486  0017F6  90D8               	bcf	status,0,c
  5487  0017F8  3454               	rlcf	(_gameState+20)^0,w,c
  5488  0017FA  6ED9               	movwf	fsr2l,c
  5489  0017FC  3455               	rlcf	(_gameState+21)^0,w,c
  5490  0017FE  6EDA               	movwf	fsr2h,c
  5491  001800  90D8               	bcf	status,0,c
  5492  001802  36D9               	rlcf	fsr2l,f,c
  5493  001804  36DA               	rlcf	fsr2h,f,c
  5494  001806  5015               	movf	(??_gamepadPressed+2)^0,w,c
  5495  001808  26D9               	addwf	fsr2l,f,c
  5496  00180A  5016               	movf	(??_gamepadPressed+3)^0,w,c
  5497  00180C  22DA               	addwfc	fsr2h,f,c
  5498  00180E  CFDE F00D          	movff	postinc2,moveSelectedPlayerPositionOnLCD@newY
  5499  001812  CFDD F00E          	movff	postdec2,moveSelectedPlayerPositionOnLCD@newY+1
  5500  001816  C054  F00F         	movff	_gameState+20,moveSelectedPlayerPositionOnLCD@selectedPlayer
  5501  00181A  C055  F010         	movff	_gameState+21,moveSelectedPlayerPositionOnLCD@selectedPlayer+1
  5502  00181E  EC8E  F016         	call	_moveSelectedPlayerPositionOnLCD	;wreg free
  5503  001822                     
  5504                           ;newmain.c: 251:     if (frisbeeHeld()) {
  5505  001822  EC00  F014         	call	_frisbeeHeld	;wreg free
  5506  001826  5001               	movf	?_frisbeeHeld^0,w,c
  5507  001828  1002               	iorwf	(?_frisbeeHeld+1)^0,w,c
  5508  00182A  B4D8               	btfsc	status,2,c
  5509  00182C  EF1A  F00C         	goto	i2u177_41
  5510  001830  EF1C  F00C         	goto	i2u177_40
  5511  001834                     i2u177_41:
  5512  001834  EF1E  F00C         	goto	i2l2489
  5513  001838                     i2u177_40:
  5514  001838                     
  5515                           ;newmain.c: 252:         frisbeeHeldOnLCD();
  5516  001838  EC86  F015         	call	_frisbeeHeldOnLCD	;wreg free
  5517  00183C                     i2l2489:
  5518                           
  5519                           ;newmain.c: 254:     if (hasPlayerLeftFrisbeeLocation()) {
  5520  00183C  EC0A  F013         	call	_hasPlayerLeftFrisbeeLocation	;wreg free
  5521  001840  5001               	movf	?_hasPlayerLeftFrisbeeLocation^0,w,c
  5522  001842  1002               	iorwf	(?_hasPlayerLeftFrisbeeLocation+1)^0,w,c
  5523  001844  B4D8               	btfsc	status,2,c
  5524  001846  EF27  F00C         	goto	i2u178_41
  5525  00184A  EF29  F00C         	goto	i2u178_40
  5526  00184E                     i2u178_41:
  5527  00184E  EF2B  F00C         	goto	i2l244
  5528  001852                     i2u178_40:
  5529  001852                     
  5530                           ;newmain.c: 255:         frisbeeReleasedOnLCD();
  5531  001852  EC50  F017         	call	_frisbeeReleasedOnLCD	;wreg free
  5532  001856                     i2l244:
  5533  001856  0012               	return		;funcret
  5534  001858                     __end_of_gamepadPressed:
  5535                           	callstack 0
  5536                           
  5537 ;; *************** function _moveSelectedPlayerPositionOnLCD *****************
  5538 ;; Defined at:
  5539 ;;		line 74 in file "newmain.c"
  5540 ;; Parameters:    Size  Location     Type
  5541 ;;  oldX            2    6[COMRAM] int 
  5542 ;;  oldY            2    8[COMRAM] int 
  5543 ;;  newX            2   10[COMRAM] int 
  5544 ;;  newY            2   12[COMRAM] int 
  5545 ;;  selectedPlay    2   14[COMRAM] int 
  5546 ;; Auto vars:     Size  Location     Type
  5547 ;;		None
  5548 ;; Return value:  Size  Location     Type
  5549 ;;                  1    wreg      void 
  5550 ;; Registers used:
  5551 ;;		wreg, status,2, status,0, tblptrl, tblptrh, tblptru, cstack
  5552 ;; Tracked objects:
  5553 ;;		On entry : 0/0
  5554 ;;		On exit  : 0/0
  5555 ;;		Unchanged: 0/0
  5556 ;; Data sizes:     COMRAM   BANK0   BANK1   BANK2   BANK3   BANK4   BANK5   BANK6   BANK7   BANK8   BANK9  BANK10  BANK1
      +1  BANK12  BANK13  BANK14  BANK15
  5557 ;;      Params:        10       0       0       0       0       0       0       0       0       0       0       0       
      +0       0       0       0       0
  5558 ;;      Locals:         2       0       0       0       0       0       0       0       0       0       0       0       
      +0       0       0       0       0
  5559 ;;      Temps:          0       0       0       0       0       0       0       0       0       0       0       0       
      +0       0       0       0       0
  5560 ;;      Totals:        12       0       0       0       0       0       0       0       0       0       0       0       
      +0       0       0       0       0
  5561 ;;Total ram usage:       12 bytes
  5562 ;; Hardware stack levels used:    1
  5563 ;; Hardware stack levels required when called:    2
  5564 ;; This function calls:
  5565 ;;		_LCDStr
  5566 ;;		i2_LCDDat
  5567 ;;		i2_LCDGoto
  5568 ;; This function is called by:
  5569 ;;		_gamepadPressed
  5570 ;; This function uses a non-reentrant model
  5571 ;;
  5572                           
  5573                           	psect	text23
  5574  002D1C                     __ptext23:
  5575                           	callstack 0
  5576  002D1C                     _moveSelectedPlayerPositionOnLCD:
  5577                           	callstack 23
  5578  002D1C                     
  5579                           ;newmain.c: 74: void moveSelectedPlayerPositionOnLCD(int oldX, int oldY, int newX, int n
      +                          ewY, int selectedPlayer);newmain.c: 75: {;newmain.c: 76:     LATA = 0;
  5580  002D1C  0E00               	movlw	0
  5581  002D1E  6E89               	movwf	137,c	;volatile
  5582  002D20                     
  5583                           ;newmain.c: 78:     LCDGoto(oldX, oldY);
  5584  002D20  C009  F002         	movff	moveSelectedPlayerPositionOnLCD@oldY,i2LCDGoto@p_1
  5585  002D24  5007               	movf	moveSelectedPlayerPositionOnLCD@oldX^0,w,c
  5586  002D26  EC13  F015         	call	i2_LCDGoto
  5587  002D2A                     
  5588                           ;newmain.c: 79:     LCDStr(" ");
  5589  002D2A  0E01               	movlw	low STR_1
  5590  002D2C  6E02               	movwf	LCDStr@str^0,c
  5591  002D2E  0E10               	movlw	high STR_1
  5592  002D30  6E03               	movwf	(LCDStr@str+1)^0,c
  5593  002D32  EC97  F014         	call	_LCDStr	;wreg free
  5594  002D36                     
  5595                           ;newmain.c: 82:     LCDGoto(newX, newY);
  5596  002D36  C00D  F002         	movff	moveSelectedPlayerPositionOnLCD@newY,i2LCDGoto@p_1
  5597  002D3A  500B               	movf	moveSelectedPlayerPositionOnLCD@newX^0,w,c
  5598  002D3C  EC13  F015         	call	i2_LCDGoto
  5599  002D40                     
  5600                           ;newmain.c: 83:     LCDDat(selectedPlayer < 2 ? 0:2);
  5601  002D40  BE10               	btfsc	(moveSelectedPlayerPositionOnLCD@selectedPlayer+1)^0,7,c
  5602  002D42  EFAC  F016         	goto	i2u145_41
  5603  002D46  5010               	movf	(moveSelectedPlayerPositionOnLCD@selectedPlayer+1)^0,w,c
  5604  002D48  E109               	bnz	i2u145_40
  5605  002D4A  0E02               	movlw	2
  5606  002D4C  5C0F               	subwf	moveSelectedPlayerPositionOnLCD@selectedPlayer^0,w,c
  5607  002D4E  A0D8               	btfss	status,0,c
  5608  002D50  EFAC  F016         	goto	i2u145_41
  5609  002D54  EFAE  F016         	goto	i2u145_40
  5610  002D58                     i2u145_41:
  5611  002D58  EFB4  F016         	goto	i2l2213
  5612  002D5C                     i2u145_40:
  5613  002D5C  0E00               	movlw	0
  5614  002D5E  6E12               	movwf	(_moveSelectedPlayerPositionOnLCD$768+1)^0,c
  5615  002D60  0E02               	movlw	2
  5616  002D62  6E11               	movwf	_moveSelectedPlayerPositionOnLCD$768^0,c
  5617  002D64  EFB8  F016         	goto	i2l2215
  5618  002D68                     i2l2213:
  5619  002D68  0E00               	movlw	0
  5620  002D6A  6E12               	movwf	(_moveSelectedPlayerPositionOnLCD$768+1)^0,c
  5621  002D6C  0E00               	movlw	0
  5622  002D6E  6E11               	movwf	_moveSelectedPlayerPositionOnLCD$768^0,c
  5623  002D70                     i2l2215:
  5624  002D70  5011               	movf	_moveSelectedPlayerPositionOnLCD$768^0,w,c
  5625  002D72  ECC0  F017         	call	i2_LCDDat
  5626  002D76  0012               	return		;funcret
  5627  002D78                     __end_of_moveSelectedPlayerPositionOnLCD:
  5628                           	callstack 0
  5629                           
  5630 ;; *************** function _isThereOtherPlayer *****************
  5631 ;; Defined at:
  5632 ;;		line 130 in file "newmain.c"
  5633 ;; Parameters:    Size  Location     Type
  5634 ;;  oldX            2    0[COMRAM] int 
  5635 ;;  oldY            2    2[COMRAM] int 
  5636 ;; Auto vars:     Size  Location     Type
  5637 ;;  i               2    8[COMRAM] int 
  5638 ;; Return value:  Size  Location     Type
  5639 ;;                  2    0[COMRAM] int 
  5640 ;; Registers used:
  5641 ;;		wreg, fsr2l, fsr2h, status,2, status,0
  5642 ;; Tracked objects:
  5643 ;;		On entry : 0/0
  5644 ;;		On exit  : 0/0
  5645 ;;		Unchanged: 0/0
  5646 ;; Data sizes:     COMRAM   BANK0   BANK1   BANK2   BANK3   BANK4   BANK5   BANK6   BANK7   BANK8   BANK9  BANK10  BANK1
      +1  BANK12  BANK13  BANK14  BANK15
  5647 ;;      Params:         4       0       0       0       0       0       0       0       0       0       0       0       
      +0       0       0       0       0
  5648 ;;      Locals:         2       0       0       0       0       0       0       0       0       0       0       0       
      +0       0       0       0       0
  5649 ;;      Temps:          4       0       0       0       0       0       0       0       0       0       0       0       
      +0       0       0       0       0
  5650 ;;      Totals:        10       0       0       0       0       0       0       0       0       0       0       0       
      +0       0       0       0       0
  5651 ;;Total ram usage:       10 bytes
  5652 ;; Hardware stack levels used:    1
  5653 ;; This function calls:
  5654 ;;		Nothing
  5655 ;; This function is called by:
  5656 ;;		_gamepadPressed
  5657 ;; This function uses a non-reentrant model
  5658 ;;
  5659                           
  5660                           	psect	text24
  5661  00255E                     __ptext24:
  5662                           	callstack 0
  5663  00255E                     _isThereOtherPlayer:
  5664                           	callstack 25
  5665  00255E                     
  5666                           ;newmain.c: 131:     for (int i = 0; i < 4; i++) {
  5667  00255E  0E00               	movlw	0
  5668  002560  6E0A               	movwf	(isThereOtherPlayer@i+1)^0,c
  5669  002562  0E00               	movlw	0
  5670  002564  6E09               	movwf	isThereOtherPlayer@i^0,c
  5671  002566                     i2l2223:
  5672                           
  5673                           ;newmain.c: 132:         if (gameState.player_positions[i].x == oldX && gameState.player
      +                          _positions[i].y == oldY) {
  5674  002566  0E40               	movlw	low _gameState
  5675  002568  6E05               	movwf	??_isThereOtherPlayer^0,c
  5676  00256A  0E00               	movlw	high _gameState
  5677  00256C  6E06               	movwf	(??_isThereOtherPlayer+1)^0,c
  5678  00256E  90D8               	bcf	status,0,c
  5679  002570  3409               	rlcf	isThereOtherPlayer@i^0,w,c
  5680  002572  6ED9               	movwf	fsr2l,c
  5681  002574  340A               	rlcf	(isThereOtherPlayer@i+1)^0,w,c
  5682  002576  6EDA               	movwf	fsr2h,c
  5683  002578  90D8               	bcf	status,0,c
  5684  00257A  36D9               	rlcf	fsr2l,f,c
  5685  00257C  36DA               	rlcf	fsr2h,f,c
  5686  00257E  5005               	movf	??_isThereOtherPlayer^0,w,c
  5687  002580  26D9               	addwf	fsr2l,f,c
  5688  002582  5006               	movf	(??_isThereOtherPlayer+1)^0,w,c
  5689  002584  22DA               	addwfc	fsr2h,f,c
  5690  002586  5001               	movf	isThereOtherPlayer@oldX^0,w,c
  5691  002588  18DE               	xorwf	postinc2,w,c
  5692  00258A  E107               	bnz	i2u146_41
  5693  00258C  5002               	movf	(isThereOtherPlayer@oldX+1)^0,w,c
  5694  00258E  18DE               	xorwf	postinc2,w,c
  5695  002590  A4D8               	btfss	status,2,c
  5696  002592  EFCD  F012         	goto	i2u146_41
  5697  002596  EFCF  F012         	goto	i2u146_40
  5698  00259A                     i2u146_41:
  5699  00259A  EFF5  F012         	goto	i2l2231
  5700  00259E                     i2u146_40:
  5701  00259E  0E40               	movlw	low _gameState
  5702  0025A0  6E05               	movwf	??_isThereOtherPlayer^0,c
  5703  0025A2  0E00               	movlw	high _gameState
  5704  0025A4  6E06               	movwf	(??_isThereOtherPlayer+1)^0,c
  5705  0025A6  0E02               	movlw	2
  5706  0025A8  2605               	addwf	??_isThereOtherPlayer^0,f,c
  5707  0025AA  0E00               	movlw	0
  5708  0025AC  2206               	addwfc	(??_isThereOtherPlayer+1)^0,f,c
  5709  0025AE  90D8               	bcf	status,0,c
  5710  0025B0  3409               	rlcf	isThereOtherPlayer@i^0,w,c
  5711  0025B2  6ED9               	movwf	fsr2l,c
  5712  0025B4  340A               	rlcf	(isThereOtherPlayer@i+1)^0,w,c
  5713  0025B6  6EDA               	movwf	fsr2h,c
  5714  0025B8  90D8               	bcf	status,0,c
  5715  0025BA  36D9               	rlcf	fsr2l,f,c
  5716  0025BC  36DA               	rlcf	fsr2h,f,c
  5717  0025BE  5005               	movf	??_isThereOtherPlayer^0,w,c
  5718  0025C0  26D9               	addwf	fsr2l,f,c
  5719  0025C2  5006               	movf	(??_isThereOtherPlayer+1)^0,w,c
  5720  0025C4  22DA               	addwfc	fsr2h,f,c
  5721  0025C6  5003               	movf	isThereOtherPlayer@oldY^0,w,c
  5722  0025C8  18DE               	xorwf	postinc2,w,c
  5723  0025CA  E107               	bnz	i2u147_41
  5724  0025CC  5004               	movf	(isThereOtherPlayer@oldY+1)^0,w,c
  5725  0025CE  18DE               	xorwf	postinc2,w,c
  5726  0025D0  A4D8               	btfss	status,2,c
  5727  0025D2  EFED  F012         	goto	i2u147_41
  5728  0025D6  EFEF  F012         	goto	i2u147_40
  5729  0025DA                     i2u147_41:
  5730  0025DA  EFF5  F012         	goto	i2l2231
  5731  0025DE                     i2u147_40:
  5732  0025DE                     
  5733                           ;newmain.c: 133:             return 1;
  5734  0025DE  0E00               	movlw	0
  5735  0025E0  6E02               	movwf	(?_isThereOtherPlayer+1)^0,c
  5736  0025E2  0E01               	movlw	1
  5737  0025E4  6E01               	movwf	?_isThereOtherPlayer^0,c
  5738  0025E6  EF09  F013         	goto	i2l218
  5739  0025EA                     i2l2231:
  5740                           
  5741                           ;newmain.c: 135:     }
  5742  0025EA  4A09               	infsnz	isThereOtherPlayer@i^0,f,c
  5743  0025EC  2A0A               	incf	(isThereOtherPlayer@i+1)^0,f,c
  5744  0025EE  BE0A               	btfsc	(isThereOtherPlayer@i+1)^0,7,c
  5745  0025F0  EF03  F013         	goto	i2u148_41
  5746  0025F4  500A               	movf	(isThereOtherPlayer@i+1)^0,w,c
  5747  0025F6  E109               	bnz	i2u148_40
  5748  0025F8  0E04               	movlw	4
  5749  0025FA  5C09               	subwf	isThereOtherPlayer@i^0,w,c
  5750  0025FC  A0D8               	btfss	status,0,c
  5751  0025FE  EF03  F013         	goto	i2u148_41
  5752  002602  EF05  F013         	goto	i2u148_40
  5753  002606                     i2u148_41:
  5754  002606  EFB3  F012         	goto	i2l2223
  5755  00260A                     i2u148_40:
  5756  00260A                     
  5757                           ;newmain.c: 136:     return 0;
  5758  00260A  0E00               	movlw	0
  5759  00260C  6E02               	movwf	(?_isThereOtherPlayer+1)^0,c
  5760  00260E  0E00               	movlw	0
  5761  002610  6E01               	movwf	?_isThereOtherPlayer^0,c
  5762  002612                     i2l218:
  5763  002612  0012               	return		;funcret
  5764  002614                     __end_of_isThereOtherPlayer:
  5765                           	callstack 0
  5766                           
  5767 ;; *************** function _hasPlayerLeftFrisbeeLocation *****************
  5768 ;; Defined at:
  5769 ;;		line 152 in file "newmain.c"
  5770 ;; Parameters:    Size  Location     Type
  5771 ;;		None
  5772 ;; Auto vars:     Size  Location     Type
  5773 ;;  selected_pla    2    6[COMRAM] int 
  5774 ;; Return value:  Size  Location     Type
  5775 ;;                  2    0[COMRAM] int 
  5776 ;; Registers used:
  5777 ;;		wreg, fsr2l, fsr2h, status,2, status,0
  5778 ;; Tracked objects:
  5779 ;;		On entry : 0/0
  5780 ;;		On exit  : 0/0
  5781 ;;		Unchanged: 0/0
  5782 ;; Data sizes:     COMRAM   BANK0   BANK1   BANK2   BANK3   BANK4   BANK5   BANK6   BANK7   BANK8   BANK9  BANK10  BANK1
      +1  BANK12  BANK13  BANK14  BANK15
  5783 ;;      Params:         2       0       0       0       0       0       0       0       0       0       0       0       
      +0       0       0       0       0
  5784 ;;      Locals:         2       0       0       0       0       0       0       0       0       0       0       0       
      +0       0       0       0       0
  5785 ;;      Temps:          4       0       0       0       0       0       0       0       0       0       0       0       
      +0       0       0       0       0
  5786 ;;      Totals:         8       0       0       0       0       0       0       0       0       0       0       0       
      +0       0       0       0       0
  5787 ;;Total ram usage:        8 bytes
  5788 ;; Hardware stack levels used:    1
  5789 ;; This function calls:
  5790 ;;		Nothing
  5791 ;; This function is called by:
  5792 ;;		_gamepadPressed
  5793 ;; This function uses a non-reentrant model
  5794 ;;
  5795                           
  5796                           	psect	text25
  5797  002614                     __ptext25:
  5798                           	callstack 0
  5799  002614                     _hasPlayerLeftFrisbeeLocation:
  5800                           	callstack 25
  5801  002614                     
  5802                           ;newmain.c: 153:     if (!frisbee_held){
  5803  002614  5071               	movf	_frisbee_held^0,w,c
  5804  002616  1072               	iorwf	(_frisbee_held+1)^0,w,c
  5805  002618  A4D8               	btfss	status,2,c
  5806  00261A  EF11  F013         	goto	i2u151_41
  5807  00261E  EF13  F013         	goto	i2u151_40
  5808  002622                     i2u151_41:
  5809  002622  EF19  F013         	goto	i2l225
  5810  002626                     i2u151_40:
  5811  002626                     i2l2255:
  5812                           
  5813                           ;newmain.c: 154:         return 0;
  5814  002626  0E00               	movlw	0
  5815  002628  6E02               	movwf	(?_hasPlayerLeftFrisbeeLocation+1)^0,c
  5816  00262A  0E00               	movlw	0
  5817  00262C  6E01               	movwf	?_hasPlayerLeftFrisbeeLocation^0,c
  5818  00262E  EF61  F013         	goto	i2l226
  5819  002632                     i2l225:
  5820                           
  5821                           ;newmain.c: 157:     int selected_player = gameState.selected_player;
  5822  002632  C054  F007         	movff	_gameState+20,hasPlayerLeftFrisbeeLocation@selected_player
  5823  002636  C055  F008         	movff	_gameState+21,hasPlayerLeftFrisbeeLocation@selected_player+1
  5824  00263A                     
  5825                           ;newmain.c: 159:     if (gameState.player_positions[selected_player].x != gameState.fris
      +                          bee_position.x ||
  5826  00263A  0E40               	movlw	low _gameState
  5827  00263C  6E03               	movwf	??_hasPlayerLeftFrisbeeLocation^0,c
  5828  00263E  0E00               	movlw	high _gameState
  5829  002640  6E04               	movwf	(??_hasPlayerLeftFrisbeeLocation+1)^0,c
  5830  002642  90D8               	bcf	status,0,c
  5831  002644  3407               	rlcf	hasPlayerLeftFrisbeeLocation@selected_player^0,w,c
  5832  002646  6ED9               	movwf	fsr2l,c
  5833  002648  3408               	rlcf	(hasPlayerLeftFrisbeeLocation@selected_player+1)^0,w,c
  5834  00264A  6EDA               	movwf	fsr2h,c
  5835  00264C  90D8               	bcf	status,0,c
  5836  00264E  36D9               	rlcf	fsr2l,f,c
  5837  002650  36DA               	rlcf	fsr2h,f,c
  5838  002652  5003               	movf	??_hasPlayerLeftFrisbeeLocation^0,w,c
  5839  002654  26D9               	addwf	fsr2l,f,c
  5840  002656  5004               	movf	(??_hasPlayerLeftFrisbeeLocation+1)^0,w,c
  5841  002658  22DA               	addwfc	fsr2h,f,c
  5842  00265A  5050               	movf	(_gameState+16)^0,w,c
  5843  00265C  18DE               	xorwf	postinc2,w,c
  5844  00265E  E107               	bnz	i2u152_41
  5845  002660  5051               	movf	(_gameState+17)^0,w,c
  5846  002662  18DE               	xorwf	postinc2,w,c
  5847  002664  A4D8               	btfss	status,2,c
  5848  002666  EF37  F013         	goto	i2u152_41
  5849  00266A  EF39  F013         	goto	i2u152_40
  5850  00266E                     i2u152_41:
  5851  00266E  EF59  F013         	goto	i2l2263
  5852  002672                     i2u152_40:
  5853  002672  0E40               	movlw	low _gameState
  5854  002674  6E03               	movwf	??_hasPlayerLeftFrisbeeLocation^0,c
  5855  002676  0E00               	movlw	high _gameState
  5856  002678  6E04               	movwf	(??_hasPlayerLeftFrisbeeLocation+1)^0,c
  5857  00267A  0E02               	movlw	2
  5858  00267C  2603               	addwf	??_hasPlayerLeftFrisbeeLocation^0,f,c
  5859  00267E  0E00               	movlw	0
  5860  002680  2204               	addwfc	(??_hasPlayerLeftFrisbeeLocation+1)^0,f,c
  5861  002682  90D8               	bcf	status,0,c
  5862  002684  3407               	rlcf	hasPlayerLeftFrisbeeLocation@selected_player^0,w,c
  5863  002686  6ED9               	movwf	fsr2l,c
  5864  002688  3408               	rlcf	(hasPlayerLeftFrisbeeLocation@selected_player+1)^0,w,c
  5865  00268A  6EDA               	movwf	fsr2h,c
  5866  00268C  90D8               	bcf	status,0,c
  5867  00268E  36D9               	rlcf	fsr2l,f,c
  5868  002690  36DA               	rlcf	fsr2h,f,c
  5869  002692  5003               	movf	??_hasPlayerLeftFrisbeeLocation^0,w,c
  5870  002694  26D9               	addwf	fsr2l,f,c
  5871  002696  5004               	movf	(??_hasPlayerLeftFrisbeeLocation+1)^0,w,c
  5872  002698  22DA               	addwfc	fsr2h,f,c
  5873  00269A  5052               	movf	(_gameState+18)^0,w,c
  5874  00269C  18DE               	xorwf	postinc2,w,c
  5875  00269E  E109               	bnz	i2u153_40
  5876  0026A0  5053               	movf	(_gameState+19)^0,w,c
  5877  0026A2  18DE               	xorwf	postinc2,w,c
  5878  0026A4  B4D8               	btfsc	status,2,c
  5879  0026A6  EF57  F013         	goto	i2u153_41
  5880  0026AA  EF59  F013         	goto	i2u153_40
  5881  0026AE                     i2u153_41:
  5882  0026AE  EF13  F013         	goto	i2l2255
  5883  0026B2                     i2u153_40:
  5884  0026B2                     i2l2263:
  5885                           
  5886                           ;newmain.c: 160:         gameState.player_positions[selected_player].y != gameState.fris
      +                          bee_position.y){;newmain.c: 161:         frisbee_held = 0;
  5887  0026B2  0E00               	movlw	0
  5888  0026B4  6E72               	movwf	(_frisbee_held+1)^0,c
  5889  0026B6  0E00               	movlw	0
  5890  0026B8  6E71               	movwf	_frisbee_held^0,c
  5891                           
  5892                           ;newmain.c: 162:         return 1;
  5893  0026BA  0E00               	movlw	0
  5894  0026BC  6E02               	movwf	(?_hasPlayerLeftFrisbeeLocation+1)^0,c
  5895  0026BE  0E01               	movlw	1
  5896  0026C0  6E01               	movwf	?_hasPlayerLeftFrisbeeLocation^0,c
  5897  0026C2                     i2l226:
  5898  0026C2  0012               	return		;funcret
  5899  0026C4                     __end_of_hasPlayerLeftFrisbeeLocation:
  5900                           	callstack 0
  5901                           
  5902 ;; *************** function _frisbeeReleasedOnLCD *****************
  5903 ;; Defined at:
  5904 ;;		line 182 in file "newmain.c"
  5905 ;; Parameters:    Size  Location     Type
  5906 ;;		None
  5907 ;; Auto vars:     Size  Location     Type
  5908 ;;  frisbeeY        2   10[COMRAM] int 
  5909 ;;  frisbeeX        2    8[COMRAM] int 
  5910 ;;  selected_pla    2    0        int 
  5911 ;; Return value:  Size  Location     Type
  5912 ;;                  1    wreg      void 
  5913 ;; Registers used:
  5914 ;;		wreg, status,2, status,0, tblptrl, tblptrh, tblptru, cstack
  5915 ;; Tracked objects:
  5916 ;;		On entry : 0/0
  5917 ;;		On exit  : 0/0
  5918 ;;		Unchanged: 0/0
  5919 ;; Data sizes:     COMRAM   BANK0   BANK1   BANK2   BANK3   BANK4   BANK5   BANK6   BANK7   BANK8   BANK9  BANK10  BANK1
      +1  BANK12  BANK13  BANK14  BANK15
  5920 ;;      Params:         0       0       0       0       0       0       0       0       0       0       0       0       
      +0       0       0       0       0
  5921 ;;      Locals:         6       0       0       0       0       0       0       0       0       0       0       0       
      +0       0       0       0       0
  5922 ;;      Temps:          0       0       0       0       0       0       0       0       0       0       0       0       
      +0       0       0       0       0
  5923 ;;      Totals:         6       0       0       0       0       0       0       0       0       0       0       0       
      +0       0       0       0       0
  5924 ;;Total ram usage:        6 bytes
  5925 ;; Hardware stack levels used:    1
  5926 ;; Hardware stack levels required when called:    2
  5927 ;; This function calls:
  5928 ;;		_LCDStr
  5929 ;;		i2_LCDDat
  5930 ;;		i2_LCDGoto
  5931 ;; This function is called by:
  5932 ;;		_gamepadPressed
  5933 ;; This function uses a non-reentrant model
  5934 ;;
  5935                           
  5936                           	psect	text26
  5937  002EA0                     __ptext26:
  5938                           	callstack 0
  5939  002EA0                     _frisbeeReleasedOnLCD:
  5940                           	callstack 23
  5941  002EA0                     
  5942                           ;newmain.c: 183:     int frisbeeX, frisbeeY, selected_player;;newmain.c: 184:     frisbe
      +                          eX = gameState.frisbee_position.x;
  5943  002EA0  C050  F009         	movff	_gameState+16,frisbeeReleasedOnLCD@frisbeeX
  5944  002EA4  C051  F00A         	movff	_gameState+17,frisbeeReleasedOnLCD@frisbeeX+1
  5945                           
  5946                           ;newmain.c: 185:     frisbeeY = gameState.frisbee_position.y;
  5947  002EA8  C052  F00B         	movff	_gameState+18,frisbeeReleasedOnLCD@frisbeeY
  5948  002EAC  C053  F00C         	movff	_gameState+19,frisbeeReleasedOnLCD@frisbeeY+1
  5949  002EB0                     
  5950                           ;newmain.c: 187:     LCDGoto(frisbeeX,frisbeeY);
  5951  002EB0  C00B  F002         	movff	frisbeeReleasedOnLCD@frisbeeY,i2LCDGoto@p_1
  5952  002EB4  5009               	movf	frisbeeReleasedOnLCD@frisbeeX^0,w,c
  5953  002EB6  EC13  F015         	call	i2_LCDGoto
  5954  002EBA                     
  5955                           ;newmain.c: 188:     LCDStr(" ");
  5956  002EBA  0E01               	movlw	low STR_1
  5957  002EBC  6E02               	movwf	LCDStr@str^0,c
  5958  002EBE  0E10               	movlw	high STR_1
  5959  002EC0  6E03               	movwf	(LCDStr@str+1)^0,c
  5960  002EC2  EC97  F014         	call	_LCDStr	;wreg free
  5961  002EC6                     
  5962                           ;newmain.c: 190:     LCDGoto(frisbeeX,frisbeeY);
  5963  002EC6  C00B  F002         	movff	frisbeeReleasedOnLCD@frisbeeY,i2LCDGoto@p_1
  5964  002ECA  5009               	movf	frisbeeReleasedOnLCD@frisbeeX^0,w,c
  5965  002ECC  EC13  F015         	call	i2_LCDGoto
  5966  002ED0                     
  5967                           ;newmain.c: 191:     LCDDat(4);
  5968  002ED0  0E04               	movlw	4
  5969  002ED2  ECC0  F017         	call	i2_LCDDat
  5970  002ED6  0012               	return		;funcret
  5971  002ED8                     __end_of_frisbeeReleasedOnLCD:
  5972                           	callstack 0
  5973                           
  5974 ;; *************** function _frisbeeHeldOnLCD *****************
  5975 ;; Defined at:
  5976 ;;		line 168 in file "newmain.c"
  5977 ;; Parameters:    Size  Location     Type
  5978 ;;		None
  5979 ;; Auto vars:     Size  Location     Type
  5980 ;;  frisbeeY        2   12[COMRAM] int 
  5981 ;;  frisbeeX        2   10[COMRAM] int 
  5982 ;;  selected_pla    2    6[COMRAM] int 
  5983 ;; Return value:  Size  Location     Type
  5984 ;;                  1    wreg      void 
  5985 ;; Registers used:
  5986 ;;		wreg, status,2, status,0, tblptrl, tblptrh, tblptru, cstack
  5987 ;; Tracked objects:
  5988 ;;		On entry : 0/0
  5989 ;;		On exit  : 0/0
  5990 ;;		Unchanged: 0/0
  5991 ;; Data sizes:     COMRAM   BANK0   BANK1   BANK2   BANK3   BANK4   BANK5   BANK6   BANK7   BANK8   BANK9  BANK10  BANK1
      +1  BANK12  BANK13  BANK14  BANK15
  5992 ;;      Params:         0       0       0       0       0       0       0       0       0       0       0       0       
      +0       0       0       0       0
  5993 ;;      Locals:         8       0       0       0       0       0       0       0       0       0       0       0       
      +0       0       0       0       0
  5994 ;;      Temps:          0       0       0       0       0       0       0       0       0       0       0       0       
      +0       0       0       0       0
  5995 ;;      Totals:         8       0       0       0       0       0       0       0       0       0       0       0       
      +0       0       0       0       0
  5996 ;;Total ram usage:        8 bytes
  5997 ;; Hardware stack levels used:    1
  5998 ;; Hardware stack levels required when called:    2
  5999 ;; This function calls:
  6000 ;;		_LCDStr
  6001 ;;		i2_LCDDat
  6002 ;;		i2_LCDGoto
  6003 ;; This function is called by:
  6004 ;;		_gamepadPressed
  6005 ;; This function uses a non-reentrant model
  6006 ;;
  6007                           
  6008                           	psect	text27
  6009  002B0C                     __ptext27:
  6010                           	callstack 0
  6011  002B0C                     _frisbeeHeldOnLCD:
  6012                           	callstack 23
  6013  002B0C                     
  6014                           ;newmain.c: 169:     int frisbeeX, frisbeeY, selected_player;;newmain.c: 170:     frisbe
      +                          eX = gameState.frisbee_position.x;
  6015  002B0C  C050  F00B         	movff	_gameState+16,frisbeeHeldOnLCD@frisbeeX
  6016  002B10  C051  F00C         	movff	_gameState+17,frisbeeHeldOnLCD@frisbeeX+1
  6017                           
  6018                           ;newmain.c: 171:     frisbeeY = gameState.frisbee_position.y;
  6019  002B14  C052  F00D         	movff	_gameState+18,frisbeeHeldOnLCD@frisbeeY
  6020  002B18  C053  F00E         	movff	_gameState+19,frisbeeHeldOnLCD@frisbeeY+1
  6021                           
  6022                           ;newmain.c: 172:     selected_player = gameState.selected_player;
  6023  002B1C  C054  F007         	movff	_gameState+20,frisbeeHeldOnLCD@selected_player
  6024  002B20  C055  F008         	movff	_gameState+21,frisbeeHeldOnLCD@selected_player+1
  6025  002B24                     
  6026                           ;newmain.c: 173:     LCDGoto(frisbeeX,frisbeeY);
  6027  002B24  C00D  F002         	movff	frisbeeHeldOnLCD@frisbeeY,i2LCDGoto@p_1
  6028  002B28  500B               	movf	frisbeeHeldOnLCD@frisbeeX^0,w,c
  6029  002B2A  EC13  F015         	call	i2_LCDGoto
  6030  002B2E                     
  6031                           ;newmain.c: 174:     LCDStr(" ");
  6032  002B2E  0E01               	movlw	low STR_1
  6033  002B30  6E02               	movwf	LCDStr@str^0,c
  6034  002B32  0E10               	movlw	high STR_1
  6035  002B34  6E03               	movwf	(LCDStr@str+1)^0,c
  6036  002B36  EC97  F014         	call	_LCDStr	;wreg free
  6037  002B3A                     
  6038                           ;newmain.c: 176:     LCDGoto(frisbeeX,frisbeeY);
  6039  002B3A  C00D  F002         	movff	frisbeeHeldOnLCD@frisbeeY,i2LCDGoto@p_1
  6040  002B3E  500B               	movf	frisbeeHeldOnLCD@frisbeeX^0,w,c
  6041  002B40  EC13  F015         	call	i2_LCDGoto
  6042  002B44                     
  6043                           ;newmain.c: 177:     LCDDat(selected_player < 2 ? 5:6);
  6044  002B44  BE08               	btfsc	(frisbeeHeldOnLCD@selected_player+1)^0,7,c
  6045  002B46  EFAE  F015         	goto	i2u154_41
  6046  002B4A  5008               	movf	(frisbeeHeldOnLCD@selected_player+1)^0,w,c
  6047  002B4C  E109               	bnz	i2u154_40
  6048  002B4E  0E02               	movlw	2
  6049  002B50  5C07               	subwf	frisbeeHeldOnLCD@selected_player^0,w,c
  6050  002B52  A0D8               	btfss	status,0,c
  6051  002B54  EFAE  F015         	goto	i2u154_41
  6052  002B58  EFB0  F015         	goto	i2u154_40
  6053  002B5C                     i2u154_41:
  6054  002B5C  EFB6  F015         	goto	i2l2283
  6055  002B60                     i2u154_40:
  6056  002B60  0E00               	movlw	0
  6057  002B62  6E0A               	movwf	(_frisbeeHeldOnLCD$785+1)^0,c
  6058  002B64  0E06               	movlw	6
  6059  002B66  6E09               	movwf	_frisbeeHeldOnLCD$785^0,c
  6060  002B68  EFBA  F015         	goto	i2l2285
  6061  002B6C                     i2l2283:
  6062  002B6C  0E00               	movlw	0
  6063  002B6E  6E0A               	movwf	(_frisbeeHeldOnLCD$785+1)^0,c
  6064  002B70  0E05               	movlw	5
  6065  002B72  6E09               	movwf	_frisbeeHeldOnLCD$785^0,c
  6066  002B74                     i2l2285:
  6067  002B74  5009               	movf	_frisbeeHeldOnLCD$785^0,w,c
  6068  002B76  ECC0  F017         	call	i2_LCDDat
  6069  002B7A  0012               	return		;funcret
  6070  002B7C                     __end_of_frisbeeHeldOnLCD:
  6071                           	callstack 0
  6072                           
  6073 ;; *************** function _LCDStr *****************
  6074 ;; Defined at:
  6075 ;;		line 91 in file "./LCD.h"
  6076 ;; Parameters:    Size  Location     Type
  6077 ;;  str             2    1[COMRAM] PTR const unsigned char 
  6078 ;;		 -> STR_8(2), STR_7(2), STR_6(2), STR_5(2), 
  6079 ;;		 -> STR_4(2), STR_3(2), STR_2(2), STR_1(2), 
  6080 ;; Auto vars:     Size  Location     Type
  6081 ;;  i               1    5[COMRAM] unsigned char 
  6082 ;; Return value:  Size  Location     Type
  6083 ;;                  1    wreg      void 
  6084 ;; Registers used:
  6085 ;;		wreg, status,2, status,0, tblptrl, tblptrh, tblptru, cstack
  6086 ;; Tracked objects:
  6087 ;;		On entry : 0/0
  6088 ;;		On exit  : 0/0
  6089 ;;		Unchanged: 0/0
  6090 ;; Data sizes:     COMRAM   BANK0   BANK1   BANK2   BANK3   BANK4   BANK5   BANK6   BANK7   BANK8   BANK9  BANK10  BANK1
      +1  BANK12  BANK13  BANK14  BANK15
  6091 ;;      Params:         2       0       0       0       0       0       0       0       0       0       0       0       
      +0       0       0       0       0
  6092 ;;      Locals:         1       0       0       0       0       0       0       0       0       0       0       0       
      +0       0       0       0       0
  6093 ;;      Temps:          2       0       0       0       0       0       0       0       0       0       0       0       
      +0       0       0       0       0
  6094 ;;      Totals:         5       0       0       0       0       0       0       0       0       0       0       0       
      +0       0       0       0       0
  6095 ;;Total ram usage:        5 bytes
  6096 ;; Hardware stack levels used:    1
  6097 ;; Hardware stack levels required when called:    1
  6098 ;; This function calls:
  6099 ;;		i2_LCDDat
  6100 ;; This function is called by:
  6101 ;;		_moveSelectedPlayerPositionOnLCD
  6102 ;;		_frisbeeHeldOnLCD
  6103 ;;		_frisbeeReleasedOnLCD
  6104 ;;		_switchSelectedPlayer
  6105 ;;		_throwFrisbee
  6106 ;;		_moveFrisbee
  6107 ;; This function uses a non-reentrant model
  6108 ;;
  6109                           
  6110                           	psect	text28
  6111  00292E                     __ptext28:
  6112                           	callstack 0
  6113  00292E                     _LCDStr:
  6114                           	callstack 24
  6115  00292E                     
  6116                           ;./LCD.h: 92:   for (unsigned char i = 0; str[i] != 0; i++) {
  6117  00292E  0E00               	movlw	0
  6118  002930  6E06               	movwf	LCDStr@i^0,c
  6119  002932  EFC2  F014         	goto	i2l2025
  6120  002936                     i2l2009:
  6121                           
  6122                           ;./LCD.h: 93:     LCDDat(str[i]);
  6123  002936  5006               	movf	LCDStr@i^0,w,c
  6124  002938  2402               	addwf	LCDStr@str^0,w,c
  6125  00293A  6E04               	movwf	??_LCDStr^0,c
  6126  00293C  0E00               	movlw	0
  6127  00293E  2003               	addwfc	(LCDStr@str+1)^0,w,c
  6128  002940  6E05               	movwf	(??_LCDStr+1)^0,c
  6129  002942  C004  FFF6         	movff	??_LCDStr,tblptrl
  6130  002946  C005  FFF7         	movff	??_LCDStr+1,tblptrh
  6131  00294A                     	if	0	;tblptru may be non-zero
  6132  00294A                     	endif
  6133  00294A                     	if	0	;tblptru may be non-zero
  6134  00294A                     	endif
  6135  00294A  0008               	tblrd		*
  6136  00294C  50F5               	movf	tablat,w,c
  6137  00294E  ECC0  F017         	call	i2_LCDDat
  6138  002952                     
  6139                           ;./LCD.h: 94:     lcd_x ++;
  6140  002952  2A6A               	incf	_lcd_x^0,f,c
  6141  002954                     
  6142                           ;./LCD.h: 95:     if(lcd_x == 17) {
  6143  002954  0E11               	movlw	17
  6144  002956  186A               	xorwf	_lcd_x^0,w,c
  6145  002958  A4D8               	btfss	status,2,c
  6146  00295A  EFB1  F014         	goto	i2u115_41
  6147  00295E  EFB3  F014         	goto	i2u115_40
  6148  002962                     i2u115_41:
  6149  002962  EFC1  F014         	goto	i2l2023
  6150  002966                     i2u115_40:
  6151  002966                     
  6152                           ;./LCD.h: 96:       lcd_x = 1;
  6153  002966  0E01               	movlw	1
  6154  002968  6E6A               	movwf	_lcd_x^0,c
  6155  00296A                     
  6156                           ;./LCD.h: 97:       lcd_y++;
  6157  00296A  2A69               	incf	_lcd_y^0,f,c
  6158  00296C                     
  6159                           ;./LCD.h: 98:       if (lcd_y == 5) {
  6160  00296C  0E05               	movlw	5
  6161  00296E  1869               	xorwf	_lcd_y^0,w,c
  6162  002970  A4D8               	btfss	status,2,c
  6163  002972  EFBD  F014         	goto	i2u116_41
  6164  002976  EFBF  F014         	goto	i2u116_40
  6165  00297A                     i2u116_41:
  6166  00297A  EFC1  F014         	goto	i2l2023
  6167  00297E                     i2u116_40:
  6168  00297E                     
  6169                           ;./LCD.h: 99:          lcd_y = 1;
  6170  00297E  0E01               	movlw	1
  6171  002980  6E69               	movwf	_lcd_y^0,c
  6172  002982                     i2l2023:
  6173                           
  6174                           ;./LCD.h: 103:   }
  6175  002982  2A06               	incf	LCDStr@i^0,f,c
  6176  002984                     i2l2025:
  6177  002984  5006               	movf	LCDStr@i^0,w,c
  6178  002986  2402               	addwf	LCDStr@str^0,w,c
  6179  002988  6E04               	movwf	??_LCDStr^0,c
  6180  00298A  0E00               	movlw	0
  6181  00298C  2003               	addwfc	(LCDStr@str+1)^0,w,c
  6182  00298E  6E05               	movwf	(??_LCDStr+1)^0,c
  6183  002990  C004  FFF6         	movff	??_LCDStr,tblptrl
  6184  002994  C005  FFF7         	movff	??_LCDStr+1,tblptrh
  6185  002998                     	if	0	;tblptru may be non-zero
  6186  002998                     	endif
  6187  002998                     	if	0	;tblptru may be non-zero
  6188  002998                     	endif
  6189  002998  0008               	tblrd		*
  6190  00299A  50F5               	movf	tablat,w,c
  6191  00299C  0900               	iorlw	0
  6192  00299E  A4D8               	btfss	status,2,c
  6193  0029A0  EFD4  F014         	goto	i2u117_41
  6194  0029A4  EFD6  F014         	goto	i2u117_40
  6195  0029A8                     i2u117_41:
  6196  0029A8  EF9B  F014         	goto	i2l2009
  6197  0029AC                     i2u117_40:
  6198  0029AC  0012               	return		;funcret
  6199  0029AE                     __end_of_LCDStr:
  6200                           	callstack 0
  6201                           
  6202 ;; *************** function _frisbeeHeld *****************
  6203 ;; Defined at:
  6204 ;;		line 140 in file "newmain.c"
  6205 ;; Parameters:    Size  Location     Type
  6206 ;;		None
  6207 ;; Auto vars:     Size  Location     Type
  6208 ;;  selected_pla    2    6[COMRAM] int 
  6209 ;; Return value:  Size  Location     Type
  6210 ;;                  2    0[COMRAM] int 
  6211 ;; Registers used:
  6212 ;;		wreg, fsr2l, fsr2h, status,2, status,0
  6213 ;; Tracked objects:
  6214 ;;		On entry : 0/0
  6215 ;;		On exit  : 0/0
  6216 ;;		Unchanged: 0/0
  6217 ;; Data sizes:     COMRAM   BANK0   BANK1   BANK2   BANK3   BANK4   BANK5   BANK6   BANK7   BANK8   BANK9  BANK10  BANK1
      +1  BANK12  BANK13  BANK14  BANK15
  6218 ;;      Params:         2       0       0       0       0       0       0       0       0       0       0       0       
      +0       0       0       0       0
  6219 ;;      Locals:         2       0       0       0       0       0       0       0       0       0       0       0       
      +0       0       0       0       0
  6220 ;;      Temps:          4       0       0       0       0       0       0       0       0       0       0       0       
      +0       0       0       0       0
  6221 ;;      Totals:         8       0       0       0       0       0       0       0       0       0       0       0       
      +0       0       0       0       0
  6222 ;;Total ram usage:        8 bytes
  6223 ;; Hardware stack levels used:    1
  6224 ;; This function calls:
  6225 ;;		Nothing
  6226 ;; This function is called by:
  6227 ;;		_gamepadPressed
  6228 ;; This function uses a non-reentrant model
  6229 ;;
  6230                           
  6231                           	psect	text29
  6232  002800                     __ptext29:
  6233                           	callstack 0
  6234  002800                     _frisbeeHeld:
  6235                           	callstack 25
  6236  002800                     
  6237                           ;newmain.c: 141:     int selected_player = gameState.selected_player;
  6238  002800  C054  F007         	movff	_gameState+20,frisbeeHeld@selected_player
  6239  002804  C055  F008         	movff	_gameState+21,frisbeeHeld@selected_player+1
  6240  002808                     
  6241                           ;newmain.c: 142:     if (gameState.frisbee_position.x == gameState.player_positions[sele
      +                          cted_player].x
  6242  002808  0E40               	movlw	low _gameState
  6243  00280A  6E03               	movwf	??_frisbeeHeld^0,c
  6244  00280C  0E00               	movlw	high _gameState
  6245  00280E  6E04               	movwf	(??_frisbeeHeld+1)^0,c
  6246  002810  90D8               	bcf	status,0,c
  6247  002812  3407               	rlcf	frisbeeHeld@selected_player^0,w,c
  6248  002814  6ED9               	movwf	fsr2l,c
  6249  002816  3408               	rlcf	(frisbeeHeld@selected_player+1)^0,w,c
  6250  002818  6EDA               	movwf	fsr2h,c
  6251  00281A  90D8               	bcf	status,0,c
  6252  00281C  36D9               	rlcf	fsr2l,f,c
  6253  00281E  36DA               	rlcf	fsr2h,f,c
  6254  002820  5003               	movf	??_frisbeeHeld^0,w,c
  6255  002822  26D9               	addwf	fsr2l,f,c
  6256  002824  5004               	movf	(??_frisbeeHeld+1)^0,w,c
  6257  002826  22DA               	addwfc	fsr2h,f,c
  6258  002828  50DE               	movf	postinc2,w,c
  6259  00282A  1850               	xorwf	(_gameState+16)^0,w,c
  6260  00282C  E107               	bnz	i2u149_41
  6261  00282E  50DE               	movf	postinc2,w,c
  6262  002830  1851               	xorwf	(_gameState+17)^0,w,c
  6263  002832  A4D8               	btfss	status,2,c
  6264  002834  EF1E  F014         	goto	i2u149_41
  6265  002838  EF20  F014         	goto	i2u149_40
  6266  00283C                     i2u149_41:
  6267  00283C  EF4A  F014         	goto	i2l2249
  6268  002840                     i2u149_40:
  6269  002840  0E40               	movlw	low _gameState
  6270  002842  6E03               	movwf	??_frisbeeHeld^0,c
  6271  002844  0E00               	movlw	high _gameState
  6272  002846  6E04               	movwf	(??_frisbeeHeld+1)^0,c
  6273  002848  0E02               	movlw	2
  6274  00284A  2603               	addwf	??_frisbeeHeld^0,f,c
  6275  00284C  0E00               	movlw	0
  6276  00284E  2204               	addwfc	(??_frisbeeHeld+1)^0,f,c
  6277  002850  90D8               	bcf	status,0,c
  6278  002852  3407               	rlcf	frisbeeHeld@selected_player^0,w,c
  6279  002854  6ED9               	movwf	fsr2l,c
  6280  002856  3408               	rlcf	(frisbeeHeld@selected_player+1)^0,w,c
  6281  002858  6EDA               	movwf	fsr2h,c
  6282  00285A  90D8               	bcf	status,0,c
  6283  00285C  36D9               	rlcf	fsr2l,f,c
  6284  00285E  36DA               	rlcf	fsr2h,f,c
  6285  002860  5003               	movf	??_frisbeeHeld^0,w,c
  6286  002862  26D9               	addwf	fsr2l,f,c
  6287  002864  5004               	movf	(??_frisbeeHeld+1)^0,w,c
  6288  002866  22DA               	addwfc	fsr2h,f,c
  6289  002868  50DE               	movf	postinc2,w,c
  6290  00286A  1852               	xorwf	(_gameState+18)^0,w,c
  6291  00286C  E107               	bnz	i2u150_41
  6292  00286E  50DE               	movf	postinc2,w,c
  6293  002870  1853               	xorwf	(_gameState+19)^0,w,c
  6294  002872  A4D8               	btfss	status,2,c
  6295  002874  EF3E  F014         	goto	i2u150_41
  6296  002878  EF40  F014         	goto	i2u150_40
  6297  00287C                     i2u150_41:
  6298  00287C  EF4A  F014         	goto	i2l2249
  6299  002880                     i2u150_40:
  6300  002880                     
  6301                           ;newmain.c: 143:             && gameState.frisbee_position.y == gameState.player_positio
      +                          ns[selected_player].y) {;newmain.c: 144:         frisbee_held = 1;
  6302  002880  0E00               	movlw	0
  6303  002882  6E72               	movwf	(_frisbee_held+1)^0,c
  6304  002884  0E01               	movlw	1
  6305  002886  6E71               	movwf	_frisbee_held^0,c
  6306                           
  6307                           ;newmain.c: 145:         return 1;
  6308  002888  0E00               	movlw	0
  6309  00288A  6E02               	movwf	(?_frisbeeHeld+1)^0,c
  6310  00288C  0E01               	movlw	1
  6311  00288E  6E01               	movwf	?_frisbeeHeld^0,c
  6312  002890  EF4E  F014         	goto	i2l222
  6313  002894                     i2l2249:
  6314                           
  6315                           ;newmain.c: 148:     return 0;
  6316  002894  0E00               	movlw	0
  6317  002896  6E02               	movwf	(?_frisbeeHeld+1)^0,c
  6318  002898  0E00               	movlw	0
  6319  00289A  6E01               	movwf	?_frisbeeHeld^0,c
  6320  00289C                     i2l222:
  6321  00289C  0012               	return		;funcret
  6322  00289E                     __end_of_frisbeeHeld:
  6323                           	callstack 0
  6324                           
  6325 ;; *************** function _bitChangedToZero *****************
  6326 ;; Defined at:
  6327 ;;		line 71 in file "newmain.c"
  6328 ;; Parameters:    Size  Location     Type
  6329 ;;  prev            1    wreg     unsigned char 
  6330 ;;  curr            1    0[COMRAM] unsigned char 
  6331 ;;  bit             2    1[COMRAM] int 
  6332 ;; Auto vars:     Size  Location     Type
  6333 ;;  prev            1    5[COMRAM] unsigned char 
  6334 ;; Return value:  Size  Location     Type
  6335 ;;                  2    0[COMRAM] int 
  6336 ;; Registers used:
  6337 ;;		wreg, status,2, status,0
  6338 ;; Tracked objects:
  6339 ;;		On entry : 0/0
  6340 ;;		On exit  : 0/0
  6341 ;;		Unchanged: 0/0
  6342 ;; Data sizes:     COMRAM   BANK0   BANK1   BANK2   BANK3   BANK4   BANK5   BANK6   BANK7   BANK8   BANK9  BANK10  BANK1
      +1  BANK12  BANK13  BANK14  BANK15
  6343 ;;      Params:         3       0       0       0       0       0       0       0       0       0       0       0       
      +0       0       0       0       0
  6344 ;;      Locals:         2       0       0       0       0       0       0       0       0       0       0       0       
      +0       0       0       0       0
  6345 ;;      Temps:          2       0       0       0       0       0       0       0       0       0       0       0       
      +0       0       0       0       0
  6346 ;;      Totals:         7       0       0       0       0       0       0       0       0       0       0       0       
      +0       0       0       0       0
  6347 ;;Total ram usage:        7 bytes
  6348 ;; Hardware stack levels used:    1
  6349 ;; This function calls:
  6350 ;;		Nothing
  6351 ;; This function is called by:
  6352 ;;		_gamepadPressed
  6353 ;; This function uses a non-reentrant model
  6354 ;;
  6355                           
  6356                           	psect	text30
  6357  002BE8                     __ptext30:
  6358                           	callstack 0
  6359  002BE8                     _bitChangedToZero:
  6360                           	callstack 25
  6361                           
  6362                           ;incstack = 0
  6363                           ;bitChangedToZero@prev stored from wreg
  6364  002BE8  6E06               	movwf	bitChangedToZero@prev^0,c
  6365  002BEA                     
  6366                           ;newmain.c: 72:     return (prev & (1 << bit)) && !(curr & (1 << bit));
  6367  002BEA  0E00               	movlw	0
  6368  002BEC  6E07               	movwf	_bitChangedToZero$758^0,c
  6369  002BEE  C002  F004         	movff	bitChangedToZero@bit,??_bitChangedToZero
  6370  002BF2  0E01               	movlw	1
  6371  002BF4  6E05               	movwf	(??_bitChangedToZero+1)^0,c
  6372  002BF6  2A04               	incf	??_bitChangedToZero^0,f,c
  6373  002BF8  EF00  F016         	goto	i2u141_44
  6374  002BFC                     i2u141_45:
  6375  002BFC  90D8               	bcf	status,0,c
  6376  002BFE  3605               	rlcf	(??_bitChangedToZero+1)^0,f,c
  6377  002C00                     i2u141_44:
  6378  002C00  2E04               	decfsz	??_bitChangedToZero^0,f,c
  6379  002C02  EFFE  F015         	goto	i2u141_45
  6380  002C06  5005               	movf	(??_bitChangedToZero+1)^0,w,c
  6381  002C08  1406               	andwf	bitChangedToZero@prev^0,w,c
  6382  002C0A  0900               	iorlw	0
  6383  002C0C  B4D8               	btfsc	status,2,c
  6384  002C0E  EF0B  F016         	goto	i2u142_41
  6385  002C12  EF0D  F016         	goto	i2u142_40
  6386  002C16                     i2u142_41:
  6387  002C16  EF25  F016         	goto	i2l2197
  6388  002C1A                     i2u142_40:
  6389  002C1A  C002  F004         	movff	bitChangedToZero@bit,??_bitChangedToZero
  6390  002C1E  0E01               	movlw	1
  6391  002C20  6E05               	movwf	(??_bitChangedToZero+1)^0,c
  6392  002C22  2A04               	incf	??_bitChangedToZero^0,f,c
  6393  002C24  EF16  F016         	goto	i2u143_44
  6394  002C28                     i2u143_45:
  6395  002C28  90D8               	bcf	status,0,c
  6396  002C2A  3605               	rlcf	(??_bitChangedToZero+1)^0,f,c
  6397  002C2C                     i2u143_44:
  6398  002C2C  2E04               	decfsz	??_bitChangedToZero^0,f,c
  6399  002C2E  EF14  F016         	goto	i2u143_45
  6400  002C32  5005               	movf	(??_bitChangedToZero+1)^0,w,c
  6401  002C34  1401               	andwf	bitChangedToZero@curr^0,w,c
  6402  002C36  0900               	iorlw	0
  6403  002C38  A4D8               	btfss	status,2,c
  6404  002C3A  EF21  F016         	goto	i2u144_41
  6405  002C3E  EF23  F016         	goto	i2u144_40
  6406  002C42                     i2u144_41:
  6407  002C42  EF25  F016         	goto	i2l2197
  6408  002C46                     i2u144_40:
  6409  002C46  0E01               	movlw	1
  6410  002C48  6E07               	movwf	_bitChangedToZero$758^0,c
  6411  002C4A                     i2l2197:
  6412  002C4A  C007  F001         	movff	_bitChangedToZero$758,?_bitChangedToZero
  6413  002C4E  6A02               	clrf	(?_bitChangedToZero+1)^0,c
  6414  002C50  0012               	return		;funcret
  6415  002C52                     __end_of_bitChangedToZero:
  6416                           	callstack 0
  6417                           
  6418 ;; *************** function _blink *****************
  6419 ;; Defined at:
  6420 ;;		line 440 in file "newmain.c"
  6421 ;; Parameters:    Size  Location     Type
  6422 ;;		None
  6423 ;; Auto vars:     Size  Location     Type
  6424 ;;		None
  6425 ;; Return value:  Size  Location     Type
  6426 ;;                  1    wreg      void 
  6427 ;; Registers used:
  6428 ;;		wreg, status,2, status,0, cstack
  6429 ;; Tracked objects:
  6430 ;;		On entry : 0/0
  6431 ;;		On exit  : 0/0
  6432 ;;		Unchanged: 0/0
  6433 ;; Data sizes:     COMRAM   BANK0   BANK1   BANK2   BANK3   BANK4   BANK5   BANK6   BANK7   BANK8   BANK9  BANK10  BANK1
      +1  BANK12  BANK13  BANK14  BANK15
  6434 ;;      Params:         0       0       0       0       0       0       0       0       0       0       0       0       
      +0       0       0       0       0
  6435 ;;      Locals:         2       0       0       0       0       0       0       0       0       0       0       0       
      +0       0       0       0       0
  6436 ;;      Temps:          0       0       0       0       0       0       0       0       0       0       0       0       
      +0       0       0       0       0
  6437 ;;      Totals:         2       0       0       0       0       0       0       0       0       0       0       0       
      +0       0       0       0       0
  6438 ;;Total ram usage:        2 bytes
  6439 ;; Hardware stack levels used:    1
  6440 ;; Hardware stack levels required when called:    2
  6441 ;; This function calls:
  6442 ;;		i2_LCDDat
  6443 ;;		i2_LCDGoto
  6444 ;; This function is called by:
  6445 ;;		_FNC
  6446 ;; This function uses a non-reentrant model
  6447 ;;
  6448                           
  6449                           	psect	text31
  6450  002DCE                     __ptext31:
  6451                           	callstack 0
  6452  002DCE                     _blink:
  6453                           	callstack 24
  6454  002DCE                     
  6455                           ;newmain.c: 441:     LCDGoto(target_x,target_y);
  6456  002DCE  C075  F002         	movff	_target_y,i2LCDGoto@p_1
  6457  002DD2  5077               	movf	_target_x^0,w,c
  6458  002DD4  EC13  F015         	call	i2_LCDGoto
  6459  002DD8                     
  6460                           ;newmain.c: 442:     LCDDat(blink_flag ? 7 : ' ');
  6461  002DD8  506D               	movf	_blink_flag^0,w,c
  6462  002DDA  106E               	iorwf	(_blink_flag+1)^0,w,c
  6463  002DDC  A4D8               	btfss	status,2,c
  6464  002DDE  EFF3  F016         	goto	i2u195_41
  6465  002DE2  EFF5  F016         	goto	i2u195_40
  6466  002DE6                     i2u195_41:
  6467  002DE6  EFFB  F016         	goto	i2l2693
  6468  002DEA                     i2u195_40:
  6469  002DEA  0E00               	movlw	0
  6470  002DEC  6E05               	movwf	(_blink$889+1)^0,c
  6471  002DEE  0E20               	movlw	32
  6472  002DF0  6E04               	movwf	_blink$889^0,c
  6473  002DF2  EFFF  F016         	goto	i2l2695
  6474  002DF6                     i2l2693:
  6475  002DF6  0E00               	movlw	0
  6476  002DF8  6E05               	movwf	(_blink$889+1)^0,c
  6477  002DFA  0E07               	movlw	7
  6478  002DFC  6E04               	movwf	_blink$889^0,c
  6479  002DFE                     i2l2695:
  6480  002DFE  5004               	movf	_blink$889^0,w,c
  6481  002E00  ECC0  F017         	call	i2_LCDDat
  6482  002E04                     
  6483                           ;newmain.c: 443:     blink_flag = !blink_flag;
  6484  002E04  506D               	movf	_blink_flag^0,w,c
  6485  002E06  106E               	iorwf	(_blink_flag+1)^0,w,c
  6486  002E08  B4D8               	btfsc	status,2,c
  6487  002E0A  EF09  F017         	goto	i2u196_41
  6488  002E0E  EF0C  F017         	goto	i2u196_40
  6489  002E12                     i2u196_41:
  6490  002E12  0E01               	movlw	1
  6491  002E14  EF0D  F017         	goto	i2u197_40
  6492  002E18                     i2u196_40:
  6493  002E18  0E00               	movlw	0
  6494  002E1A                     i2u197_40:
  6495  002E1A  6E6D               	movwf	_blink_flag^0,c
  6496  002E1C  6A6E               	clrf	(_blink_flag+1)^0,c
  6497  002E1E  0012               	return		;funcret
  6498  002E20                     __end_of_blink:
  6499                           	callstack 0
  6500                           
  6501 ;; *************** function i2_LCDGoto *****************
  6502 ;; Defined at:
  6503 ;;		line 72 in file "./LCD.h"
  6504 ;; Parameters:    Size  Location     Type
  6505 ;;  p_2             1    wreg     unsigned char 
  6506 ;;  p_1             1    1[COMRAM] unsigned char 
  6507 ;; Auto vars:     Size  Location     Type
  6508 ;;  p_2             1    2[COMRAM] unsigned char 
  6509 ;; Return value:  Size  Location     Type
  6510 ;;                  1    wreg      void 
  6511 ;; Registers used:
  6512 ;;		wreg, status,2, status,0, cstack
  6513 ;; Tracked objects:
  6514 ;;		On entry : 0/0
  6515 ;;		On exit  : 0/0
  6516 ;;		Unchanged: 0/0
  6517 ;; Data sizes:     COMRAM   BANK0   BANK1   BANK2   BANK3   BANK4   BANK5   BANK6   BANK7   BANK8   BANK9  BANK10  BANK1
      +1  BANK12  BANK13  BANK14  BANK15
  6518 ;;      Params:         1       0       0       0       0       0       0       0       0       0       0       0       
      +0       0       0       0       0
  6519 ;;      Locals:         1       0       0       0       0       0       0       0       0       0       0       0       
      +0       0       0       0       0
  6520 ;;      Temps:          0       0       0       0       0       0       0       0       0       0       0       0       
      +0       0       0       0       0
  6521 ;;      Totals:         2       0       0       0       0       0       0       0       0       0       0       0       
      +0       0       0       0       0
  6522 ;;Total ram usage:        2 bytes
  6523 ;; Hardware stack levels used:    1
  6524 ;; Hardware stack levels required when called:    1
  6525 ;; This function calls:
  6526 ;;		i2_LCDCmd
  6527 ;; This function is called by:
  6528 ;;		_moveSelectedPlayerPositionOnLCD
  6529 ;;		_frisbeeHeldOnLCD
  6530 ;;		_frisbeeReleasedOnLCD
  6531 ;;		_switchSelectedPlayer
  6532 ;;		_throwFrisbee
  6533 ;;		_moveFrisbee
  6534 ;;		_blink
  6535 ;;		_npcMove
  6536 ;; This function uses a non-reentrant model
  6537 ;;
  6538                           
  6539                           	psect	text32
  6540  002A26                     __ptext32:
  6541                           	callstack 0
  6542  002A26                     i2_LCDGoto:
  6543                           	callstack 24
  6544                           
  6545                           ;incstack = 0
  6546                           ;i2LCDGoto@p_2 stored from wreg
  6547  002A26  6E03               	movwf	i2LCDGoto@p_2^0,c
  6548  002A28                     
  6549                           ;./LCD.h: 73:   if(p_1==1) {
  6550  002A28  0402               	decf	i2LCDGoto@p_1^0,w,c
  6551  002A2A  A4D8               	btfss	status,2,c
  6552  002A2C  EF1A  F015         	goto	i2u121_41
  6553  002A30  EF1C  F015         	goto	i2u121_40
  6554  002A34                     i2u121_41:
  6555  002A34  EF23  F015         	goto	i2l2067
  6556  002A38                     i2u121_40:
  6557  002A38                     
  6558                           ;./LCD.h: 74:     LCDCmd(0x80 +((p_2-1)%16));
  6559  002A38  0403               	decf	i2LCDGoto@p_2^0,w,c
  6560  002A3A  0B0F               	andlw	15
  6561  002A3C  0F80               	addlw	128
  6562  002A3E  ECC9  F017         	call	i2_LCDCmd
  6563                           
  6564                           ;./LCD.h: 75:   }
  6565  002A42  EF48  F015         	goto	i2l2077
  6566  002A46                     i2l2067:
  6567  002A46  0E02               	movlw	2
  6568  002A48  1802               	xorwf	i2LCDGoto@p_1^0,w,c
  6569  002A4A  A4D8               	btfss	status,2,c
  6570  002A4C  EF2A  F015         	goto	i2u122_41
  6571  002A50  EF2C  F015         	goto	i2u122_40
  6572  002A54                     i2u122_41:
  6573  002A54  EF33  F015         	goto	i2l2071
  6574  002A58                     i2u122_40:
  6575  002A58                     
  6576                           ;./LCD.h: 77:     LCDCmd(0xC0 +((p_2-1)%16));
  6577  002A58  0403               	decf	i2LCDGoto@p_2^0,w,c
  6578  002A5A  0B0F               	andlw	15
  6579  002A5C  0FC0               	addlw	192
  6580  002A5E  ECC9  F017         	call	i2_LCDCmd
  6581                           
  6582                           ;./LCD.h: 78:   }
  6583  002A62  EF48  F015         	goto	i2l2077
  6584  002A66                     i2l2071:
  6585  002A66  0E03               	movlw	3
  6586  002A68  1802               	xorwf	i2LCDGoto@p_1^0,w,c
  6587  002A6A  A4D8               	btfss	status,2,c
  6588  002A6C  EF3A  F015         	goto	i2u123_41
  6589  002A70  EF3C  F015         	goto	i2u123_40
  6590  002A74                     i2u123_41:
  6591  002A74  EF43  F015         	goto	i2l2075
  6592  002A78                     i2u123_40:
  6593  002A78                     
  6594                           ;./LCD.h: 80:     LCDCmd(0x90 +((p_2-1)%16));
  6595  002A78  0403               	decf	i2LCDGoto@p_2^0,w,c
  6596  002A7A  0B0F               	andlw	15
  6597  002A7C  0F90               	addlw	144
  6598  002A7E  ECC9  F017         	call	i2_LCDCmd
  6599                           
  6600                           ;./LCD.h: 81:   }
  6601  002A82  EF48  F015         	goto	i2l2077
  6602  002A86                     i2l2075:
  6603                           
  6604                           ;./LCD.h: 83:     LCDCmd(0xD0 +((p_2-1)%16));
  6605  002A86  0403               	decf	i2LCDGoto@p_2^0,w,c
  6606  002A88  0B0F               	andlw	15
  6607  002A8A  0FD0               	addlw	208
  6608  002A8C  ECC9  F017         	call	i2_LCDCmd
  6609  002A90                     i2l2077:
  6610                           
  6611                           ;./LCD.h: 85:   lcd_x = p_2;
  6612  002A90  C003  F06A         	movff	i2LCDGoto@p_2,_lcd_x
  6613  002A94                     
  6614                           ;./LCD.h: 86:   lcd_y = p_1;
  6615  002A94  C002  F069         	movff	i2LCDGoto@p_1,_lcd_y
  6616  002A98  0012               	return		;funcret
  6617  002A9A                     __end_ofi2_LCDGoto:
  6618                           	callstack 0
  6619                           
  6620 ;; *************** function i2_LCDCmd *****************
  6621 ;; Defined at:
  6622 ;;		line 48 in file "./LCD.h"
  6623 ;; Parameters:    Size  Location     Type
  6624 ;;  cmd             1    wreg     unsigned char 
  6625 ;; Auto vars:     Size  Location     Type
  6626 ;;  cmd             1    0[COMRAM] unsigned char 
  6627 ;; Return value:  Size  Location     Type
  6628 ;;                  1    wreg      void 
  6629 ;; Registers used:
  6630 ;;		wreg
  6631 ;; Tracked objects:
  6632 ;;		On entry : 0/0
  6633 ;;		On exit  : 0/0
  6634 ;;		Unchanged: 0/0
  6635 ;; Data sizes:     COMRAM   BANK0   BANK1   BANK2   BANK3   BANK4   BANK5   BANK6   BANK7   BANK8   BANK9  BANK10  BANK1
      +1  BANK12  BANK13  BANK14  BANK15
  6636 ;;      Params:         0       0       0       0       0       0       0       0       0       0       0       0       
      +0       0       0       0       0
  6637 ;;      Locals:         1       0       0       0       0       0       0       0       0       0       0       0       
      +0       0       0       0       0
  6638 ;;      Temps:          0       0       0       0       0       0       0       0       0       0       0       0       
      +0       0       0       0       0
  6639 ;;      Totals:         1       0       0       0       0       0       0       0       0       0       0       0       
      +0       0       0       0       0
  6640 ;;Total ram usage:        1 bytes
  6641 ;; Hardware stack levels used:    1
  6642 ;; This function calls:
  6643 ;;		Nothing
  6644 ;; This function is called by:
  6645 ;;		i2_LCDGoto
  6646 ;; This function uses a non-reentrant model
  6647 ;;
  6648                           
  6649                           	psect	text33
  6650  002F92                     __ptext33:
  6651                           	callstack 0
  6652  002F92                     i2_LCDCmd:
  6653                           	callstack 24
  6654                           
  6655                           ;incstack = 0
  6656                           ;i2LCDCmd@cmd stored from wreg
  6657  002F92  6E01               	movwf	i2LCDCmd@cmd^0,c
  6658  002F94                     
  6659                           ;./LCD.h: 49:   PORTEbits.RE1 = 0;
  6660  002F94  9284               	bcf	132,1,c	;volatile
  6661                           
  6662                           ;./LCD.h: 50:   PORTEbits.RE2 = 0;
  6663  002F96  9484               	bcf	132,2,c	;volatile
  6664  002F98                     
  6665                           ;./LCD.h: 51:   PORTD = cmd;
  6666  002F98  C001  FF83         	movff	i2LCDCmd@cmd,3971	;volatile
  6667  002F9C                     
  6668                           ;./LCD.h: 52:   PORTEbits.RE1 = 1;
  6669  002F9C  8284               	bsf	132,1,c	;volatile
  6670  002F9E                     
  6671                           ;./LCD.h: 54:   PORTEbits.RE1 = 0;
  6672  002F9E  9284               	bcf	132,1,c	;volatile
  6673  002FA0  0012               	return		;funcret
  6674  002FA2                     __end_ofi2_LCDCmd:
  6675                           	callstack 0
  6676                           
  6677 ;; *************** function i2_LCDDat *****************
  6678 ;; Defined at:
  6679 ;;		line 58 in file "./LCD.h"
  6680 ;; Parameters:    Size  Location     Type
  6681 ;;  dat             1    wreg     unsigned char 
  6682 ;; Auto vars:     Size  Location     Type
  6683 ;;  dat             1    0[COMRAM] unsigned char 
  6684 ;; Return value:  Size  Location     Type
  6685 ;;                  1    wreg      void 
  6686 ;; Registers used:
  6687 ;;		wreg
  6688 ;; Tracked objects:
  6689 ;;		On entry : 0/0
  6690 ;;		On exit  : 0/0
  6691 ;;		Unchanged: 0/0
  6692 ;; Data sizes:     COMRAM   BANK0   BANK1   BANK2   BANK3   BANK4   BANK5   BANK6   BANK7   BANK8   BANK9  BANK10  BANK1
      +1  BANK12  BANK13  BANK14  BANK15
  6693 ;;      Params:         0       0       0       0       0       0       0       0       0       0       0       0       
      +0       0       0       0       0
  6694 ;;      Locals:         1       0       0       0       0       0       0       0       0       0       0       0       
      +0       0       0       0       0
  6695 ;;      Temps:          0       0       0       0       0       0       0       0       0       0       0       0       
      +0       0       0       0       0
  6696 ;;      Totals:         1       0       0       0       0       0       0       0       0       0       0       0       
      +0       0       0       0       0
  6697 ;;Total ram usage:        1 bytes
  6698 ;; Hardware stack levels used:    1
  6699 ;; This function calls:
  6700 ;;		Nothing
  6701 ;; This function is called by:
  6702 ;;		_LCDStr
  6703 ;;		_moveSelectedPlayerPositionOnLCD
  6704 ;;		_frisbeeHeldOnLCD
  6705 ;;		_frisbeeReleasedOnLCD
  6706 ;;		_switchSelectedPlayer
  6707 ;;		_throwFrisbee
  6708 ;;		_moveFrisbee
  6709 ;;		_blink
  6710 ;;		_npcMove
  6711 ;; This function uses a non-reentrant model
  6712 ;;
  6713                           
  6714                           	psect	text34
  6715  002F80                     __ptext34:
  6716                           	callstack 0
  6717  002F80                     i2_LCDDat:
  6718                           	callstack 25
  6719                           
  6720                           ;incstack = 0
  6721                           ;i2LCDDat@dat stored from wreg
  6722  002F80  6E01               	movwf	i2LCDDat@dat^0,c
  6723  002F82                     
  6724                           ;./LCD.h: 59:   PORTEbits.RE1 = 0;
  6725  002F82  9284               	bcf	132,1,c	;volatile
  6726                           
  6727                           ;./LCD.h: 60:   PORTEbits.RE2 = 1;
  6728  002F84  8484               	bsf	132,2,c	;volatile
  6729  002F86                     
  6730                           ;./LCD.h: 61:   PORTD = dat;
  6731  002F86  C001  FF83         	movff	i2LCDDat@dat,3971	;volatile
  6732  002F8A                     
  6733                           ;./LCD.h: 62:   PORTEbits.RE1 = 1;
  6734  002F8A  8284               	bsf	132,1,c	;volatile
  6735  002F8C                     
  6736                           ;./LCD.h: 64:   PORTEbits.RE1 = 0;
  6737  002F8C  9284               	bcf	132,1,c	;volatile
  6738  002F8E                     
  6739                           ;./LCD.h: 66:   PORTEbits.RE2 = 0;
  6740  002F8E  9484               	bcf	132,2,c	;volatile
  6741  002F90  0012               	return		;funcret
  6742  002F92                     __end_ofi2_LCDDat:
  6743                           	callstack 0
  6744                           
  6745                           	psect	rparam
  6746  0000                     
  6747                           	psect	temp
  6748  00007C                     btemp:
  6749                           	callstack 0
  6750  00007C                     	ds	1
  6751  0000                     int$flags	set	btemp
  6752  0000                     wtemp8	set	btemp+1
  6753  0000                     ttemp5	set	btemp+1
  6754  0000                     ttemp6	set	btemp+4
  6755  0000                     ttemp7	set	btemp+8
  6756                           
  6757                           	psect	idloc
  6758                           
  6759                           ;Config register IDLOC0 @ 0x200000
  6760                           ;	unspecified, using default values
  6761  200000                     	org	2097152
  6762  200000  FF                 	db	255
  6763                           
  6764                           ;Config register IDLOC1 @ 0x200001
  6765                           ;	unspecified, using default values
  6766  200001                     	org	2097153
  6767  200001  FF                 	db	255
  6768                           
  6769                           ;Config register IDLOC2 @ 0x200002
  6770                           ;	unspecified, using default values
  6771  200002                     	org	2097154
  6772  200002  FF                 	db	255
  6773                           
  6774                           ;Config register IDLOC3 @ 0x200003
  6775                           ;	unspecified, using default values
  6776  200003                     	org	2097155
  6777  200003  FF                 	db	255
  6778                           
  6779                           ;Config register IDLOC4 @ 0x200004
  6780                           ;	unspecified, using default values
  6781  200004                     	org	2097156
  6782  200004  FF                 	db	255
  6783                           
  6784                           ;Config register IDLOC5 @ 0x200005
  6785                           ;	unspecified, using default values
  6786  200005                     	org	2097157
  6787  200005  FF                 	db	255
  6788                           
  6789                           ;Config register IDLOC6 @ 0x200006
  6790                           ;	unspecified, using default values
  6791  200006                     	org	2097158
  6792  200006  FF                 	db	255
  6793                           
  6794                           ;Config register IDLOC7 @ 0x200007
  6795                           ;	unspecified, using default values
  6796  200007                     	org	2097159
  6797  200007  FF                 	db	255
  6798                           
  6799                           	psect	config
  6800                           
  6801                           ; Padding undefined space
  6802  300000                     	org	3145728
  6803  300000  FF                 	db	255
  6804                           
  6805                           ;Config register CONFIG1H @ 0x300001
  6806                           ;	Oscillator Selection bits
  6807                           ;	OSC = INTIO67, Internal oscillator block, port function on RA6 and RA7
  6808                           ;	Fail-Safe Clock Monitor Enable bit
  6809                           ;	FCMEN = OFF, Fail-Safe Clock Monitor disabled
  6810                           ;	Internal/External Oscillator Switchover bit
  6811                           ;	IESO = OFF, Oscillator Switchover mode disabled
  6812  300001                     	org	3145729
  6813  300001  08                 	db	8
  6814                           
  6815                           ;Config register CONFIG2L @ 0x300002
  6816                           ;	Power-up Timer Enable bit
  6817                           ;	PWRT = OFF, PWRT disabled
  6818                           ;	Brown-out Reset Enable bits
  6819                           ;	BOREN = SBORDIS, Brown-out Reset enabled in hardware only (SBOREN is disabled)
  6820                           ;	Brown Out Reset Voltage bits
  6821                           ;	BORV = 3, Minimum setting
  6822  300002                     	org	3145730
  6823  300002  1F                 	db	31
  6824                           
  6825                           ;Config register CONFIG2H @ 0x300003
  6826                           ;	Watchdog Timer Enable bit
  6827                           ;	WDT = OFF, WDT disabled (control is placed on the SWDTEN bit)
  6828                           ;	Watchdog Timer Postscale Select bits
  6829                           ;	WDTPS = 32768, 1:32768
  6830  300003                     	org	3145731
  6831  300003  1E                 	db	30
  6832                           
  6833                           ; Padding undefined space
  6834  300004                     	org	3145732
  6835  300004  FF                 	db	255
  6836                           
  6837                           ;Config register CONFIG3H @ 0x300005
  6838                           ;	CCP2 MUX bit
  6839                           ;	CCP2MX = PORTC, CCP2 input/output is multiplexed with RC1
  6840                           ;	PORTB A/D Enable bit
  6841                           ;	PBADEN = OFF, PORTB<4:0> pins are configured as digital I/O on Reset
  6842                           ;	Low-Power Timer1 Oscillator Enable bit
  6843                           ;	LPT1OSC = OFF, Timer1 configured for higher power operation
  6844                           ;	MCLR Pin Enable bit
  6845                           ;	MCLRE = ON, MCLR pin enabled; RE3 input pin disabled
  6846  300005                     	org	3145733
  6847  300005  81                 	db	129
  6848                           
  6849                           ;Config register CONFIG4L @ 0x300006
  6850                           ;	Stack Full/Underflow Reset Enable bit
  6851                           ;	STVREN = ON, Stack full/underflow will cause Reset
  6852                           ;	Single-Supply ICSP Enable bit
  6853                           ;	LVP = OFF, Single-Supply ICSP disabled
  6854                           ;	Extended Instruction Set Enable bit
  6855                           ;	XINST = OFF, Instruction set extension and Indexed Addressing mode disabled (Legacy mo
      +                          de)
  6856                           ;	Background Debugger Enable bit
  6857                           ;	DEBUG = 0x1, unprogrammed default
  6858  300006                     	org	3145734
  6859  300006  81                 	db	129
  6860                           
  6861                           ; Padding undefined space
  6862  300007                     	org	3145735
  6863  300007  FF                 	db	255
  6864                           
  6865                           ;Config register CONFIG5L @ 0x300008
  6866                           ;	Code Protection bit
  6867                           ;	CP0 = OFF, Block 0 (000800-003FFFh) not code-protected
  6868                           ;	Code Protection bit
  6869                           ;	CP1 = OFF, Block 1 (004000-007FFFh) not code-protected
  6870                           ;	Code Protection bit
  6871                           ;	CP2 = OFF, Block 2 (008000-00BFFFh) not code-protected
  6872                           ;	Code Protection bit
  6873                           ;	CP3 = OFF, Block 3 (00C000-00FFFFh) not code-protected
  6874  300008                     	org	3145736
  6875  300008  0F                 	db	15
  6876                           
  6877                           ;Config register CONFIG5H @ 0x300009
  6878                           ;	Boot Block Code Protection bit
  6879                           ;	CPB = OFF, Boot block (000000-0007FFh) not code-protected
  6880                           ;	Data EEPROM Code Protection bit
  6881                           ;	CPD = OFF, Data EEPROM not code-protected
  6882  300009                     	org	3145737
  6883  300009  C0                 	db	192
  6884                           
  6885                           ;Config register CONFIG6L @ 0x30000A
  6886                           ;	Write Protection bit
  6887                           ;	WRT0 = OFF, Block 0 (000800-003FFFh) not write-protected
  6888                           ;	Write Protection bit
  6889                           ;	WRT1 = OFF, Block 1 (004000-007FFFh) not write-protected
  6890                           ;	Write Protection bit
  6891                           ;	WRT2 = OFF, Block 2 (008000-00BFFFh) not write-protected
  6892                           ;	Write Protection bit
  6893                           ;	WRT3 = OFF, Block 3 (00C000-00FFFFh) not write-protected
  6894  30000A                     	org	3145738
  6895  30000A  0F                 	db	15
  6896                           
  6897                           ;Config register CONFIG6H @ 0x30000B
  6898                           ;	Configuration Register Write Protection bit
  6899                           ;	WRTC = OFF, Configuration registers (300000-3000FFh) not write-protected
  6900                           ;	Boot Block Write Protection bit
  6901                           ;	WRTB = OFF, Boot Block (000000-0007FFh) not write-protected
  6902                           ;	Data EEPROM Write Protection bit
  6903                           ;	WRTD = OFF, Data EEPROM not write-protected
  6904  30000B                     	org	3145739
  6905  30000B  E0                 	db	224
  6906                           
  6907                           ;Config register CONFIG7L @ 0x30000C
  6908                           ;	Table Read Protection bit
  6909                           ;	EBTR0 = OFF, Block 0 (000800-003FFFh) not protected from table reads executed in other
      +                           blocks
  6910                           ;	Table Read Protection bit
  6911                           ;	EBTR1 = OFF, Block 1 (004000-007FFFh) not protected from table reads executed in other
      +                           blocks
  6912                           ;	Table Read Protection bit
  6913                           ;	EBTR2 = OFF, Block 2 (008000-00BFFFh) not protected from table reads executed in other
      +                           blocks
  6914                           ;	Table Read Protection bit
  6915                           ;	EBTR3 = OFF, Block 3 (00C000-00FFFFh) not protected from table reads executed in other
      +                           blocks
  6916  30000C                     	org	3145740
  6917  30000C  0F                 	db	15
  6918                           
  6919                           ;Config register CONFIG7H @ 0x30000D
  6920                           ;	Boot Block Table Read Protection bit
  6921                           ;	EBTRB = OFF, Boot Block (000000-0007FFh) not protected from table reads executed in ot
      +                          her blocks
  6922  30000D                     	org	3145741
  6923  30000D  40                 	db	64
  6924                           tosu	equ	0xFFF
  6925                           tosh	equ	0xFFE
  6926                           tosl	equ	0xFFD
  6927                           stkptr	equ	0xFFC
  6928                           pclatu	equ	0xFFB
  6929                           pclath	equ	0xFFA
  6930                           pcl	equ	0xFF9
  6931                           tblptru	equ	0xFF8
  6932                           tblptrh	equ	0xFF7
  6933                           tblptrl	equ	0xFF6
  6934                           tablat	equ	0xFF5
  6935                           prodh	equ	0xFF4
  6936                           prodl	equ	0xFF3
  6937                           indf0	equ	0xFEF
  6938                           postinc0	equ	0xFEE
  6939                           postdec0	equ	0xFED
  6940                           preinc0	equ	0xFEC
  6941                           plusw0	equ	0xFEB
  6942                           fsr0h	equ	0xFEA
  6943                           fsr0l	equ	0xFE9
  6944                           wreg	equ	0xFE8
  6945                           indf1	equ	0xFE7
  6946                           postinc1	equ	0xFE6
  6947                           postdec1	equ	0xFE5
  6948                           preinc1	equ	0xFE4
  6949                           plusw1	equ	0xFE3
  6950                           fsr1h	equ	0xFE2
  6951                           fsr1l	equ	0xFE1
  6952                           bsr	equ	0xFE0
  6953                           indf2	equ	0xFDF
  6954                           postinc2	equ	0xFDE
  6955                           postdec2	equ	0xFDD
  6956                           preinc2	equ	0xFDC
  6957                           plusw2	equ	0xFDB
  6958                           fsr2h	equ	0xFDA
  6959                           fsr2l	equ	0xFD9
  6960                           status	equ	0xFD8

Data Sizes:
    Strings     2
    Constant    0
    Data        107
    BSS         89
    Persistent  0
    Stack       0

Auto Spaces:
    Space          Size  Autos    Used
    COMRAM          126     63     123
    BANK0           128      5      81
    BANK1           256      0      60
    BANK2           256      0       0
    BANK3           256      0       0
    BANK4           256      0       0
    BANK5           256      0       0
    BANK6           256      0       0
    BANK7           256      0       0
    BANK8           256      0       0
    BANK9           256      0       0
    BANK10          256      0       0
    BANK11          256      0       0
    BANK12          256      0       0
    BANK13          256      0       0
    BANK14          256      0       0
    BANK15          128      0       0

Pointer List with Targets:

    LCDAddSpecialCharacter@data	PTR unsigned char  size(2) Largest target is 8
		 -> frisbee_target(BANK0[8]), selected_teamB_player_with_frisbee(BANK0[8]), selected_teamA_player_with_frisbee(BANK0[8]), frisbee(BANK0[8]), 
		 -> teamB_player(BANK0[8]), selected_teamB_player(BANK0[8]), teamA_player(BANK0[8]), selected_teamA_player(BANK0[8]), 

    LCDStr@str	PTR const unsigned char  size(2) Largest target is 2
		 -> STR_8(CODE[2]), STR_7(CODE[2]), STR_6(CODE[2]), STR_5(CODE[2]), 
		 -> STR_4(CODE[2]), STR_3(CODE[2]), STR_2(CODE[2]), STR_1(CODE[2]), 


Critical Paths under _main in COMRAM

    None.

Critical Paths under _FNC in COMRAM

    _FNC->_throwFrisbee
    _throwFrisbee->_compute_frisbee_target_and_route
    _compute_frisbee_target_and_route->_random_generator
    _switchSelectedPlayer->_LCDStr
    _npcMove->_isValidNPCMove
    _random_generator->___lwmod
    _isValidNPCMove->_isThereAnyPlayer
    _moveFrisbee->_isThereAnyPlayer
    _gamepadPressed->_moveSelectedPlayerPositionOnLCD
    _moveSelectedPlayerPositionOnLCD->_LCDStr
    _frisbeeReleasedOnLCD->_LCDStr
    _frisbeeHeldOnLCD->_LCDStr
    _LCDStr->i2_LCDDat
    _blink->i2_LCDGoto
    i2_LCDGoto->i2_LCDCmd

Critical Paths under _main in BANK0

    _main->_readADCChannel
    _setInitialState->_LCDAddSpecialCharacter
    _LCDGoto->_LCDCmd
    _LCDAddSpecialCharacter->_LCDCmd
    _LCDAddSpecialCharacter->_LCDDat
    _InitLCD->_LCDCmd

Critical Paths under _FNC in BANK0

    None.

Critical Paths under _main in BANK1

    None.

Critical Paths under _FNC in BANK1

    None.

Critical Paths under _main in BANK2

    None.

Critical Paths under _FNC in BANK2

    None.

Critical Paths under _main in BANK3

    None.

Critical Paths under _FNC in BANK3

    None.

Critical Paths under _main in BANK4

    None.

Critical Paths under _FNC in BANK4

    None.

Critical Paths under _main in BANK5

    None.

Critical Paths under _FNC in BANK5

    None.

Critical Paths under _main in BANK6

    None.

Critical Paths under _FNC in BANK6

    None.

Critical Paths under _main in BANK7

    None.

Critical Paths under _FNC in BANK7

    None.

Critical Paths under _main in BANK8

    None.

Critical Paths under _FNC in BANK8

    None.

Critical Paths under _main in BANK9

    None.

Critical Paths under _FNC in BANK9

    None.

Critical Paths under _main in BANK10

    None.

Critical Paths under _FNC in BANK10

    None.

Critical Paths under _main in BANK11

    None.

Critical Paths under _FNC in BANK11

    None.

Critical Paths under _main in BANK12

    None.

Critical Paths under _FNC in BANK12

    None.

Critical Paths under _main in BANK13

    None.

Critical Paths under _FNC in BANK13

    None.

Critical Paths under _main in BANK14

    None.

Critical Paths under _FNC in BANK14

    None.

Critical Paths under _main in BANK15

    None.

Critical Paths under _FNC in BANK15

    None.

Call Graph Tables:

 ---------------------------------------------------------------------------------
 (Depth) Function   	        Calls       Base Space   Used Autos Params    Refs
 ---------------------------------------------------------------------------------
 (0) _main                                                 0     0      0    3008
                            _InitLCD
                       _display_7seg
                            _initADC
                      _initRegisters
                     _readADCChannel
                    _setInitialState
 ---------------------------------------------------------------------------------
 (1) _setInitialState                                      0     0      0    2889
             _LCDAddSpecialCharacter
                             _LCDDat
                            _LCDGoto
 ---------------------------------------------------------------------------------
 (2) _LCDGoto                                              2     1      1    1915
                                              1 BANK0      2     1      1
                             _LCDCmd
 ---------------------------------------------------------------------------------
 (2) _LCDAddSpecialCharacter                               4     2      2     943
                                              1 BANK0      4     2      2
                             _LCDCmd
                             _LCDDat
 ---------------------------------------------------------------------------------
 (2) _LCDDat                                               1     1      0      31
                                              0 BANK0      1     1      0
 ---------------------------------------------------------------------------------
 (1) _readADCChannel                                       5     3      2      88
                                              0 BANK0      5     3      2
 ---------------------------------------------------------------------------------
 (1) _initRegisters                                        0     0      0       0
 ---------------------------------------------------------------------------------
 (1) _initADC                                              0     0      0       0
 ---------------------------------------------------------------------------------
 (1) _display_7seg                                         1     1      0       0
                                              0 BANK0      1     1      0
 ---------------------------------------------------------------------------------
 (1) _InitLCD                                              0     0      0      31
                             _LCDCmd
 ---------------------------------------------------------------------------------
 (3) _LCDCmd                                               1     1      0      31
                                              0 BANK0      1     1      0
 ---------------------------------------------------------------------------------
 Estimated maximum stack depth 3
 ---------------------------------------------------------------------------------
 (Depth) Function   	        Calls       Base Space   Used Autos Params    Refs
 ---------------------------------------------------------------------------------
 (4) _FNC                                                  8     8      0   19104
                                             55 COMRAM     8     8      0
                              _blink
                     _gamepadPressed
                        _moveFrisbee
                            _npcMove
               _switchSelectedPlayer
                       _throwFrisbee
 ---------------------------------------------------------------------------------
 (5) _throwFrisbee                                        10    10      0    3558
                                             45 COMRAM    10    10      0
                             _LCDStr
   _compute_frisbee_target_and_route
                           i2_LCDDat
                          i2_LCDGoto
 ---------------------------------------------------------------------------------
 (6) _compute_frisbee_target_and_route                    28    24      4    1869
                                             17 COMRAM    28    24      4
                   _random_generator
 ---------------------------------------------------------------------------------
 (5) _switchSelectedPlayer                                16    16      0    1914
                                              6 COMRAM    16    16      0
                             _LCDStr
                           i2_LCDDat
                          i2_LCDGoto
 ---------------------------------------------------------------------------------
 (5) _npcMove                                             18    18      0    3326
                                             20 COMRAM    18    18      0
                     _isValidNPCMove
                   _random_generator
                           i2_LCDDat
                          i2_LCDGoto
 ---------------------------------------------------------------------------------
 (7) _random_generator                                    12    10      2     675
                                              5 COMRAM    12    10      2
                            ___lwmod
 ---------------------------------------------------------------------------------
 (8) ___lwmod                                              5     1      4     311
                                              0 COMRAM     5     1      4
 ---------------------------------------------------------------------------------
 (6) _isValidNPCMove                                      10     6      4    1150
                                             10 COMRAM    10     6      4
                   _isThereAnyPlayer
 ---------------------------------------------------------------------------------
 (5) _moveFrisbee                                          6     6      0    2343
                                             10 COMRAM     6     6      0
                             _LCDStr
               _ifSelectedPlayerHold
                   _isThereAnyPlayer
                           i2_LCDDat
                          i2_LCDGoto
 ---------------------------------------------------------------------------------
 (7) _isThereAnyPlayer                                    10     6      4     742
                                              0 COMRAM    10     6      4
 ---------------------------------------------------------------------------------
 (6) _ifSelectedPlayerHold                                 9     7      2      69
                                              0 COMRAM     9     7      2
 ---------------------------------------------------------------------------------
 (5) _gamepadPressed                                       9     9      0    7151
                                             18 COMRAM     9     9      0
                   _bitChangedToZero
                        _frisbeeHeld
                   _frisbeeHeldOnLCD
               _frisbeeReleasedOnLCD
       _hasPlayerLeftFrisbeeLocation
                 _isThereOtherPlayer
    _moveSelectedPlayerPositionOnLCD
 ---------------------------------------------------------------------------------
 (6) _moveSelectedPlayerPositionOnLCD                     12     2     10    2022
                                              6 COMRAM    12     2     10
                             _LCDStr
                           i2_LCDDat
                          i2_LCDGoto
 ---------------------------------------------------------------------------------
 (6) _isThereOtherPlayer                                  10     6      4     742
                                              0 COMRAM    10     6      4
 ---------------------------------------------------------------------------------
 (6) _hasPlayerLeftFrisbeeLocation                         8     6      2      45
                                              0 COMRAM     8     6      2
 ---------------------------------------------------------------------------------
 (6) _frisbeeReleasedOnLCD                                 6     6      0    1599
                                              6 COMRAM     6     6      0
                             _LCDStr
                           i2_LCDDat
                          i2_LCDGoto
 ---------------------------------------------------------------------------------
 (6) _frisbeeHeldOnLCD                                     8     8      0    1645
                                              6 COMRAM     8     8      0
                             _LCDStr
                           i2_LCDDat
                          i2_LCDGoto
 ---------------------------------------------------------------------------------
 (6) _LCDStr                                               5     3      2     720
                                              1 COMRAM     5     3      2
                           i2_LCDDat
 ---------------------------------------------------------------------------------
 (6) _frisbeeHeld                                          8     6      2      45
                                              0 COMRAM     8     6      2
 ---------------------------------------------------------------------------------
 (6) _bitChangedToZero                                     7     4      3     720
                                              0 COMRAM     7     4      3
 ---------------------------------------------------------------------------------
 (5) _blink                                                2     2      0     812
                                              3 COMRAM     2     2      0
                           i2_LCDDat
                          i2_LCDGoto
 ---------------------------------------------------------------------------------
 (6) i2_LCDGoto                                            2     1      1     766
                                              1 COMRAM     2     1      1
                           i2_LCDCmd
 ---------------------------------------------------------------------------------
 (7) i2_LCDCmd                                             1     1      0      22
                                              0 COMRAM     1     1      0
 ---------------------------------------------------------------------------------
 (6) i2_LCDDat                                             1     1      0      22
                                              0 COMRAM     1     1      0
 ---------------------------------------------------------------------------------
 Estimated maximum stack depth 8
 ---------------------------------------------------------------------------------

 Call Graph Graphs:

 _main (ROOT)
   _InitLCD
     _LCDCmd
   _display_7seg
   _initADC
   _initRegisters
   _readADCChannel
   _setInitialState
     _LCDAddSpecialCharacter
       _LCDCmd
       _LCDDat
     _LCDDat
     _LCDGoto
       _LCDCmd

 _FNC (ROOT)
   _blink
     i2_LCDDat
     i2_LCDGoto
       i2_LCDCmd
   _gamepadPressed
     _bitChangedToZero
     _frisbeeHeld
     _frisbeeHeldOnLCD
       _LCDStr
         i2_LCDDat
       i2_LCDDat
       i2_LCDGoto
         i2_LCDCmd
     _frisbeeReleasedOnLCD
       _LCDStr
         i2_LCDDat
       i2_LCDDat
       i2_LCDGoto
         i2_LCDCmd
     _hasPlayerLeftFrisbeeLocation
     _isThereOtherPlayer
     _moveSelectedPlayerPositionOnLCD
       _LCDStr
         i2_LCDDat
       i2_LCDDat
       i2_LCDGoto
         i2_LCDCmd
   _moveFrisbee
     _LCDStr
       i2_LCDDat
     _ifSelectedPlayerHold
     _isThereAnyPlayer
     i2_LCDDat
     i2_LCDGoto
       i2_LCDCmd
   _npcMove
     _isValidNPCMove
       _isThereAnyPlayer
     _random_generator
       ___lwmod
     i2_LCDDat
     i2_LCDGoto
       i2_LCDCmd
   _switchSelectedPlayer
     _LCDStr
       i2_LCDDat
     i2_LCDDat
     i2_LCDGoto
       i2_LCDCmd
   _throwFrisbee
     _LCDStr
       i2_LCDDat
     _compute_frisbee_target_and_route
       _random_generator
         ___lwmod
     i2_LCDDat
     i2_LCDGoto
       i2_LCDCmd

 Address spaces:
Name               Size   Autos  Total    Cost      Usage
BIGRAM             F7F      0       0      37        0.0%
EEDATA             400      0       0       0        0.0%
BITBANK14          100      0       0      32        0.0%
BANK14             100      0       0      33        0.0%
BITBANK13          100      0       0      30        0.0%
BANK13             100      0       0      31        0.0%
BITBANK12          100      0       0      28        0.0%
BANK12             100      0       0      29        0.0%
BITBANK11          100      0       0      26        0.0%
BANK11             100      0       0      27        0.0%
BITBANK10          100      0       0      24        0.0%
BANK10             100      0       0      25        0.0%
BITBANK9           100      0       0      22        0.0%
BANK9              100      0       0      23        0.0%
BITBANK8           100      0       0      20        0.0%
BANK8              100      0       0      21        0.0%
BITBANK7           100      0       0      18        0.0%
BANK7              100      0       0      19        0.0%
BITBANK6           100      0       0      16        0.0%
BANK6              100      0       0      17        0.0%
BITBANK5           100      0       0      14        0.0%
BANK5              100      0       0      15        0.0%
BITBANK4           100      0       0      12        0.0%
BANK4              100      0       0      13        0.0%
BITBANK3           100      0       0      10        0.0%
BANK3              100      0       0      11        0.0%
BITBANK2           100      0       0       8        0.0%
BANK2              100      0       0       9        0.0%
BITBANK1           100      0       0       6        0.0%
BANK1              100      0      3C       7       23.4%
BITBANK15           80      0       0      35        0.0%
BANK15              80      0       0      36        0.0%
BITBANK0            80      0       0       4        0.0%
BANK0               80      5      51       5       63.3%
BITCOMRAM           7E      0       0       0        0.0%
COMRAM              7E     3F      7B       1       97.6%
BITSFR               0      0       0     200        0.0%
SFR                  0      0       0     200        0.0%
STACK                0      0       0       2        0.0%
NULL                 0      0       0       0        0.0%
ABS                  0      0     108      34        0.0%
DATA                 0      0     108       3        0.0%
CODE                 0      0       0       0        0.0%


Microchip Technology PIC18 Macro Assembler V2.30 build 20200825195618 
Symbol Table                                                                                   Thu Jun  1 08:48:41 2023

                                   ??_ifSelectedPlayerHold 0003  
                                                       l70 27FE  
                                                       l80 2F7E  
                                                       l73 2F58  
                                                       l67 27DA  
                                                       l83 2F6C  
                                                       l92 2A24  
                                                       l69 27E8  
                            __size_of_frisbeeReleasedOnLCD 0038  
                               LCDAddSpecialCharacter@data 00CD  
                    LCDAddSpecialCharacter@character_index 00CF  
                                            ?_display_7seg 0001  
                                                      l103 2F08  
                                                      l212 2BE6  
                                                      l108 2E9E  
                                                      l209 24A6  
                                                      l263 2CB6  
                                                      _FNC 0008  
                              throwFrisbee@selected_player 0036  
                                                      _adc 00CA  
                                           _isValidNPCMove 1E3E  
                                                      wreg 000FE8  
                                          __end_of_LCDGoto 2A26  
                                                     ?_FNC 0001  
                                        ??_setInitialState 00D1  
                                                     l3001 2C7C  
                                                     l3011 2CA6  
                                                     l3003 2C7E  
                                                     l3021 2CB4  
                                                     l3013 2CA8  
                                                     l3005 2C84  
                                                     l3015 2CAA  
                                                     l3007 2C98  
                                                     l3031 26D4  
                                                     l3023 26C4  
                                                     l3017 2CAC  
                                                     l3009 2C9E  
                                                     l3041 272A  
                                                     l3033 26E2  
                                                     l3025 26C8  
                                                     l2411 2B7C  
                                                     l3019 2CAE  
                                                     l3043 2742  
                                                     l3035 26FA  
                                                     l3027 26CC  
                                                     l2421 2BAE  
                                                     l2413 2B84  
                                                     l3045 274E  
                                                     l3037 2706  
                                                     l3029 26D0  
                                                     l2423 2BC0  
                                                     l2415 2B94  
                                                     l3039 271E  
                                                     l3047 2756  
                                                     l2425 2BD4  
                                                     l2417 2BA6  
                                                     l2361 27D8  
                                                     l2419 2BAA  
                                                     l2363 27EA  
                                                     l2359 2766  
                                                     l2901 29D2  
                                                     l2903 29E4  
                                                     l2911 2A1C  
                                                     l2913 2A20  
                                                     l2905 29F2  
                                                     l2931 2ED8  
                                                     l2923 2E78  
                                                     l2915 2E64  
                                                     l2907 2A04  
                                                     l2941 2EEA  
                                                     l2933 2EDC  
                                                     l2925 2E8A  
                                                     l2917 2E72  
                                                     l2909 2A12  
                                                     l2943 2EF0  
                                                     l2935 2EE0  
                                                     l2927 2E8E  
                                                     l2951 23CC  
                                                     l2881 2F76  
                                                     l2945 2EF6  
                                                     l2937 2EE2  
                                                     l2929 2F36  
                                                     l2961 2470  
                                                     l2953 244C  
                                                     l2883 2F7A  
                                                     l2947 2EFC  
                                                     l2939 2EE4  
                                                     l2891 2F66  
                                                     l2971 24A0  
                                                     l2963 247C  
                                                     l2955 2458  
                                                     l2885 2F7C  
                                                     l2949 2F02  
                                                     l2981 2C5C  
                                                     l2973 2C52  
                                                     l2893 2F68  
                                                     l2965 2482  
                                                     l2957 245E  
                                                     l2879 2F72  
                                                     l2991 2C6E  
                                                     l2983 2C5E  
                                                     l2975 2C56  
                                                     l2895 2F6A  
                                                     l2887 2F5E  
                                                     l2967 248E  
                                                     l2959 246A  
                                                     l2993 2C70  
                                                     l2985 2C60  
                                                     l2977 2C58  
                                                     l2889 2F62  
                                                     l2897 29B2  
                                                     l2969 2494  
                                                     l2995 2C76  
                                                     l2987 2C66  
                                                     l2979 2C5A  
                                                     l2899 29C4  
                                                     l2997 2C78  
                                                     l2989 2C68  
                                                     l2999 2C7A  
                                                     STR_1 1001  
                                                     STR_2 1001  
                                                     STR_3 1001  
                                                     STR_4 1001  
                                                     STR_5 1001  
                                                     STR_6 1001  
                                                     STR_7 1001  
                                                     STR_8 1001  
                                                     _LATA 000F89  
                                                     u2230 29C4  
                                                     _LATB 000F8A  
                                                     u2231 29C0  
                                                     u2240 29E4  
                                                     _LATD 000F8C  
                                                     u2241 29E0  
                                                     u2250 2A04  
                                                     u2307 2B9C  
                                                     u2251 2A00  
                                                     u2260 2E9E  
                                                     u2317 2BB6  
                                                     u2261 2E9A  
                                                     u2270 26FA  
                                                     u2327 2BDC  
                                                     u2271 26F6  
                                                     u1640 27E8  
                                                     u2280 271E  
                                                     u1641 27E4  
                                                     u2281 271A  
                                                     u2290 2742  
                                                     u2291 273E  
                                                     i2l80 2FA0  
                                                     i2l83 2F90  
                                                     i2l92 2A98  
                                                     _TMR0 000FD6  
                                                     _TMR1 000FCE  
                                                     _TMR2 000FCC  
                                                     _dash 0068  
                                                     _main 26C4  
                                                     fsr2h 000FDA  
                                                     indf2 000FDF  
                                                     fsr1l 000FE1  
                                                     fsr2l 000FD9  
                                                     btemp 007C  
                                                     prodl 000FF3  
                                                     start 000E  
                                 _ifSelectedPlayerHold$881 0007  
                                 _switchSelectedPlayer$861 000B  
                                 _switchSelectedPlayer$859 0009  
                                             ?_frisbeeHeld 0001  
                                             ___param_bank 000000  
                                          __end_of_InitLCD 2F0A  
                                                    ??_FNC 0038  
                                       __size_ofi2_LCDGoto 0074  
                                           ??_display_7seg 00CC  
                                      isThereOtherPlayer@i 0009  
                             __end_of_switchSelectedPlayer 21BE  
                                   __end_of_isValidNPCMove 202A  
                                                    ?_main 0001  
                                                    _T0CON 000FD5  
                                                    _T1CON 000FCD  
                                                    _T2CON 000FCA  
                                         __end_ofi2_LCDDat 2F92  
                                         __end_ofi2_LCDCmd 2FA2  
                                                    i2l100 29AC  
                                          __end_of___lwmod 2D1C  
                                                    i2l140 193E  
                                                    i2l133 1858  
                                                    i2l222 289C  
                                                    i2l206 2D76  
                                                    i2l142 1946  
                                                    i2l135 18BA  
                                                    i2l225 2632  
                                                    i2l305 1E3C  
                                                    i2l153 1A6A  
                                                    i2l137 18EC  
                                                    i2l314 2E1E  
                                                    i2l226 26C2  
                                                    i2l218 2612  
                                                    i2l307 1E38  
                                                    i2l147 1A1C  
                                                    i2l236 2B7A  
                                                    i2l244 1856  
                                                    i2l165 1BA6  
                                                    i2l254 17AA  
                                                    i2l246 17AA  
                                                    i2l334 2028  
                                                    i2l342 1452  
                                                    i2l158 1B50  
                                                    i2l239 2ED6  
                                                    i2l280 255C  
                                                    i2l168 2DCC  
                                                    i2l274 21BC  
                                                    i2l370 22C2  
                                                    i2l363 221A  
                                                    i2l292 292C  
                                                    i2l199 2C50  
                                                    i2l287 23CA  
                                                    i2l891 2D12  
                                                    i2l898 2D1A  
                                                    _PORTB 000F81  
                                                    _PORTD 000F83  
                                                    _TRISA 000F92  
                                                    _TRISB 000F93  
                                                    _TRISD 000F95  
                                __size_of_isThereAnyPlayer 00B6  
                                     _TIMER0_INITIAL_VALUE 0073  
                                          __end_of_initADC 2F5A  
                                                    _blink 2DCE  
                                                    _lcd_x 006A  
                                                    _lcd_y 0069  
                                          __end_of_npcMove 1454  
                                                    tablat 000FF5  
                                                    ttemp5 007D  
                                                    ttemp6 0080  
                                                    ttemp7 0084  
                                                    status 000FD8  
                                                    wtemp8 007D  
                                 __end_of_random_generator 2DCE  
                                          __initialization 2A9A  
                          frisbeeHeldOnLCD@selected_player 0007  
                                             __end_of_main 2762  
                                        ?_bitChangedToZero 0001  
                                           _readADCChannel 2762  
                                   __size_of_initRegisters 0066  
                                       ??_bitChangedToZero 0004  
                                          ?_isValidNPCMove 000B  
                                                   ??_main 00D1  
                                            __activetblptr 000002  
                               __end_of_isThereOtherPlayer 2614  
                                                ??_LCDGoto 00CE  
                                             ?_moveFrisbee 0001  
                                        ?_frisbeeHeldOnLCD 0001  
                                                   ?_blink 0001  
                                                   _ADRESH 000FC4  
                                                   _ADRESL 000FC3  
                                       ??_frisbeeHeldOnLCD 0007  
                                                   _LCDDat 2F5A  
                                                   _LCDCmd 2F6E  
                                        __end_ofi2_LCDGoto 2A9A  
                                                   i2l2011 2952  
                                                   i2l2021 297E  
                                                   i2l2013 2954  
                                                   i2l2015 2966  
                                                   i2l2023 2982  
                                                   i2l2007 292E  
                                                   i2l2031 2D80  
                                                   i2l2017 296A  
                                                   i2l2009 2936  
                                                   i2l2025 2984  
                                                   i2l2201 2D1C  
                                                   i2l2041 24A8  
                                                   i2l2033 2DA0  
                                                   i2l2121 18D0  
                                                   i2l2113 1858  
                                                   i2l2019 296C  
                                                   i2l2211 2D5C  
                                                   i2l2203 2D20  
                                                   i2l2051 2528  
                                                   i2l2035 2DBC  
                                                   i2l2027 2D78  
                                                   i2l2131 1932  
                                                   i2l2123 18E0  
                                                   i2l2115 1888  
                                                   i2l2213 2D68  
                                                   i2l2205 2D2A  
                                                   i2l2301 28AA  
                                                   i2l2037 2DC4  
                                                   i2l2029 2D78  
                                                   i2l2141 19A4  
                                                   i2l2133 194E  
                                                   i2l2125 1902  
                                                   i2l2117 189E  
                                                   i2l2071 2A66  
                                                   i2l2063 2A28  
                                                   i2l2231 25EA  
                                                   i2l2223 2566  
                                                   i2l2215 2D70  
                                                   i2l2207 2D36  
                                                   i2l2303 28E2  
                                                   i2l2055 2534  
                                                   i2l2047 24B0  
                                                   i2l2311 1E3E  
                                                   i2l2151 1A02  
                                                   i2l2143 19A8  
                                                   i2l2135 1964  
                                                   i2l2119 18AE  
                                                   i2l2073 2A78  
                                                   i2l2065 2A38  
                                                   i2l2241 2808  
                                                   i2l2233 25EE  
                                                   i2l2225 259E  
                                                   i2l2217 255E  
                                                   i2l2209 2D40  
                                                   i2l2305 2922  
                                                   i2l2057 2538  
                                                   i2l2049 24E8  
                                                   i2l2321 1EBE  
                                                   i2l2313 1E9A  
                                                   i2l2161 1A72  
                                                   i2l2153 1A06  
                                                   i2l2137 1970  
                                                   i2l2145 19C2  
                                                   i2l2129 191C  
                                                   i2l2075 2A86  
                                                   i2l2067 2A46  
                                                   i2l2243 2840  
                                                   i2l2235 260A  
                                                   i2l2227 25DE  
                                                   i2l2307 2926  
                                                   i2l2059 2554  
                                                   i2l2323 1ECE  
                                                   i2l2315 1EA4  
                                                   i2l2331 1EF6  
                                                   i2l2171 1AD4  
                                                   i2l2163 1A88  
                                                   i2l2155 1A28  
                                                   i2l2147 19CE  
                                                   i2l2139 197C  
                                                   i2l2069 2A58  
                                                   i2l2077 2A90  
                                                   i2l2245 2880  
                                                   i2l2261 2672  
                                                   i2l2253 2614  
                                                   i2l2341 1FC4  
                                                   i2l2325 1EDC  
                                                   i2l2317 1EAC  
                                                   i2l2333 1F52  
                                                   i2l2181 1B3A  
                                                   i2l2165 1A94  
                                                   i2l2173 1AEE  
                                                   i2l2157 1A50  
                                                   i2l2149 19DA  
                                                   _LCDStr 292E  
                                                   i2l2079 2A94  
                                                   i2l2191 2BEE  
                                                   i2l2239 2800  
                                                   i2l2271 2B0C  
                                                   i2l2263 26B2  
                                                   i2l2255 2626  
                                                   i2l2431 1466  
                                                   i2l2351 2020  
                                                   i2l2343 1FDE  
                                                   i2l2335 1F78  
                                                   i2l2327 1EEA  
                                                   i2l2319 1EB4  
                                                   i2l2183 1B5C  
                                                   i2l2175 1AFA  
                                                   i2l2167 1AA0  
                                                   i2l2159 1A54  
                                                   i2l2193 2C1A  
                                                   i2l2249 2894  
                                                   i2l2281 2B60  
                                                   i2l2273 2B24  
                                                   i2l2441 1520  
                                                   i2l2433 148E  
                                                   i2l2345 1FFA  
                                                   i2l2337 1F90  
                                                   i2l2185 1B8C  
                                                   i2l2177 1B06  
                                                   i2l2169 1AD0  
                                                   i2l2601 2346  
                                                   i2l2195 2C46  
                                                   i2l2283 2B6C  
                                                   i2l2275 2B2E  
                                                   i2l2291 2EBA  
                                                   i2l2259 263A  
                                                   i2l2435 14BE  
                                                   i2l2427 1454  
                                                   i2l2339 1FA8  
                                                   i2l2347 2014  
                                                   i2l3091 1F0C  
                                                   i2l2187 1B90  
                                                   i2l2179 1B36  
                                                   i2l2611 238E  
                                                   i2l2603 2350  
                                                   i2l2197 2C4A  
                                                   i2l2189 2BEA  
                                                   i2l2285 2B74  
                                                   i2l2277 2B3A  
                                                   i2l2293 2EC6  
                                                   i2l2461 1668  
                                                   i2l2453 15E4  
                                                   i2l2445 154E  
                                                   i2l2437 14E2  
                                                   i2l2429 1458  
                                                   i2l2701 100C  
                                                   i2l2621 23C0  
                                                   i2l2613 2396  
                                                   i2l2605 235C  
                                                   i2l2279 2B44  
                                                   i2l2295 2ED0  
                                                   i2l2287 2EA0  
                                                   i2l2471 16F6  
                                                   i2l2447 1580  
                                                   i2l2631 1C34  
                                                   i2l2711 1030  
                                                   i2l2551 2038  
                                                   i2l2543 202A  
                                                   i2l2623 23C8  
                                                   i2l2615 239C  
                                                   i2l2607 2366  
                                                   i2l2289 2EB0  
                                                   i2l2481 1780  
                                                   i2l2473 171A  
                                                   i2l2465 169E  
                                                   i2l2457 1612  
                                                   i2l2449 15A4  
                                                   i2l2297 289E  
                                                   i2l2641 1C88  
                                                   i2l2633 1C44  
                                                   i2l2625 1BA8  
                                                   i2l3089 1354  
                                                   i2l2721 1116  
                                                   i2l2713 1088  
                                                   i2l2561 20AE  
                                                   i2l2553 2040  
                                                   i2l2545 202C  
                                                   i2l2617 23B0  
                                                   i2l2609 2382  
                                                   i2l2491 1852  
                                                   i2l2483 17AE  
                                                   i2l2459 1644  
                                                   i2l2299 28A6  
                                                   i2l2651 1D18  
                                                   i2l2643 1C90  
                                                   i2l2635 1C6A  
                                                   i2l2627 1BBC  
                                                   i2l2731 128E  
                                                   i2l2723 115E  
                                                   i2l2715 109C  
                                                   i2l2707 1014  
                                                   i2l2571 20EE  
                                                   i2l2563 20B8  
                                                   i2l2555 2068  
                                                   i2l2547 2030  
                                                   i2l2619 23BA  
                                                   i2l2811 22BE  
                                                   i2l2803 22A8  
                                                   i2l2485 1822  
                                                   i2l2477 1752  
                                                   i2l2469 16CC  
                                                   i2l2661 1D48  
                                                   i2l2653 1D24  
                                                   i2l2645 1CA6  
                                                   i2l2637 1C74  
                                                   i2l2629 1BF4  
                                                   i2l2741 13A4  
                                                   i2l2733 12E6  
                                                   i2l2725 119E  
                                                   i2l2581 2178  
                                                   i2l2573 2102  
                                                   i2l2565 20D4  
                                                   i2l2557 2098  
                                                   i2l2549 2034  
                                                   i2l2805 22AC  
                                                   i2l2487 1838  
                                                   i2l2671 1D6E  
                                                   i2l2663 1D4E  
                                                   i2l2655 1D2C  
                                                   i2l2647 1CF2  
                                                   i2l2639 1C80  
                                                   i2l2751 142C  
                                                   i2l2743 13AA  
                                                   i2l2727 11DE  
                                                   i2l2719 10CE  
                                                   i2l2591 21B8  
                                                   i2l2583 2182  
                                                   i2l2575 210A  
                                                   i2l2567 20E0  
                                                   i2l2559 20A2  
                                                   i2l2807 22BA  
                                                   i2l2489 183C  
                                                   i2l2681 1E02  
                                                   i2l2673 1D94  
                                                   i2l2665 1D56  
                                                   i2l2657 1D32  
                                                   i2l2649 1CFC  
                                                   i2l1961 2CDA  
                                                   i2l2745 13FC  
                                                   i2l2729 1236  
                                                   i2l2737 133E  
                                                   i2l2753 1432  
                                                   i2l2585 219E  
                                                   i2l2577 2132  
                                                   i2l2569 20E8  
                                                   i2l2593 22DE  
                                                   i2l2809 22BC  
                                                   i2l2761 21D8  
                                                   i2l1971 2F94  
                                                   i2l2691 2DEA  
                                                   i2l2683 1E28  
                                                   i2l2675 1D9E  
                                                   i2l2659 1D3E  
                                                   i2l1963 2CE8  
                                                   i2l1955 2CB8  
                                                   i2l2755 1436  
                                                   i2l2747 1418  
                                                   i2l2739 139A  
                                                   i2l2587 21AA  
                                                   i2l2579 216C  
                                                   i2l2595 22E6  
                                                   i2l2771 2202  
                                                   i2l2763 21E6  
                                                   i2l1981 2F86  
                                                   i2l1973 2F98  
                                                   i2l2693 2DF6  
                                                   i2l2685 1E32  
                                                   i2l2677 1DAA  
                                                   i2l2669 1D5C  
                                                   i2l1965 2CFE  
                                                   i2l1957 2CCA  
                                                   i2l2749 1424  
                                                   i2l2589 21B2  
                                                   i2l2597 22EE  
                                                   i2l2781 223C  
                                                   i2l2765 21E8  
                                                   i2l2773 220A  
                                                   i2l1983 2F8A  
                                                   i2l1975 2F9C  
                                                   i2l2695 2DFE  
                                                   i2l2687 2DCE  
                                                   i2l2679 1DD2  
                                                   i2l1967 2D06  
                                                   i2l1959 2CD2  
                                                   i2l2599 2316  
                                                   i2l2791 2266  
                                                   i2l2783 2240  
                                                   i2l2775 2218  
                                                   i2l2767 21FA  
                                                   i2l1985 2F8C  
                                                   i2l1977 2F9E  
                                                   i2l2697 2E04  
                                                   i2l2689 2DD8  
                                                   i2l1969 2D0C  
                                                   i2l2793 226A  
                                                   i2l2777 2228  
                                                   i2l2785 2244  
                                                   i2l2769 21FE  
                                                   i2l1987 2F8E  
                                                   i2l1979 2F82  
                                                   i2l2699 1004  
                                                   i2l2795 2278  
                                                   i2l2787 2252  
                                                   i2l2779 222A  
                                                   i2l2797 2290  
                                                   i2l2789 2254  
                                                   i2l2799 2292  
                                     _bitChangedToZero$758 0007  
                                                   _TMR0IF 007F92  
                                          isValidNPCMove@x 0011  
                                          isValidNPCMove@y 0013  
                                                ??_InitLCD 00CD  
                             frisbeeReleasedOnLCD@frisbeeX 0009  
                             frisbeeReleasedOnLCD@frisbeeY 000B  
                                 frisbeeHeldOnLCD@frisbeeX 000B  
                                 frisbeeHeldOnLCD@frisbeeY 000D  
                                   __end_of_readADCChannel 2800  
                                                   _digits 005C  
                                                ??___lwmod 0005  
                                                   clear_0 2AE0  
                                                   clear_1 2AEC  
                                                   clear_2 2AF8  
                                                   _values 00C0  
compute_frisbee_target_and_route@current_fisbee_x_position 0012  
                                  __size_of_gamepadPressed 0404  
                                                ??_initADC 00CC  
compute_frisbee_target_and_route@current_fisbee_y_position 0014  
                                             __pdataCOMRAM 0040  
                                            _frisbee_steps 0100  
                                                ??_npcMove 0015  
                                             __mediumconst 0000  
                                                   tblptrh 000FF7  
                                                   tblptrl 000FF6  
                                                   tblptru 000FF8  
                     __end_of_hasPlayerLeftFrisbeeLocation 26C4  
                    __size_of_hasPlayerLeftFrisbeeLocation 00B0  
                             _hasPlayerLeftFrisbeeLocation 2614  
                                              npcMove@oldX 001B  
                                              npcMove@oldY 001D  
                                            _initRegisters 2C52  
                                                LCDDat@dat 00CC  
                                                LCDCmd@cmd 00CC  
                                     __end_of_display_7seg 2BE8  
                                               __accesstop 0080  
                                  __end_of__initialization 2AFE  
                                     _switchSelectedPlayer 202A  
                                            ___rparam_used 000001  
                                                ?i2_LCDDat 0001  
                                                ?i2_LCDCmd 0001  
                                           __pcstackCOMRAM 0001  
                                          ?_readADCChannel 00CC  
                                             __pidataBANK0 2E20  
                                                LCDStr@str 0002  
                                            __end_of_blink 2E20  
                                 ??_LCDAddSpecialCharacter 00CF  
                                     __size_of_frisbeeHeld 009E  
                            random_generator@pseudo_random 000C  
                                 switchSelectedPlayer@oldX 000D  
                                 switchSelectedPlayer@oldY 000F  
                                 switchSelectedPlayer@newX 0011  
                                 switchSelectedPlayer@newY 0013  
                                          _setInitialState 23CC  
                                         _isThereAnyPlayer 24A8  
                                                  ??_blink 0004  
                                           ?_initRegisters 0001  
                             __end_of_frisbeeReleasedOnLCD 2ED8  
                                                  ?_LCDDat 0001  
                                                  ?_LCDCmd 0001  
                                               __pbssBANK0 00C0  
                                               __pbssBANK1 0100  
                                                  ?_LCDStr 0002  
                            ?_hasPlayerLeftFrisbeeLocation 0001  
                                                  LCDStr@i 0006  
                                    ?_switchSelectedPlayer 0001  
                                             i2LCDGoto@p_1 0002  
                                             i2LCDGoto@p_2 0003  
                                               ??i2_LCDDat 0001  
                                               ??i2_LCDCmd 0001  
              compute_frisbee_target_and_route@x_step_size 002A  
                                               _blink_flag 006D  
                            __size_of_ifSelectedPlayerHold 0090  
              compute_frisbee_target_and_route@y_step_size 002C  
                                                  _CONVERT 007B  
                                                  _LCDGoto 29AE  
                                     __size_of_moveFrisbee 0296  
                                          __size_of_LCDDat 0014  
                                          __size_of_LCDCmd 0012  
                                          __size_of_LCDStr 0080  
                                                  _InitLCD 2ED8  
                                                  __Hparam 0000  
                                                  __Lparam 0000  
                                        ?_random_generator 0006  
                                  __end_of_setInitialState 24A8  
                                         ??_isValidNPCMove 000F  
                                       ??_random_generator 0008  
                            random_generator@rotated_value 000E  
                                                  ___lwmod 2CB8  
                                             __psmallconst 1000  
                          __size_of_LCDAddSpecialCharacter 0040  
                                                  __pcinit 2A9A  
                                                  __ramtop 1000  
                                           _gamepadPressed 1454  
                                                  __ptext0 26C4  
                                                  __ptext1 23CC  
                                                  __ptext2 29AE  
                                                  __ptext3 2E60  
                                                  __ptext4 2F5A  
                                                  __ptext5 2762  
                                                  __ptext6 2C52  
                                                  __ptext7 2F36  
                                                  __ptext8 2B7C  
                                                  __ptext9 2ED8  
                                                _T0CONbits 000FD5  
                                                  _initADC 2F36  
                                             __size_of_FNC 22D6  
                                                _T1CONbits 000FCD  
                                                  _frisbee 0088  
                                                _T2CONbits 000FCA  
                                                  _npcMove 1004  
                                          ??_initRegisters 00CC  
                      _moveSelectedPlayerPositionOnLCD$768 0011  
                                    __size_of_display_7seg 006C  
                                __size_of_bitChangedToZero 006A  
                                           __pintcode_body 21BE  
                                     end_of_initialization 2AFE  
                                   ??_switchSelectedPlayer 0007  
                                       _isThereOtherPlayer 255E  
                                           _frisbee_target 0080  
                                            __Lmediumconst 0000  
                                                  int_func 21BE  
                                          _moveFrisbee$886 000F  
                                                i2_LCDGoto 2A26  
                                      ?_isThereOtherPlayer 0001  
                                __size_of_frisbeeHeldOnLCD 0070  
                                                  postdec1 000FE5  
                                                  postdec2 000FDD  
                                                  postinc0 000FEE  
                                                  postinc2 000FDE  
                                   __end_of_gamepadPressed 1858  
                                      bitChangedToZero@bit 0002  
                                     _frisbeeReleasedOnLCD 2EA0  
                                             _display_7seg 2B7C  
                                                _PORTEbits 000F84  
                    compute_frisbee_target_and_route@i_720 001C  
                    compute_frisbee_target_and_route@i_722 001E  
                    compute_frisbee_target_and_route@i_723 0020  
                    compute_frisbee_target_and_route@i_724 0022  
                    compute_frisbee_target_and_route@i_719 001A  
                  __end_of_moveSelectedPlayerPositionOnLCD 2D78  
                 __size_of_moveSelectedPlayerPositionOnLCD 005C  
                        ??_moveSelectedPlayerPositionOnLCD 0011  
                         ?_moveSelectedPlayerPositionOnLCD 0007  
                          _moveSelectedPlayerPositionOnLCD 2D1C  
                                     ??_isThereOtherPlayer 0005  
                                                _TRISAbits 000F92  
                                                _TRISBbits 000F93  
                                                _TRISEbits 000F96  
                                   _LCDAddSpecialCharacter 2E60  
                                        isThereAnyPlayer@i 0009  
                                        isThereAnyPlayer@x 0001  
                                        isThereAnyPlayer@y 0003  
                              random_generator@timer_value 0010  
                                           __end_of_LCDDat 2F6E  
                                           __end_of_LCDCmd 2F80  
                                           __end_of_LCDStr 29AE  
                                         ??_readADCChannel 00CE  
                                               LCDGoto@p_1 00CD  
                                               LCDGoto@p_2 00CE  
                                               ?i2_LCDGoto 0002  
                                            ?_throwFrisbee 0001  
          compute_frisbee_target_and_route@number_of_steps 0024  
                       _selected_teamA_player_with_frisbee 0098  
                                 __end_of_isThereAnyPlayer 255E  
                                         ?_setInitialState 0001  
                                        __size_ofi2_LCDDat 0012  
                                        __size_ofi2_LCDCmd 0010  
                                          ?_gamepadPressed 0001  
                                    ?_frisbeeReleasedOnLCD 0001  
                                            __pidataCOMRAM 2F0A  
                 __end_of_compute_frisbee_target_and_route 1BA8  
                __size_of_compute_frisbee_target_and_route 0350  
                       ??_compute_frisbee_target_and_route 0016  
                        ?_compute_frisbee_target_and_route 0012  
                         _compute_frisbee_target_and_route 1858  
                                      start_initialization 2A9A  
                                              __end_of_FNC 22DE  
                                                 ??_LCDDat 00CC  
                                                 ??_LCDCmd 00CC  
                                                 ??_LCDStr 0004  
                                           ??_throwFrisbee 002E  
                                            ??_frisbeeHeld 0003  
                                  LCDAddSpecialCharacter@i 00D0  
                               isValidNPCMove@selected_npc 000B  
                                             _frisbee_held 0071  
                                              __pdataBANK0 0080  
                                                 ?_LCDGoto 00CD  
                                              __pbssCOMRAM 006B  
                                            __pcstackBANK0 00CC  
                                         _bitChangedToZero 2BE8  
                                     _TIMER2_INITIAL_VALUE 0066  
                                   isThereOtherPlayer@oldX 0001  
                                   isThereOtherPlayer@oldY 0003  
                             __end_of_ifSelectedPlayerHold 292E  
                                              i2LCDDat@dat 0001  
                                              i2LCDCmd@cmd 0001  
                                     _frisbeeHeldOnLCD$785 0009  
                                                 ?_InitLCD 0001  
                                                _blink$889 0004  
                                             _current_step 006F  
                                              ??i2_LCDGoto 0003  
                                                _gameState 0040  
                                         _frisbeeHeldOnLCD 2B0C  
                                                __pintcode 0008  
                                  npcMove@random_direction 0021  
                                   ??_frisbeeReleasedOnLCD 0007  
                                                 ?___lwmod 0001  
                                      __end_of_frisbeeHeld 289E  
                                                 ?_initADC 0001  
                                              __smallconst 1000  
                                                 ?_npcMove 0001  
                                __size_of_random_generator 0056  
                                            ??_moveFrisbee 000B  
                                             _teamA_player 00B8  
                                           __size_of_blink 0052  
                                             _teamB_player 00B0  
                               frisbeeHeld@selected_player 0007  
                                    readADCChannel@channel 00D0  
                                    _selected_teamA_player 00A8  
                                    _selected_teamB_player 00A0  
                                                 i2_LCDDat 2F80  
                                                 i2_LCDCmd 2F92  
                                                 i2u120_40 2554  
                                                 i2u112_40 2CCA  
                                                 i2u200_40 110A  
                                                 i2u120_41 2550  
                                                 i2u112_41 2CC6  
                                                 i2u200_41 1104  
                                                 i2u121_40 2A38  
                                                 i2u113_40 2CE8  
                                                 i2u201_40 110C  
                                                 i2u121_41 2A34  
                                                 i2u113_41 2CE4  
                                                 i2u122_40 2A58  
                                                 i2u114_40 2CFE  
                                                 i2u202_40 1152  
                                                 i2u130_40 1902  
                                                 i2u210_40 21E6  
                                                 i2u122_41 2A54  
                                                 i2u114_41 2CFA  
                                                 i2u202_41 114C  
                                                 i2u130_41 18FE  
                                                 i2u210_41 21E2  
                                                 i2u123_40 2A78  
                                                 i2u115_40 2966  
                                                 i2u203_40 1154  
                                                 i2u131_40 1918  
                                                 i2u211_40 21FA  
                                                 i2u123_41 2A74  
                                                 i2u115_41 2962  
                                                 i2u131_41 1914  
                                                 i2u211_41 21F6  
                                                 i2u116_40 297E  
                                                 i2u204_40 1192  
                                                 i2u140_40 1BA6  
                                                 i2u132_40 1932  
                                                 i2u212_40 2218  
                                                 i2u116_41 297A  
                                                 i2u204_41 118C  
                                                 i2u140_41 1BA2  
                                                 i2u132_41 192E  
                                                 i2u212_41 2214  
                                                 i2u117_40 29AC  
                                                 i2u205_40 1194  
                                                 i2u133_40 1964  
                                                 i2u213_40 2228  
                                                 i2u117_41 29A8  
                                                 i2u133_41 1960  
                                                 i2u213_41 2224  
                                                 i2u141_44 2C00  
                                                 i2u141_45 2BFC  
                                                 i2u142_40 2C1A  
                                                 i2u150_40 2880  
                                                 i2u118_40 24E8  
                                                 i2u206_40 11D2  
                                                 i2u134_40 19BE  
                                                 i2u214_40 223C  
                                                 i2u142_41 2C16  
                                                 i2u150_41 287C  
                                                 i2u118_41 24E4  
                                                 i2u206_41 11CC  
                                                 i2u134_41 19BA  
                                                 i2u214_41 2238  
                                                 i2u151_40 2626  
                                                 i2u119_40 2528  
                                                 i2u207_40 11D4  
                                                 i2u135_40 1A1C  
                                                 i2u215_40 2252  
                                                 i2u151_41 2622  
                                                 i2u119_41 2524  
                                                 i2u135_41 1A18  
                                                 i2u215_41 224E  
                                                 i2u143_44 2C2C  
                                                 i2u143_45 2C28  
                                                 i2u144_40 2C46  
                                                 i2u152_40 2672  
                                                 i2u160_40 1FC4  
                                                 i2u208_40 1418  
                                                 i2u136_40 1A6A  
                                                 i2u128_40 189E  
                                                 i2u216_40 2266  
                                                 i2u144_41 2C42  
                                                 i2u152_41 266E  
                                                 i2u160_41 1FC0  
                                                 i2u208_41 1414  
                                                 i2u136_41 1A66  
                                                 i2u128_41 189A  
                                                 i2u216_41 2262  
                                                 i2u153_40 26B2  
                                                 i2u145_40 2D5C  
                                                 i2u161_40 1FDE  
                                                 i2u209_40 1452  
                                                 i2u137_40 1A88  
                                                 i2u129_40 18D0  
                                                 i2u217_40 2278  
                                                 i2u153_41 26AE  
                                                 i2u145_41 2D58  
                                                 i2u161_41 1FDA  
                                                 i2u209_41 144E  
                                                 i2u137_41 1A84  
                                                 i2u129_41 18CC  
                                                 i2u217_41 2274  
                                                 i2u233_47 2282  
                                                 i2u154_40 2B60  
                                                 i2u146_40 259E  
                                                 i2u170_40 160E  
                                                 i2u162_40 1FFA  
                                                 i2u138_40 1AEA  
                                                 i2u218_40 22A4  
                                                 i2u154_41 2B5C  
                                                 i2u146_41 259A  
                                                 i2u170_41 160A  
                                                 i2u162_41 1FF6  
                                                 i2u138_41 1AE6  
                                                 i2u218_41 22A0  
                                                 i2u234_47 145E  
                                                 i2u147_40 25DE  
                                                 i2u171_40 1668  
                                                 i2u155_40 28E2  
                                                 i2u163_40 2014  
                                                 i2u139_40 1B50  
                                                 i2u219_40 22BA  
                                                 i2u147_41 25DA  
                                                 i2u171_41 1664  
                                                 i2u155_41 28DE  
                                                 i2u163_41 2010  
                                                 i2u139_41 1B4C  
                                                 i2u219_41 22B6  
                                                 i2u148_40 260A  
                                                 i2u172_40 169A  
                                                 i2u156_40 2922  
                                                 i2u180_40 219E  
                                                 i2u148_41 2606  
                                                 i2u172_41 1696  
                                                 i2u156_41 291E  
                                                 i2u180_41 219A  
                                                 i2u149_40 2840  
                                                 i2u173_40 16C8  
                                                 i2u165_40 14E2  
                                                 i2u157_40 1F78  
                                                 i2u181_40 2382  
                                                 i2u149_41 283C  
                                                 i2u173_41 16C4  
                                                 i2u165_41 14DE  
                                                 i2u157_41 1F74  
                                                 i2u181_41 237E  
                                                 i2u174_40 171A  
                                                 i2u166_40 151C  
                                                 i2u190_40 1CEC  
                                                 i2u182_40 1BBC  
                                                 i2u158_40 1F90  
                                                 i2u174_41 1716  
                                                 i2u166_41 1518  
                                                 i2u182_41 1BB8  
                                                 i2u158_41 1F8C  
                                                 i2u175_40 174E  
                                                 i2u167_40 154A  
                                                 i2u191_40 1D18  
                                                 i2u183_40 1BF4  
                                                 i2u159_40 1FA8  
                                                 i2u175_41 174A  
                                                 i2u167_41 1546  
                                                 i2u191_41 1D14  
                                                 i2u183_41 1BF0  
                                                 i2u159_41 1FA4  
                                                 i2u176_40 177C  
                                                 i2u168_40 15A4  
                                                 i2u192_40 1D6E  
                                                 i2u184_40 1C34  
                                                 i2u176_41 1778  
                                                 i2u168_41 15A0  
                                                 i2u192_41 1D6A  
                                                 i2u184_41 1C30  
                                                 i2u177_40 1838  
                                                 i2u169_40 15E0  
                                                 i2u193_40 1D94  
                                                 i2u185_40 1C6A  
                                                 i2u177_41 1834  
                                                 i2u169_41 15DC  
                                                 i2u193_41 1D90  
                                                 i2u185_41 1C66  
                                                 _PIR1bits 000F9E  
                                                 i2u178_40 1852  
                                                 i2u194_40 1E28  
                                                 i2u186_40 1CA6  
                                                 i2u178_41 184E  
                                                 i2u194_41 1E24  
                                                 i2u186_41 1CA2  
                                                 i2u195_40 2DEA  
                                                 i2u187_40 1CC4  
                                                 i2u179_40 20D4  
                                                 i2u195_41 2DE6  
                                                 i2u187_41 1CBE  
                                                 i2u179_41 20D0  
                                                 i2u196_40 2E18  
                                                 i2u188_40 1CC6  
                                                 i2u196_41 2E12  
                                                 i2u197_40 2E1A  
                                                 i2u189_40 1CEA  
                                                 i2u189_41 1CE4  
                                                 i2u198_40 102C  
                                                 i2u198_41 1028  
                                                 i2u199_40 10CA  
                                                 i2u199_41 10C6  
                                               _ADCON0bits 000FC2  
                                               _ADCON1bits 000FC1  
                                               _ADCON2bits 000FC0  
                                     __end_of_throwFrisbee 23CC  
              hasPlayerLeftFrisbeeLocation@selected_player 0007  
                                         __size_of_LCDGoto 0078  
                                  ?_LCDAddSpecialCharacter 00CD  
                                    __end_of_initRegisters 2CB8  
                                              _INTCON3bits 000FF0  
                                                copy_data0 2AAE  
                                                copy_data1 2ACE  
                                   random_generator@modulo 0006  
                                      __end_of_moveFrisbee 1E3E  
                            __size_of_switchSelectedPlayer 0194  
                                         __size_of_InitLCD 0032  
                                         ??_gamepadPressed 0013  
                                                 __Hrparam 0000  
                              gamepadPressed@current_portb 001B  
                                                 __Lrparam 0000  
                                              _frisbeeHeld 2800  
                                        ?_isThereAnyPlayer 0001  
                                       ??_isThereAnyPlayer 0005  
                                         __size_of___lwmod 0064  
                                     _ifSelectedPlayerHold 289E  
                           __end_of_LCDAddSpecialCharacter 2EA0  
                                              _npcMove$903 001F  
                                         __size_of_initADC 0024  
                                  __size_of_isValidNPCMove 01EC  
                      ifSelectedPlayerHold@selected_player 0008  
                                         __size_of_npcMove 0450  
                              __size_of_isThereOtherPlayer 00B6  
                                                 __ptext10 2F6E  
                                                 __ptext20 24A8  
                                                 __ptext12 22DE  
                                                 __ptext21 289E  
                                                 __ptext13 1858  
                                                 __ptext30 2BE8  
                                                 __ptext22 1454  
                                                 __ptext14 202A  
                                                 __ptext31 2DCE  
                                                 __ptext23 2D1C  
                                                 __ptext15 1004  
                                                 __ptext32 2A26  
                                                 __ptext24 255E  
                                                 __ptext16 2D78  
                                                 __ptext33 2F92  
                                                 __ptext25 2614  
                                                 __ptext17 2CB8  
                                                 __ptext34 2F80  
                                                 __ptext26 2EA0  
                                                 __ptext18 1E3E  
                                                 __ptext27 2B0C  
                                                 __ptext19 1BA8  
                                                 __ptext28 292E  
                                                 __ptext29 2800  
                                            __size_of_main 009E  
                            throwFrisbee@selected_player_x 0032  
                            throwFrisbee@selected_player_y 0034  
                                                 _target_x 0077  
                                                 _target_y 0075  
                       _selected_teamB_player_with_frisbee 0090  
                                           _previous_portb 0079  
                           ??_hasPlayerLeftFrisbeeLocation 0003  
                                 __end_of_bitChangedToZero 2C52  
                                                 int$flags 007C  
                                    ?_ifSelectedPlayerHold 0001  
                      moveSelectedPlayerPositionOnLCD@oldX 0007  
                      moveSelectedPlayerPositionOnLCD@oldY 0009  
                      moveSelectedPlayerPositionOnLCD@newX 000B  
                      moveSelectedPlayerPositionOnLCD@newY 000D  
                                 __size_of_setInitialState 00DC  
                                               _INTCONbits 000FF2  
                                         _random_generator 2D78  
                                 __end_of_frisbeeHeldOnLCD 2B7C  
                                              _moveFrisbee 1BA8  
                                                 npcMove@i 0025  
                                       npcMove@isValidMove 0023  
                                                 intlevel2 0000  
                                   npcMove@selected_player 0019  
                                         ___lwmod@dividend 0001  
            moveSelectedPlayerPositionOnLCD@selectedPlayer 000F  
                                         _throwFrisbee$871 0030  
                                  __size_of_readADCChannel 009E  
                                    __size_of_throwFrisbee 00EE  
                                     bitChangedToZero@curr 0001  
                                     bitChangedToZero@prev 0006  
                                          ___lwmod@divisor 0003  
                                          ___lwmod@counter 0005  
                           isValidNPCMove@random_direction 000D  
                      switchSelectedPlayer@selected_player 0015  
                                   _gamepad_button_pressed 007A  
                        compute_frisbee_target_and_route@i 0018  
                        compute_frisbee_target_and_route@x 0026  
                        compute_frisbee_target_and_route@y 0028  
                                       gamepadPressed@oldX 0017  
                                       gamepadPressed@oldY 0019  
                                            _display_state 006B  
                                             _throwFrisbee 22DE  
