

Microchip MPLAB XC8 Assembler V2.30 build 20200825195618 
                                                                                               Sat May 27 08:19:30 2023

Microchip MPLAB XC8 C Compiler v2.30 (Free license) build 20200825195618 Og1 
     1                           	processor	18F4620
     2                           	fnconf	rparam,??,?,0
     3                           	pagewidth 120
     4                           	opt	flic
     5                           	psect	idataCOMRAM,global,class=CODE,delta=1,noexec
     6                           	psect	idataBANK0,global,class=CODE,delta=1,noexec
     7                           	psect	idataBANK1,global,class=CODE,delta=1,noexec
     8                           	psect	smallconst,global,reloc=2,class=SMALLCONST,delta=1,noexec
     9                           	psect	cinit,global,reloc=2,class=CODE,delta=1
    10                           	psect	bssCOMRAM,global,class=COMRAM,space=1,delta=1,lowdata,noexec
    11                           	psect	dataCOMRAM,global,class=COMRAM,space=1,delta=1,lowdata,noexec
    12                           	psect	bssBANK0,global,class=BANK0,space=1,delta=1,lowdata,noexec
    13                           	psect	dataBANK0,global,class=BANK0,space=1,delta=1,lowdata,noexec
    14                           	psect	bssBANK1,global,class=BANK1,space=1,delta=1,lowdata,noexec
    15                           	psect	dataBANK1,global,class=BANK1,space=1,delta=1,lowdata,noexec
    16                           	psect	cstackBANK1,global,class=BANK1,space=1,delta=1,lowdata,noexec
    17                           	psect	cstackBANK0,global,class=BANK0,space=1,delta=1,lowdata,noexec
    18                           	psect	cstackCOMRAM,global,class=COMRAM,space=1,delta=1,lowdata,noexec
    19                           	psect	text0,global,reloc=2,class=CODE,delta=1
    20                           	psect	text1,global,reloc=2,class=CODE,delta=1
    21                           	psect	text2,global,reloc=2,class=CODE,delta=1
    22                           	psect	text3,global,reloc=2,class=CODE,delta=1
    23                           	psect	text4,global,reloc=2,class=CODE,delta=1
    24                           	psect	text5,global,reloc=2,class=CODE,delta=1
    25                           	psect	text6,global,reloc=2,class=CODE,delta=1
    26                           	psect	text7,global,reloc=2,class=CODE,delta=1
    27                           	psect	intcode,global,reloc=2,class=CODE,delta=1
    28                           	psect	intcode_body,global,reloc=2,class=CODE,delta=1
    29                           	psect	text9,global,reloc=2,class=CODE,delta=1
    30                           	psect	text10,global,reloc=2,class=CODE,delta=1
    31                           	psect	text11,global,reloc=2,class=CODE,delta=1
    32                           	psect	text12,global,reloc=2,class=CODE,delta=1
    33                           	psect	text13,global,reloc=2,class=CODE,delta=1
    34                           	psect	text14,global,reloc=2,class=CODE,delta=1,group=3
    35                           	psect	text15,global,reloc=2,class=CODE,delta=1,group=1
    36                           	psect	text16,global,reloc=2,class=CODE,delta=1,group=1
    37                           	psect	text17,global,reloc=2,class=CODE,delta=1,group=1
    38                           	psect	text18,global,reloc=2,class=CODE,delta=1,group=1
    39                           	psect	text19,global,reloc=2,class=CODE,delta=1,group=3
    40                           	psect	text20,global,reloc=2,class=CODE,delta=1,group=3
    41                           	psect	text21,global,reloc=2,class=CODE,delta=1,group=3
    42                           	psect	text22,global,reloc=2,class=CODE,delta=1,group=3
    43                           	psect	text23,global,reloc=2,class=CODE,delta=1,group=3
    44                           	psect	text24,global,reloc=2,class=CODE,delta=1,group=2
    45                           	psect	text25,global,reloc=2,class=CODE,delta=1,group=2
    46                           	psect	text26,global,reloc=2,class=CODE,delta=1,group=2
    47                           	psect	intsave_regs,global,class=BIGRAM,space=1,delta=1,noexec
    48                           	psect	rparam,global,class=COMRAM,space=1,delta=1,noexec
    49                           	psect	temp,global,ovrld,common,class=COMRAM,space=1,delta=1
    50                           	psect	idloc,global,abs,ovrld,class=IDLOC,space=5,delta=1,noexec
    51                           	psect	config,global,abs,ovrld,class=CONFIG,space=4,delta=1,noexec
    52  0000                     
    53                           ; Version 2.20
    54                           ; Generated 12/02/2020 GMT
    55                           ; 
    56                           ; Copyright © 2020, Microchip Technology Inc. and its subsidiaries ("Microchip")
    57                           ; All rights reserved.
    58                           ; 
    59                           ; This software is developed by Microchip Technology Inc. and its subsidiaries ("Microch
      +                          ip").
    60                           ; 
    61                           ; Redistribution and use in source and binary forms, with or without modification, are
    62                           ; permitted provided that the following conditions are met:
    63                           ; 
    64                           ;     1. Redistributions of source code must retain the above copyright notice, this lis
      +                          t of
    65                           ;        conditions and the following disclaimer.
    66                           ; 
    67                           ;     2. Redistributions in binary form must reproduce the above copyright notice, this 
      +                          list
    68                           ;        of conditions and the following disclaimer in the documentation and/or other
    69                           ;        materials provided with the distribution.
    70                           ; 
    71                           ;     3. Microchip's name may not be used to endorse or promote products derived from th
      +                          is
    72                           ;        software without specific prior written permission.
    73                           ; 
    74                           ; THIS SOFTWARE IS PROVIDED BY MICROCHIP "AS IS" AND ANY EXPRESS OR IMPLIED WARRANTIES,
    75                           ; INCLUDING, BUT NOT LIMITED TO, THE IMPLIED WARRANTIES OF MERCHANTABILITY AND FITNESS F
      +                          OR
    76                           ; PURPOSE ARE DISCLAIMED.  IN NO EVENT SHALL MICROCHIP BE LIABLE FOR ANY DIRECT, INDIREC
      +                          T,
    77                           ; INCIDENTAL, SPECIAL, EXEMPLARY, OR CONSEQUENTIAL DAMAGES (INCLUDING BUT NOT LIMITED TO
    78                           ; PROCUREMENT OF SUBSTITUTE GOODS OR SERVICES; LOSS OF USE, DATA OR PROFITS; OR BUSINESS
    79                           ; INTERRUPTION) HOWSOEVER CAUSED AND ON ANY THEORY OF LIABILITY, WHETHER IN CONTRACT, ST
      +                          RICT
    80                           ; LIABILITY, OR TORT (INCLUDING NEGLIGENCE OR OTHERWISE) ARISING IN ANY WAY OUT OF THE U
      +                          SE OF
    81                           ; THIS SOFTWARE, EVEN IF ADVISED OF THE POSSIBILITY OF SUCH DAMAGE.
    82                           ; 
    83                           ; 
    84                           ; Code-generator required, PIC18F4620 Definitions
    85                           ; 
    86                           ; SFR Addresses
    87  0000                     
    88                           	psect	idataCOMRAM
    89  002454                     __pidataCOMRAM:
    90                           	callstack 0
    91                           
    92                           ;initializer for _lcd_x
    93  002454  01                 	db	1
    94                           
    95                           	psect	idataBANK0
    96  00216C                     __pidataBANK0:
    97                           	callstack 0
    98                           
    99                           ;initializer for _gameState
   100  00216C  0004               	dw	4
   101  00216E  0002               	dw	2
   102  002170  0003               	dw	3
   103  002172  0003               	dw	3
   104  002174  000E               	dw	14
   105  002176  0002               	dw	2
   106  002178  000E               	dw	14
   107  00217A  0003               	dw	3
   108  00217C  0009               	dw	9
   109  00217E  0002               	dw	2
   110  002180  0000               	dw	0
   111  002182  0000               	dw	0
   112  002184  0000               	dw	0
   113  002186  0000               	dw	0
   114                           
   115                           ;initializer for _dash
   116  002188  40                 	db	64
   117                           
   118                           ;initializer for _lcd_y
   119  002189  01                 	db	1
   120                           
   121                           ;initializer for _frisbee
   122  00218A  0E                 	db	14
   123  00218B  1F                 	db	31
   124  00218C  1F                 	db	31
   125  00218D  1F                 	db	31
   126  00218E  0E                 	db	14
   127  00218F  00                 	db	0
   128  002190  00                 	db	0
   129  002191  00                 	db	0
   130                           
   131                           ;initializer for _selected_teamB_player
   132  002192  11                 	db	17
   133  002193  15                 	db	21
   134  002194  0A                 	db	10
   135  002195  04                 	db	4
   136  002196  0E                 	db	14
   137  002197  1F                 	db	31
   138  002198  0A                 	db	10
   139  002199  1F                 	db	31
   140                           
   141                           ;initializer for _selected_teamA_player
   142  00219A  11                 	db	17
   143  00219B  15                 	db	21
   144  00219C  0A                 	db	10
   145  00219D  04                 	db	4
   146  00219E  04                 	db	4
   147  00219F  04                 	db	4
   148  0021A0  0A                 	db	10
   149  0021A1  1F                 	db	31
   150                           
   151                           ;initializer for _teamB_player
   152  0021A2  11                 	db	17
   153  0021A3  15                 	db	21
   154  0021A4  0A                 	db	10
   155  0021A5  04                 	db	4
   156  0021A6  0E                 	db	14
   157  0021A7  1F                 	db	31
   158  0021A8  0A                 	db	10
   159  0021A9  0A                 	db	10
   160                           
   161                           ;initializer for _teamA_player
   162  0021AA  11                 	db	17
   163  0021AB  15                 	db	21
   164  0021AC  0A                 	db	10
   165  0021AD  04                 	db	4
   166  0021AE  04                 	db	4
   167  0021AF  04                 	db	4
   168  0021B0  0A                 	db	10
   169  0021B1  0A                 	db	10
   170                           
   171                           	psect	idataBANK1
   172  002430                     __pidataBANK1:
   173                           	callstack 0
   174                           
   175                           ;initializer for _digits
   176  002430  3F                 	db	63
   177  002431  06                 	db	6
   178  002432  5B                 	db	91
   179  002433  4F                 	db	79
   180  002434  66                 	db	102
   181  002435  6D                 	db	109
   182  002436  7D                 	db	125
   183  002437  07                 	db	7
   184  002438  7F                 	db	127
   185  002439  6F                 	db	111
   186                           
   187                           ;initializer for _frisbee_target
   188  00243A  0E                 	db	14
   189  00243B  11                 	db	17
   190  00243C  11                 	db	17
   191  00243D  11                 	db	17
   192  00243E  0E                 	db	14
   193  00243F  00                 	db	0
   194  002440  00                 	db	0
   195  002441  00                 	db	0
   196                           
   197                           ;initializer for _selected_teamB_player_with_frisbee
   198  002442  1F                 	db	31
   199  002443  15                 	db	21
   200  002444  0A                 	db	10
   201  002445  04                 	db	4
   202  002446  0E                 	db	14
   203  002447  1F                 	db	31
   204  002448  0A                 	db	10
   205  002449  1F                 	db	31
   206                           
   207                           ;initializer for _selected_teamA_player_with_frisbee
   208  00244A  1F                 	db	31
   209  00244B  15                 	db	21
   210  00244C  0A                 	db	10
   211  00244D  04                 	db	4
   212  00244E  04                 	db	4
   213  00244F  04                 	db	4
   214  002450  0A                 	db	10
   215  002451  1F                 	db	31
   216  0000                     _TMR0	set	4054
   217  0000                     _T0CON	set	4053
   218  0000                     _TRISBbits	set	3987
   219  0000                     _TRISB	set	3987
   220  0000                     _LATA	set	3977
   221  0000                     _PORTA	set	3968
   222  0000                     _TRISA	set	3986
   223  0000                     _PORTBbits	set	3969
   224  0000                     _INTCONbits	set	4082
   225  0000                     _TRISD	set	3989
   226  0000                     _TRISEbits	set	3990
   227  0000                     _PORTD	set	3971
   228  0000                     _PORTEbits	set	3972
   229  0000                     _ADCON2bits	set	4032
   230  0000                     _TRISAbits	set	3986
   231  0000                     _ADCON1bits	set	4033
   232  0000                     _ADRESL	set	4035
   233  0000                     _ADRESH	set	4036
   234  0000                     _PIR1bits	set	3998
   235  0000                     _ADCON0bits	set	4034
   236  0000                     _TMR0IF	set	32658
   237                           
   238                           	psect	smallconst
   239  001000                     __psmallconst:
   240                           	callstack 0
   241  001000  00                 	db	0
   242  001001                     STR_1:
   243  001001  55                 	db	85	;'U'
   244  001002  70                 	db	112	;'p'
   245  001003  64                 	db	100	;'d'
   246  001004  61                 	db	97	;'a'
   247  001005  74                 	db	116	;'t'
   248  001006  69                 	db	105	;'i'
   249  001007  6E                 	db	110	;'n'
   250  001008  67                 	db	103	;'g'
   251  001009  20                 	db	32
   252  00100A  70                 	db	112	;'p'
   253  00100B  6C                 	db	108	;'l'
   254  00100C  61                 	db	97	;'a'
   255  00100D  79                 	db	121	;'y'
   256  00100E  65                 	db	101	;'e'
   257  00100F  72                 	db	114	;'r'
   258  001010  20                 	db	32
   259  001011  70                 	db	112	;'p'
   260  001012  6F                 	db	111	;'o'
   261  001013  73                 	db	115	;'s'
   262  001014  69                 	db	105	;'i'
   263  001015  74                 	db	116	;'t'
   264  001016  69                 	db	105	;'i'
   265  001017  6F                 	db	111	;'o'
   266  001018  6E                 	db	110	;'n'
   267  001019  20                 	db	32
   268  00101A  66                 	db	102	;'f'
   269  00101B  72                 	db	114	;'r'
   270  00101C  6F                 	db	111	;'o'
   271  00101D  6D                 	db	109	;'m'
   272  00101E  20                 	db	32
   273  00101F  28                 	db	40
   274  001020  25                 	db	37
   275  001021  64                 	db	100	;'d'
   276  001022  2C                 	db	44
   277  001023  20                 	db	32
   278  001024  25                 	db	37
   279  001025  64                 	db	100	;'d'
   280  001026  29                 	db	41
   281  001027  20                 	db	32
   282  001028  74                 	db	116	;'t'
   283  001029  6F                 	db	111	;'o'
   284  00102A  20                 	db	32
   285  00102B  28                 	db	40
   286  00102C  25                 	db	37
   287  00102D  64                 	db	100	;'d'
   288  00102E  2C                 	db	44
   289  00102F  20                 	db	32
   290  001030  25                 	db	37
   291  001031  64                 	db	100	;'d'
   292  001032  29                 	db	41
   293  001033  0A                 	db	10
   294  001034  00                 	db	0
   295  001035  00                 	db	0	; dummy byte at the end
   296  0000                     
   297                           ; #config settings
   298                           
   299                           	psect	cinit
   300  001F96                     __pcinit:
   301                           	callstack 0
   302  001F96                     start_initialization:
   303                           	callstack 0
   304  001F96                     __initialization:
   305                           	callstack 0
   306                           
   307                           ; Initialize objects allocated to BANK1 (34 bytes)
   308                           ; load TBLPTR registers with __pidataBANK1
   309  001F96  0E30               	movlw	low __pidataBANK1
   310  001F98  6EF6               	movwf	tblptrl,c
   311  001F9A  0E24               	movlw	high __pidataBANK1
   312  001F9C  6EF7               	movwf	tblptrh,c
   313  001F9E  0E00               	movlw	low (__pidataBANK1 shr (0+16))
   314  001FA0  6EF8               	movwf	tblptru,c
   315  001FA2  EE01  F066         	lfsr	0,__pdataBANK1
   316  001FA6  EE10 F022          	lfsr	1,34
   317  001FAA                     copy_data0:
   318  001FAA  0009               	tblrd		*+
   319  001FAC  CFF5 FFEE          	movff	tablat,postinc0
   320  001FB0  50E5               	movf	postdec1,w,c
   321  001FB2  50E1               	movf	fsr1l,w,c
   322  001FB4  E1FA               	bnz	copy_data0
   323                           
   324                           ; Initialize objects allocated to BANK0 (70 bytes)
   325                           ; load TBLPTR registers with __pidataBANK0
   326  001FB6  0E6C               	movlw	low __pidataBANK0
   327  001FB8  6EF6               	movwf	tblptrl,c
   328  001FBA  0E21               	movlw	high __pidataBANK0
   329  001FBC  6EF7               	movwf	tblptrh,c
   330  001FBE  0E00               	movlw	low (__pidataBANK0 shr (0+16))
   331  001FC0  6EF8               	movwf	tblptru,c
   332  001FC2  EE00  F080         	lfsr	0,__pdataBANK0
   333  001FC6  EE10 F046          	lfsr	1,70
   334  001FCA                     copy_data1:
   335  001FCA  0009               	tblrd		*+
   336  001FCC  CFF5 FFEE          	movff	tablat,postinc0
   337  001FD0  50E5               	movf	postdec1,w,c
   338  001FD2  50E1               	movf	fsr1l,w,c
   339  001FD4  E1FA               	bnz	copy_data1
   340                           
   341                           ; Initialize objects allocated to COMRAM (1 bytes)
   342                           ; load TBLPTR registers with __pidataCOMRAM
   343  001FD6  0E54               	movlw	low __pidataCOMRAM
   344  001FD8  6EF6               	movwf	tblptrl,c
   345  001FDA  0E24               	movlw	high __pidataCOMRAM
   346  001FDC  6EF7               	movwf	tblptrh,c
   347  001FDE  0E00               	movlw	low (__pidataCOMRAM shr (0+16))
   348  001FE0  6EF8               	movwf	tblptru,c
   349  001FE2  0009               	tblrd		*+	;fetch initializer
   350  001FE4  CFF5 F07E          	movff	tablat,__pdataCOMRAM
   351                           
   352                           ; Clear objects allocated to BANK1 (102 bytes)
   353  001FE8  EE01  F000         	lfsr	0,__pbssBANK1
   354  001FEC  0E66               	movlw	102
   355  001FEE                     clear_0:
   356  001FEE  6AEE               	clrf	postinc0,c
   357  001FF0  06E8               	decf	wreg,f,c
   358  001FF2  E1FD               	bnz	clear_0
   359                           
   360                           ; Clear objects allocated to BANK0 (19 bytes)
   361  001FF4  EE00  F0DB         	lfsr	0,__pbssBANK0
   362  001FF8  0E13               	movlw	19
   363  001FFA                     clear_1:
   364  001FFA  6AEE               	clrf	postinc0,c
   365  001FFC  06E8               	decf	wreg,f,c
   366  001FFE  E1FD               	bnz	clear_1
   367                           
   368                           ; Clear objects allocated to COMRAM (4 bytes)
   369  002000  6A7D               	clrf	(__pbssCOMRAM+3)& (0+255),c
   370  002002  6A7C               	clrf	(__pbssCOMRAM+2)& (0+255),c
   371  002004  6A7B               	clrf	(__pbssCOMRAM+1)& (0+255),c
   372  002006  6A7A               	clrf	__pbssCOMRAM& (0+255),c
   373  002008                     end_of_initialization:
   374                           	callstack 0
   375  002008                     __end_of__initialization:
   376                           	callstack 0
   377  002008  907F               	bcf	int$flags,0,c	;clear compiler interrupt flag (level 1)
   378  00200A  927F               	bcf	int$flags,1,c	;clear compiler interrupt flag (level 2)
   379  00200C  0E00               	movlw	low (__Lmediumconst shr (0+16))
   380  00200E  6EF8               	movwf	tblptru,c
   381  002010  0100               	movlb	0
   382  002012  EFA6  F00D         	goto	_main	;jump to C main() function
   383                           
   384                           	psect	bssCOMRAM
   385  00007A                     __pbssCOMRAM:
   386                           	callstack 0
   387  00007A                     _flags:
   388                           	callstack 0
   389  00007A                     	ds	2
   390  00007C                     _display_state:
   391                           	callstack 0
   392  00007C                     	ds	2
   393                           
   394                           	psect	dataCOMRAM
   395  00007E                     __pdataCOMRAM:
   396                           	callstack 0
   397  00007E                     _lcd_x:
   398                           	callstack 0
   399  00007E                     	ds	1
   400                           
   401                           	psect	bssBANK0
   402  0000DB                     __pbssBANK0:
   403                           	callstack 0
   404  0000DB                     FNC@last_interrupt_time:
   405                           	callstack 0
   406  0000DB                     	ds	4
   407  0000DF                     _nout:
   408                           	callstack 0
   409  0000DF                     	ds	2
   410  0000E1                     _width:
   411                           	callstack 0
   412  0000E1                     	ds	2
   413  0000E3                     _prec:
   414                           	callstack 0
   415  0000E3                     	ds	2
   416  0000E5                     _CONVERT:
   417                           	callstack 0
   418  0000E5                     	ds	1
   419  0000E6                     _empty:
   420                           	callstack 0
   421  0000E6                     	ds	8
   422                           
   423                           	psect	dataBANK0
   424  000080                     __pdataBANK0:
   425                           	callstack 0
   426  000080                     _gameState:
   427                           	callstack 0
   428  000080                     	ds	28
   429  00009C                     _dash:
   430                           	callstack 0
   431  00009C                     	ds	1
   432  00009D                     _lcd_y:
   433                           	callstack 0
   434  00009D                     	ds	1
   435  00009E                     _frisbee:
   436                           	callstack 0
   437  00009E                     	ds	8
   438  0000A6                     _selected_teamB_player:
   439                           	callstack 0
   440  0000A6                     	ds	8
   441  0000AE                     _selected_teamA_player:
   442                           	callstack 0
   443  0000AE                     	ds	8
   444  0000B6                     _teamB_player:
   445                           	callstack 0
   446  0000B6                     	ds	8
   447  0000BE                     _teamA_player:
   448                           	callstack 0
   449  0000BE                     	ds	8
   450                           
   451                           	psect	bssBANK1
   452  000100                     __pbssBANK1:
   453                           	callstack 0
   454  000100                     _frisbee_steps:
   455                           	callstack 0
   456  000100                     	ds	60
   457  00013C                     	ds	10
   458  000146                     _dbuf:
   459                           	callstack 0
   460  000146                     	ds	32
   461                           
   462                           	psect	dataBANK1
   463  000166                     __pdataBANK1:
   464                           	callstack 0
   465  000166                     _digits:
   466                           	callstack 0
   467  000166                     	ds	10
   468  000170                     _frisbee_target:
   469                           	callstack 0
   470  000170                     	ds	8
   471  000178                     _selected_teamB_player_with_frisbee:
   472                           	callstack 0
   473  000178                     	ds	8
   474  000180                     _selected_teamA_player_with_frisbee:
   475                           	callstack 0
   476  000180                     	ds	8
   477                           
   478                           	psect	cstackBANK1
   479  000188                     __pcstackBANK1:
   480                           	callstack 0
   481  000188                     ??_readADCChannel:
   482  000188                     LCDGoto@p_2:
   483                           	callstack 0
   484  000188                     LCDAddSpecialCharacter@data:
   485                           	callstack 0
   486                           
   487                           ; 2 bytes @ 0x0
   488  000188                     	ds	2
   489  00018A                     LCDAddSpecialCharacter@character_index:
   490                           	callstack 0
   491                           
   492                           ; 1 bytes @ 0x2
   493  00018A                     	ds	1
   494  00018B                     LCDAddSpecialCharacter@i:
   495                           	callstack 0
   496                           
   497                           ; 1 bytes @ 0x3
   498  00018B                     	ds	1
   499  00018C                     main@values:
   500                           	callstack 0
   501                           
   502                           ; 10 bytes @ 0x4
   503  00018C                     	ds	10
   504                           
   505                           	psect	cstackBANK0
   506  0000C6                     __pcstackBANK0:
   507                           	callstack 0
   508  0000C6                     ??_FNC:
   509                           
   510                           ; 1 bytes @ 0x0
   511  0000C6                     	ds	18
   512  0000D8                     ??_LCDCmd:
   513  0000D8                     ??_LCDDat:
   514  0000D8                     ?_readADCChannel:
   515                           	callstack 0
   516                           
   517                           ; 2 bytes @ 0x12
   518  0000D8                     	ds	1
   519  0000D9                     LCDCmd@cmd:
   520                           	callstack 0
   521  0000D9                     LCDDat@dat:
   522                           	callstack 0
   523                           
   524                           ; 1 bytes @ 0x13
   525  0000D9                     	ds	1
   526  0000DA                     readADCChannel@channel:
   527                           	callstack 0
   528  0000DA                     LCDGoto@p_1:
   529                           	callstack 0
   530                           
   531                           ; 1 bytes @ 0x14
   532  0000DA                     	ds	1
   533  0000DB                     
   534                           ; 1 bytes @ 0x15
   535                           
   536                           	psect	cstackCOMRAM
   537  000001                     __pcstackCOMRAM:
   538                           	callstack 0
   539  000001                     ??i2_LCDCmd:
   540  000001                     ??i2_LCDDat:
   541  000001                     ?_millis:
   542  000001                     ?_strlen:
   543                           	callstack 0
   544  000001                     ?___awmod:
   545                           	callstack 0
   546  000001                     ?___aodiv:
   547                           	callstack 0
   548  000001                     ?___aomod:
   549                           	callstack 0
   550  000001                     ___awmod@dividend:
   551                           	callstack 0
   552  000001                     fputc@c:
   553                           	callstack 0
   554  000001                     strlen@s:
   555                           	callstack 0
   556  000001                     ___aodiv@dividend:
   557                           	callstack 0
   558  000001                     ___aomod@dividend:
   559                           	callstack 0
   560                           
   561                           ; 8 bytes @ 0x0
   562  000001                     	ds	1
   563  000002                     i2LCDCmd@cmd:
   564                           	callstack 0
   565  000002                     i2LCDDat@dat:
   566                           	callstack 0
   567                           
   568                           ; 1 bytes @ 0x1
   569  000002                     	ds	1
   570  000003                     i2LCDGoto@p_1:
   571                           	callstack 0
   572  000003                     ___awmod@divisor:
   573                           	callstack 0
   574  000003                     fputc@fp:
   575                           	callstack 0
   576  000003                     strlen@a:
   577                           	callstack 0
   578  000003                     i2LCDAddSpecialCharacter@data:
   579                           	callstack 0
   580                           
   581                           ; 2 bytes @ 0x2
   582  000003                     	ds	1
   583  000004                     i2LCDGoto@p_2:
   584                           	callstack 0
   585                           
   586                           ; 1 bytes @ 0x3
   587  000004                     	ds	1
   588  000005                     ??_fputc:
   589  000005                     ___awmod@counter:
   590                           	callstack 0
   591  000005                     i2LCDAddSpecialCharacter@character_index:
   592                           	callstack 0
   593                           
   594                           ; 1 bytes @ 0x4
   595  000005                     	ds	1
   596  000006                     ___awmod@sign:
   597                           	callstack 0
   598  000006                     i2LCDAddSpecialCharacter@i:
   599                           	callstack 0
   600                           
   601                           ; 1 bytes @ 0x5
   602  000006                     	ds	3
   603  000009                     ___aodiv@divisor:
   604                           	callstack 0
   605  000009                     ___aomod@divisor:
   606                           	callstack 0
   607                           
   608                           ; 8 bytes @ 0x8
   609  000009                     	ds	1
   610  00000A                     fputs@s:
   611                           	callstack 0
   612                           
   613                           ; 2 bytes @ 0x9
   614  00000A                     	ds	2
   615  00000C                     fputs@fp:
   616                           	callstack 0
   617                           
   618                           ; 2 bytes @ 0xB
   619  00000C                     	ds	2
   620  00000E                     fputs@c:
   621                           	callstack 0
   622                           
   623                           ; 1 bytes @ 0xD
   624  00000E                     	ds	1
   625  00000F                     fputs@i:
   626                           	callstack 0
   627                           
   628                           ; 2 bytes @ 0xE
   629  00000F                     	ds	2
   630  000011                     ?_pad:
   631                           	callstack 0
   632  000011                     ___aodiv@counter:
   633                           	callstack 0
   634  000011                     ___aomod@counter:
   635                           	callstack 0
   636  000011                     pad@fp:
   637                           	callstack 0
   638                           
   639                           ; 2 bytes @ 0x10
   640  000011                     	ds	1
   641  000012                     ___aodiv@sign:
   642                           	callstack 0
   643  000012                     ___aomod@sign:
   644                           	callstack 0
   645                           
   646                           ; 1 bytes @ 0x11
   647  000012                     	ds	1
   648  000013                     ?_abs:
   649                           	callstack 0
   650  000013                     pad@buf:
   651                           	callstack 0
   652  000013                     abs@a:
   653                           	callstack 0
   654  000013                     ___aodiv@quotient:
   655                           	callstack 0
   656                           
   657                           ; 8 bytes @ 0x12
   658  000013                     	ds	2
   659  000015                     ??_abs:
   660  000015                     pad@p:
   661                           	callstack 0
   662                           
   663                           ; 2 bytes @ 0x14
   664  000015                     	ds	2
   665  000017                     ??_pad:
   666                           
   667                           ; 1 bytes @ 0x16
   668  000017                     	ds	1
   669  000018                     pad@i:
   670                           	callstack 0
   671                           
   672                           ; 2 bytes @ 0x17
   673  000018                     	ds	2
   674  00001A                     pad@w:
   675                           	callstack 0
   676                           
   677                           ; 2 bytes @ 0x19
   678  00001A                     	ds	2
   679  00001C                     ?_dtoa:
   680                           	callstack 0
   681  00001C                     dtoa@fp:
   682                           	callstack 0
   683                           
   684                           ; 2 bytes @ 0x1B
   685  00001C                     	ds	2
   686  00001E                     dtoa@d:
   687                           	callstack 0
   688                           
   689                           ; 8 bytes @ 0x1D
   690  00001E                     	ds	8
   691  000026                     ??_dtoa:
   692                           
   693                           ; 1 bytes @ 0x25
   694  000026                     	ds	8
   695  00002E                     _dtoa$1233:
   696                           	callstack 0
   697                           
   698                           ; 2 bytes @ 0x2D
   699  00002E                     	ds	2
   700  000030                     dtoa@p:
   701                           	callstack 0
   702                           
   703                           ; 2 bytes @ 0x2F
   704  000030                     	ds	2
   705  000032                     dtoa@w:
   706                           	callstack 0
   707                           
   708                           ; 2 bytes @ 0x31
   709  000032                     	ds	2
   710  000034                     dtoa@s:
   711                           	callstack 0
   712                           
   713                           ; 2 bytes @ 0x33
   714  000034                     	ds	2
   715  000036                     dtoa@n:
   716                           	callstack 0
   717                           
   718                           ; 8 bytes @ 0x35
   719  000036                     	ds	8
   720  00003E                     dtoa@i:
   721                           	callstack 0
   722                           
   723                           ; 2 bytes @ 0x3D
   724  00003E                     	ds	2
   725  000040                     ?_vfpfcnvrt:
   726                           	callstack 0
   727  000040                     vfpfcnvrt@fp:
   728                           	callstack 0
   729                           
   730                           ; 2 bytes @ 0x3F
   731  000040                     	ds	2
   732  000042                     vfpfcnvrt@fmt:
   733                           	callstack 0
   734                           
   735                           ; 2 bytes @ 0x41
   736  000042                     	ds	2
   737  000044                     vfpfcnvrt@ap:
   738                           	callstack 0
   739                           
   740                           ; 2 bytes @ 0x43
   741  000044                     	ds	2
   742  000046                     ??_vfpfcnvrt:
   743                           
   744                           ; 1 bytes @ 0x45
   745  000046                     	ds	2
   746  000048                     vfpfcnvrt@ll:
   747                           	callstack 0
   748                           
   749                           ; 8 bytes @ 0x47
   750  000048                     	ds	8
   751  000050                     ?_vfprintf:
   752                           	callstack 0
   753  000050                     vfprintf@fp:
   754                           	callstack 0
   755                           
   756                           ; 2 bytes @ 0x4F
   757  000050                     	ds	2
   758  000052                     vfprintf@fmt:
   759                           	callstack 0
   760                           
   761                           ; 2 bytes @ 0x51
   762  000052                     	ds	2
   763  000054                     vfprintf@ap:
   764                           	callstack 0
   765                           
   766                           ; 2 bytes @ 0x53
   767  000054                     	ds	2
   768  000056                     vfprintf@cfmt:
   769                           	callstack 0
   770                           
   771                           ; 2 bytes @ 0x55
   772  000056                     	ds	2
   773  000058                     ?_printf:
   774                           	callstack 0
   775  000058                     printf@fmt:
   776                           	callstack 0
   777                           
   778                           ; 2 bytes @ 0x57
   779  000058                     	ds	10
   780  000062                     
   781                           ; 1 bytes @ 0x61
   782  000062                     	ds	2
   783  000064                     printf@ap:
   784                           	callstack 0
   785                           
   786                           ; 2 bytes @ 0x63
   787  000064                     	ds	2
   788  000066                     updatePlayerPositionOnLCD@oldX:
   789                           	callstack 0
   790                           
   791                           ; 2 bytes @ 0x65
   792  000066                     	ds	2
   793  000068                     updatePlayerPositionOnLCD@oldY:
   794                           	callstack 0
   795                           
   796                           ; 2 bytes @ 0x67
   797  000068                     	ds	2
   798  00006A                     updatePlayerPositionOnLCD@newX:
   799                           	callstack 0
   800                           
   801                           ; 2 bytes @ 0x69
   802  00006A                     	ds	2
   803  00006C                     updatePlayerPositionOnLCD@newY:
   804                           	callstack 0
   805                           
   806                           ; 2 bytes @ 0x6B
   807  00006C                     	ds	2
   808  00006E                     updatePlayerPositionOnLCD@selectedPlayer:
   809                           	callstack 0
   810                           
   811                           ; 2 bytes @ 0x6D
   812  00006E                     	ds	2
   813  000070                     _updatePlayerPositionOnLCD$674:
   814                           	callstack 0
   815                           
   816                           ; 2 bytes @ 0x6F
   817  000070                     	ds	2
   818  000072                     FNC@oldX:
   819                           	callstack 0
   820                           
   821                           ; 2 bytes @ 0x71
   822  000072                     	ds	2
   823  000074                     FNC@oldY:
   824                           	callstack 0
   825                           
   826                           ; 2 bytes @ 0x73
   827  000074                     	ds	2
   828  000076                     FNC@interrupt_time:
   829                           	callstack 0
   830                           
   831                           ; 4 bytes @ 0x75
   832  000076                     	ds	4
   833                           
   834 ;;
   835 ;;Main: autosize = 0, tempsize = 0, incstack = 0, save=0
   836 ;;
   837 ;; *************** function _main *****************
   838 ;; Defined at:
   839 ;;		line 165 in file "newmain.c"
   840 ;; Parameters:    Size  Location     Type
   841 ;;		None
   842 ;; Auto vars:     Size  Location     Type
   843 ;;  values         10    4[BANK1 ] unsigned char [10]
   844 ;;  convertion      2    0        unsigned short 
   845 ;; Return value:  Size  Location     Type
   846 ;;                  1    wreg      void 
   847 ;; Registers used:
   848 ;;		wreg, fsr2l, fsr2h, status,2, status,0, prodl, prodh, cstack
   849 ;; Tracked objects:
   850 ;;		On entry : 0/0
   851 ;;		On exit  : 0/0
   852 ;;		Unchanged: 0/0
   853 ;; Data sizes:     COMRAM   BANK0   BANK1   BANK2   BANK3   BANK4   BANK5   BANK6   BANK7   BANK8   BANK9  BANK10  BANK1
      +1  BANK12  BANK13  BANK14  BANK15
   854 ;;      Params:         0       0       0       0       0       0       0       0       0       0       0       0       
      +0       0       0       0       0
   855 ;;      Locals:         0       0      12       0       0       0       0       0       0       0       0       0       
      +0       0       0       0       0
   856 ;;      Temps:          0       0       0       0       0       0       0       0       0       0       0       0       
      +0       0       0       0       0
   857 ;;      Totals:         0       0      12       0       0       0       0       0       0       0       0       0       
      +0       0       0       0       0
   858 ;;Total ram usage:       12 bytes
   859 ;; Hardware stack levels required when called:   12
   860 ;; This function calls:
   861 ;;		_InitLCD
   862 ;;		_LCDAddSpecialCharacter
   863 ;;		_LCDDat
   864 ;;		_LCDGoto
   865 ;;		_initADC
   866 ;;		_readADCChannel
   867 ;; This function is called by:
   868 ;;		Startup code after reset
   869 ;; This function uses a non-reentrant model
   870 ;;
   871                           
   872                           	psect	text0
   873  001B4C                     __ptext0:
   874                           	callstack 0
   875  001B4C                     _main:
   876                           	callstack 19
   877  001B4C                     
   878                           ;newmain.c: 167:     initADC();
   879  001B4C  EC06  F012         	call	_initADC	;wreg free
   880  001B50                     
   881                           ;newmain.c: 169:     InitLCD();
   882  001B50  ECA9  F011         	call	_InitLCD	;wreg free
   883                           
   884                           ;newmain.c: 170:     TRISB = 0;
   885  001B54  0E00               	movlw	0
   886  001B56  6E93               	movwf	147,c	;volatile
   887  001B58                     
   888                           ;newmain.c: 185:     LCDAddSpecialCharacter(0, selected_teamA_player);
   889  001B58  0EAE               	movlw	low _selected_teamA_player
   890  001B5A  0101               	movlb	1	; () banked
   891  001B5C  6F88               	movwf	LCDAddSpecialCharacter@data& (0+255),b
   892  001B5E  0E00               	movlw	high _selected_teamA_player
   893  001B60  6F89               	movwf	(LCDAddSpecialCharacter@data+1)& (0+255),b
   894  001B62  0E00               	movlw	0
   895  001B64  ECFB  F010         	call	_LCDAddSpecialCharacter
   896  001B68                     
   897                           ;newmain.c: 186:     LCDAddSpecialCharacter(1, teamA_player);
   898  001B68  0EBE               	movlw	low _teamA_player
   899  001B6A  0101               	movlb	1	; () banked
   900  001B6C  6F88               	movwf	LCDAddSpecialCharacter@data& (0+255),b
   901  001B6E  0E00               	movlw	high _teamA_player
   902  001B70  6F89               	movwf	(LCDAddSpecialCharacter@data+1)& (0+255),b
   903  001B72  0E01               	movlw	1
   904  001B74  ECFB  F010         	call	_LCDAddSpecialCharacter
   905  001B78                     
   906                           ;newmain.c: 187:     LCDAddSpecialCharacter(2, teamB_player);
   907  001B78  0EB6               	movlw	low _teamB_player
   908  001B7A  0101               	movlb	1	; () banked
   909  001B7C  6F88               	movwf	LCDAddSpecialCharacter@data& (0+255),b
   910  001B7E  0E00               	movlw	high _teamB_player
   911  001B80  6F89               	movwf	(LCDAddSpecialCharacter@data+1)& (0+255),b
   912  001B82  0E02               	movlw	2
   913  001B84  ECFB  F010         	call	_LCDAddSpecialCharacter
   914  001B88                     
   915                           ;newmain.c: 188:     LCDAddSpecialCharacter(3, teamB_player);
   916  001B88  0EB6               	movlw	low _teamB_player
   917  001B8A  0101               	movlb	1	; () banked
   918  001B8C  6F88               	movwf	LCDAddSpecialCharacter@data& (0+255),b
   919  001B8E  0E00               	movlw	high _teamB_player
   920  001B90  6F89               	movwf	(LCDAddSpecialCharacter@data+1)& (0+255),b
   921  001B92  0E03               	movlw	3
   922  001B94  ECFB  F010         	call	_LCDAddSpecialCharacter
   923  001B98                     
   924                           ;newmain.c: 189:     LCDAddSpecialCharacter(4, frisbee);
   925  001B98  0E9E               	movlw	low _frisbee
   926  001B9A  0101               	movlb	1	; () banked
   927  001B9C  6F88               	movwf	LCDAddSpecialCharacter@data& (0+255),b
   928  001B9E  0E00               	movlw	high _frisbee
   929  001BA0  6F89               	movwf	(LCDAddSpecialCharacter@data+1)& (0+255),b
   930  001BA2  0E04               	movlw	4
   931  001BA4  ECFB  F010         	call	_LCDAddSpecialCharacter
   932  001BA8                     
   933                           ;newmain.c: 190:     LCDGoto(3, 2);
   934  001BA8  0E02               	movlw	2
   935  001BAA  0100               	movlb	0	; () banked
   936  001BAC  6FDA               	movwf	LCDGoto@p_1& (0+255),b
   937  001BAE  0E03               	movlw	3
   938  001BB0  EC0B  F010         	call	_LCDGoto
   939  001BB4                     
   940                           ;newmain.c: 191:     LCDDat(0);
   941  001BB4  0E00               	movlw	0
   942  001BB6  EC3B  F011         	call	_LCDDat
   943  001BBA                     
   944                           ;newmain.c: 192:     LCDGoto(3, 3);
   945  001BBA  0E03               	movlw	3
   946  001BBC  0100               	movlb	0	; () banked
   947  001BBE  6FDA               	movwf	LCDGoto@p_1& (0+255),b
   948  001BC0  0E03               	movlw	3
   949  001BC2  EC0B  F010         	call	_LCDGoto
   950  001BC6                     
   951                           ;newmain.c: 193:     LCDDat(1);
   952  001BC6  0E01               	movlw	1
   953  001BC8  EC3B  F011         	call	_LCDDat
   954  001BCC                     
   955                           ;newmain.c: 195:     LCDGoto(14, 2);
   956  001BCC  0E02               	movlw	2
   957  001BCE  0100               	movlb	0	; () banked
   958  001BD0  6FDA               	movwf	LCDGoto@p_1& (0+255),b
   959  001BD2  0E0E               	movlw	14
   960  001BD4  EC0B  F010         	call	_LCDGoto
   961  001BD8                     
   962                           ;newmain.c: 196:     LCDDat(2);
   963  001BD8  0E02               	movlw	2
   964  001BDA  EC3B  F011         	call	_LCDDat
   965  001BDE                     
   966                           ;newmain.c: 198:     LCDGoto(14, 3);
   967  001BDE  0E03               	movlw	3
   968  001BE0  0100               	movlb	0	; () banked
   969  001BE2  6FDA               	movwf	LCDGoto@p_1& (0+255),b
   970  001BE4  0E0E               	movlw	14
   971  001BE6  EC0B  F010         	call	_LCDGoto
   972  001BEA                     
   973                           ;newmain.c: 199:     LCDDat(3);
   974  001BEA  0E03               	movlw	3
   975  001BEC  EC3B  F011         	call	_LCDDat
   976  001BF0                     
   977                           ;newmain.c: 201:     LCDGoto(9, 2);
   978  001BF0  0E02               	movlw	2
   979  001BF2  0100               	movlb	0	; () banked
   980  001BF4  6FDA               	movwf	LCDGoto@p_1& (0+255),b
   981  001BF6  0E09               	movlw	9
   982  001BF8  EC0B  F010         	call	_LCDGoto
   983  001BFC                     
   984                           ;newmain.c: 202:     LCDDat(4);
   985  001BFC  0E04               	movlw	4
   986  001BFE  EC3B  F011         	call	_LCDDat
   987  001C02                     
   988                           ;newmain.c: 206:     char values[10] = {0};
   989  001C02  EE21  F08C         	lfsr	2,main@values
   990  001C06  0E09               	movlw	9
   991  001C08                     u1811:
   992  001C08  6ADE               	clrf	postinc2,c
   993  001C0A  06E8               	decf	wreg,f,c
   994  001C0C  E2FD               	bc	u1811
   995  001C0E                     
   996                           ;newmain.c: 209:     TRISBbits.RB0 = 1;
   997  001C0E  8093               	bsf	147,0,c	;volatile
   998  001C10                     
   999                           ;newmain.c: 210:     TRISBbits.RB4 = 1;
  1000  001C10  8893               	bsf	147,4,c	;volatile
  1001  001C12                     
  1002                           ;newmain.c: 211:     TRISBbits.RB5 = 1;
  1003  001C12  8A93               	bsf	147,5,c	;volatile
  1004  001C14                     
  1005                           ;newmain.c: 212:     TRISBbits.RB6 = 1;
  1006  001C14  8C93               	bsf	147,6,c	;volatile
  1007  001C16                     
  1008                           ;newmain.c: 213:     TRISBbits.RB7 = 1;
  1009  001C16  8E93               	bsf	147,7,c	;volatile
  1010  001C18                     
  1011                           ;newmain.c: 216:     INTCONbits.RBIE = 1;
  1012  001C18  86F2               	bsf	242,3,c	;volatile
  1013  001C1A                     
  1014                           ;newmain.c: 219:     INTCONbits.RBIF = 0;
  1015  001C1A  90F2               	bcf	242,0,c	;volatile
  1016  001C1C                     
  1017                           ;newmain.c: 225:     INTCONbits.INT0IE = 1;
  1018  001C1C  88F2               	bsf	242,4,c	;volatile
  1019  001C1E                     
  1020                           ;newmain.c: 226:     INTCONbits.INT0IF = 0;
  1021  001C1E  92F2               	bcf	242,1,c	;volatile
  1022  001C20                     
  1023                           ;newmain.c: 227:     INTCONbits.GIE = 1;
  1024  001C20  8EF2               	bsf	242,7,c	;volatile
  1025  001C22                     
  1026                           ;newmain.c: 228:     INTCONbits.PEIE = 1;
  1027  001C22  8CF2               	bsf	242,6,c	;volatile
  1028  001C24                     
  1029                           ;newmain.c: 229:     INTCONbits.TMR0IE = 1;
  1030  001C24  8AF2               	bsf	242,5,c	;volatile
  1031  001C26                     
  1032                           ;newmain.c: 231:     T0CON = 0b11000111;
  1033  001C26  0EC7               	movlw	199
  1034  001C28  6ED5               	movwf	213,c	;volatile
  1035  001C2A                     l2593:
  1036                           
  1037                           ;newmain.c: 233:     {;newmain.c: 234:         if(CONVERT == 1)
  1038  001C2A  0100               	movlb	0	; () banked
  1039  001C2C  05E5               	decf	_CONVERT& (0+255),w,b	;volatile
  1040  001C2E  A4D8               	btfss	status,2,c
  1041  001C30  EF1C  F00E         	goto	u1821
  1042  001C34  EF1E  F00E         	goto	u1820
  1043  001C38                     u1821:
  1044  001C38  EF15  F00E         	goto	l2593
  1045  001C3C                     u1820:
  1046  001C3C                     
  1047                           ; BSR set to: 0
  1048  001C3C  0E00               	movlw	0
  1049  001C3E  ECE1  F00E         	call	_readADCChannel
  1050  001C42                     
  1051                           ;newmain.c: 241:             CONVERT = 0;
  1052  001C42  0E00               	movlw	0
  1053  001C44  0100               	movlb	0	; () banked
  1054  001C46  6FE5               	movwf	_CONVERT& (0+255),b	;volatile
  1055  001C48  EF15  F00E         	goto	l2593
  1056  001C4C  EF03  F000         	goto	start
  1057  001C50                     __end_of_main:
  1058                           	callstack 0
  1059                           
  1060 ;; *************** function _readADCChannel *****************
  1061 ;; Defined at:
  1062 ;;		line 13 in file "./ADC.h"
  1063 ;; Parameters:    Size  Location     Type
  1064 ;;  channel         1    wreg     unsigned char 
  1065 ;; Auto vars:     Size  Location     Type
  1066 ;;  channel         1   20[BANK0 ] unsigned char 
  1067 ;; Return value:  Size  Location     Type
  1068 ;;                  2   18[BANK0 ] unsigned short 
  1069 ;; Registers used:
  1070 ;;		wreg, status,2, status,0
  1071 ;; Tracked objects:
  1072 ;;		On entry : 0/0
  1073 ;;		On exit  : 0/0
  1074 ;;		Unchanged: 0/0
  1075 ;; Data sizes:     COMRAM   BANK0   BANK1   BANK2   BANK3   BANK4   BANK5   BANK6   BANK7   BANK8   BANK9  BANK10  BANK1
      +1  BANK12  BANK13  BANK14  BANK15
  1076 ;;      Params:         0       2       0       0       0       0       0       0       0       0       0       0       
      +0       0       0       0       0
  1077 ;;      Locals:         0       1       0       0       0       0       0       0       0       0       0       0       
      +0       0       0       0       0
  1078 ;;      Temps:          0       0       2       0       0       0       0       0       0       0       0       0       
      +0       0       0       0       0
  1079 ;;      Totals:         0       3       2       0       0       0       0       0       0       0       0       0       
      +0       0       0       0       0
  1080 ;;Total ram usage:        5 bytes
  1081 ;; Hardware stack levels used:    1
  1082 ;; Hardware stack levels required when called:   10
  1083 ;; This function calls:
  1084 ;;		Nothing
  1085 ;; This function is called by:
  1086 ;;		_main
  1087 ;; This function uses a non-reentrant model
  1088 ;;
  1089                           
  1090                           	psect	text1
  1091  001DC2                     __ptext1:
  1092                           	callstack 0
  1093  001DC2                     _readADCChannel:
  1094                           	callstack 20
  1095                           
  1096                           ; BSR set to: 0
  1097                           ;incstack = 0
  1098                           ;readADCChannel@channel stored from wreg
  1099  001DC2  0100               	movlb	0	; () banked
  1100  001DC4  6FDA               	movwf	readADCChannel@channel& (0+255),b
  1101  001DC6                     
  1102                           ;./ADC.h: 13:     unsigned short readADCChannel(unsigned char channel);./ADC.h: 14:     
      +                          {;./ADC.h: 16:         ADCON0bits.CHS0 = channel & 0x1;
  1103  001DC6  C0DA  F188         	movff	readADCChannel@channel,??_readADCChannel
  1104  001DCA  0E01               	movlw	1
  1105  001DCC  0101               	movlb	1	; () banked
  1106  001DCE  1788               	andwf	??_readADCChannel& (0+255),f,b
  1107  001DD0  4788               	rlncf	??_readADCChannel& (0+255),f,b
  1108  001DD2  4788               	rlncf	??_readADCChannel& (0+255),f,b
  1109  001DD4  50C2               	movf	194,w,c	;volatile
  1110  001DD6  1988               	xorwf	??_readADCChannel& (0+255),w,b
  1111  001DD8  0BFB               	andlw	-5
  1112  001DDA  1988               	xorwf	??_readADCChannel& (0+255),w,b
  1113  001DDC  6EC2               	movwf	194,c	;volatile
  1114                           
  1115                           ;./ADC.h: 17:         ADCON0bits.CHS1 = (channel >> 1) & 0x1;
  1116  001DDE  C0DA  F188         	movff	readADCChannel@channel,??_readADCChannel
  1117  001DE2  90D8               	bcf	status,0,c
  1118  001DE4  3388               	rrcf	??_readADCChannel& (0+255),f,b
  1119  001DE6  0E01               	movlw	1
  1120  001DE8  1788               	andwf	??_readADCChannel& (0+255),f,b
  1121  001DEA  4788               	rlncf	??_readADCChannel& (0+255),f,b
  1122  001DEC  4788               	rlncf	??_readADCChannel& (0+255),f,b
  1123  001DEE  4788               	rlncf	??_readADCChannel& (0+255),f,b
  1124  001DF0  50C2               	movf	194,w,c	;volatile
  1125  001DF2  1988               	xorwf	??_readADCChannel& (0+255),w,b
  1126  001DF4  0BF7               	andlw	-9
  1127  001DF6  1988               	xorwf	??_readADCChannel& (0+255),w,b
  1128  001DF8  6EC2               	movwf	194,c	;volatile
  1129                           
  1130                           ;./ADC.h: 18:         ADCON0bits.CHS2 = (channel >> 2) & 0x1;
  1131  001DFA  C0DA  F188         	movff	readADCChannel@channel,??_readADCChannel
  1132  001DFE  90D8               	bcf	status,0,c
  1133  001E00  3388               	rrcf	??_readADCChannel& (0+255),f,b
  1134  001E02  90D8               	bcf	status,0,c
  1135  001E04  3388               	rrcf	??_readADCChannel& (0+255),f,b
  1136  001E06  0E01               	movlw	1
  1137  001E08  1788               	andwf	??_readADCChannel& (0+255),f,b
  1138  001E0A  3B88               	swapf	??_readADCChannel& (0+255),f,b
  1139  001E0C  50C2               	movf	194,w,c	;volatile
  1140  001E0E  1988               	xorwf	??_readADCChannel& (0+255),w,b
  1141  001E10  0BEF               	andlw	-17
  1142  001E12  1988               	xorwf	??_readADCChannel& (0+255),w,b
  1143  001E14  6EC2               	movwf	194,c	;volatile
  1144                           
  1145                           ;./ADC.h: 19:         ADCON0bits.CHS3 = (channel >> 3) & 0x1;
  1146  001E16  C0DA  F188         	movff	readADCChannel@channel,??_readADCChannel
  1147  001E1A  90D8               	bcf	status,0,c
  1148  001E1C  3388               	rrcf	??_readADCChannel& (0+255),f,b
  1149  001E1E  90D8               	bcf	status,0,c
  1150  001E20  3388               	rrcf	??_readADCChannel& (0+255),f,b
  1151  001E22  90D8               	bcf	status,0,c
  1152  001E24  3388               	rrcf	??_readADCChannel& (0+255),f,b
  1153  001E26  0E01               	movlw	1
  1154  001E28  1788               	andwf	??_readADCChannel& (0+255),f,b
  1155  001E2A  3B88               	swapf	??_readADCChannel& (0+255),f,b
  1156  001E2C  4788               	rlncf	??_readADCChannel& (0+255),f,b
  1157  001E2E  50C2               	movf	194,w,c	;volatile
  1158  001E30  1988               	xorwf	??_readADCChannel& (0+255),w,b
  1159  001E32  0BDF               	andlw	-33
  1160  001E34  1988               	xorwf	??_readADCChannel& (0+255),w,b
  1161  001E36  6EC2               	movwf	194,c	;volatile
  1162  001E38                     
  1163                           ; BSR set to: 1
  1164                           ;./ADC.h: 23:         ADCON0bits.GODONE = 1;
  1165  001E38  82C2               	bsf	194,1,c	;volatile
  1166  001E3A                     l53:
  1167  001E3A  B2C2               	btfsc	194,1,c	;volatile
  1168  001E3C  EF22  F00F         	goto	u1731
  1169  001E40  EF24  F00F         	goto	u1730
  1170  001E44                     u1731:
  1171  001E44  EF1D  F00F         	goto	l53
  1172  001E48                     u1730:
  1173  001E48                     
  1174                           ;./ADC.h: 28:         PIR1bits.ADIF = 0;
  1175  001E48  9C9E               	bcf	158,6,c	;volatile
  1176  001E4A                     
  1177                           ;./ADC.h: 30:         return (unsigned short)((ADRESH << 8)+ADRESL);
  1178  001E4A  50C4               	movf	196,w,c	;volatile
  1179  001E4C  0101               	movlb	1	; () banked
  1180  001E4E  6F89               	movwf	(??_readADCChannel+1)& (0+255),b
  1181  001E50  6B88               	clrf	??_readADCChannel& (0+255),b
  1182  001E52  50C3               	movf	195,w,c	;volatile
  1183  001E54  2588               	addwf	??_readADCChannel& (0+255),w,b
  1184  001E56  0100               	movlb	0	; () banked
  1185  001E58  6FD8               	movwf	?_readADCChannel& (0+255),b
  1186  001E5A  0E00               	movlw	0
  1187  001E5C  0101               	movlb	1	; () banked
  1188  001E5E  2189               	addwfc	(??_readADCChannel+1)& (0+255),w,b
  1189  001E60  0100               	movlb	0	; () banked
  1190  001E62  6FD9               	movwf	(?_readADCChannel+1)& (0+255),b
  1191  001E64                     
  1192                           ; BSR set to: 0
  1193  001E64  0012               	return		;funcret
  1194  001E66                     __end_of_readADCChannel:
  1195                           	callstack 0
  1196                           
  1197 ;; *************** function _initADC *****************
  1198 ;; Defined at:
  1199 ;;		line 35 in file "./ADC.h"
  1200 ;; Parameters:    Size  Location     Type
  1201 ;;		None
  1202 ;; Auto vars:     Size  Location     Type
  1203 ;;		None
  1204 ;; Return value:  Size  Location     Type
  1205 ;;                  1    wreg      void 
  1206 ;; Registers used:
  1207 ;;		None
  1208 ;; Tracked objects:
  1209 ;;		On entry : 0/0
  1210 ;;		On exit  : 0/0
  1211 ;;		Unchanged: 0/0
  1212 ;; Data sizes:     COMRAM   BANK0   BANK1   BANK2   BANK3   BANK4   BANK5   BANK6   BANK7   BANK8   BANK9  BANK10  BANK1
      +1  BANK12  BANK13  BANK14  BANK15
  1213 ;;      Params:         0       0       0       0       0       0       0       0       0       0       0       0       
      +0       0       0       0       0
  1214 ;;      Locals:         0       0       0       0       0       0       0       0       0       0       0       0       
      +0       0       0       0       0
  1215 ;;      Temps:          0       0       0       0       0       0       0       0       0       0       0       0       
      +0       0       0       0       0
  1216 ;;      Totals:         0       0       0       0       0       0       0       0       0       0       0       0       
      +0       0       0       0       0
  1217 ;;Total ram usage:        0 bytes
  1218 ;; Hardware stack levels used:    1
  1219 ;; Hardware stack levels required when called:   10
  1220 ;; This function calls:
  1221 ;;		Nothing
  1222 ;; This function is called by:
  1223 ;;		_main
  1224 ;; This function uses a non-reentrant model
  1225 ;;
  1226                           
  1227                           	psect	text2
  1228  00240C                     __ptext2:
  1229                           	callstack 0
  1230  00240C                     _initADC:
  1231                           	callstack 20
  1232  00240C                     
  1233                           ;./ADC.h: 37:         ADCON1bits.PCFG3 = 1;
  1234  00240C  86C1               	bsf	193,3,c	;volatile
  1235                           
  1236                           ;./ADC.h: 38:         ADCON1bits.PCFG2 = 1;
  1237  00240E  84C1               	bsf	193,2,c	;volatile
  1238                           
  1239                           ;./ADC.h: 39:         ADCON1bits.PCFG1 = 0;
  1240  002410  92C1               	bcf	193,1,c	;volatile
  1241                           
  1242                           ;./ADC.h: 40:         ADCON1bits.PCFG0 = 0;
  1243  002412  90C1               	bcf	193,0,c	;volatile
  1244                           
  1245                           ;./ADC.h: 42:         ADCON1bits.VCFG0 = 0;
  1246  002414  98C1               	bcf	193,4,c	;volatile
  1247                           
  1248                           ;./ADC.h: 43:         ADCON1bits.VCFG1 = 0;
  1249  002416  9AC1               	bcf	193,5,c	;volatile
  1250                           
  1251                           ;./ADC.h: 45:         TRISAbits.RA0 = 1;
  1252  002418  8092               	bsf	146,0,c	;volatile
  1253                           
  1254                           ;./ADC.h: 46:         TRISAbits.RA1 = 1;
  1255  00241A  8292               	bsf	146,1,c	;volatile
  1256                           
  1257                           ;./ADC.h: 47:         TRISAbits.RA2 = 0;
  1258  00241C  9492               	bcf	146,2,c	;volatile
  1259                           
  1260                           ;./ADC.h: 56:         ADCON2bits.ADCS2 = 0;
  1261  00241E  94C0               	bcf	192,2,c	;volatile
  1262                           
  1263                           ;./ADC.h: 57:         ADCON2bits.ADCS1 = 1;
  1264  002420  82C0               	bsf	192,1,c	;volatile
  1265                           
  1266                           ;./ADC.h: 58:         ADCON2bits.ADCS0 = 0;
  1267  002422  90C0               	bcf	192,0,c	;volatile
  1268                           
  1269                           ;./ADC.h: 60:         ADCON2bits.ACQT2 = 0;
  1270  002424  9AC0               	bcf	192,5,c	;volatile
  1271                           
  1272                           ;./ADC.h: 61:         ADCON2bits.ACQT1 = 1;
  1273  002426  88C0               	bsf	192,4,c	;volatile
  1274                           
  1275                           ;./ADC.h: 62:         ADCON2bits.ACQT0 = 0;
  1276  002428  96C0               	bcf	192,3,c	;volatile
  1277                           
  1278                           ;./ADC.h: 64:         ADCON2bits.ADFM = 1;
  1279  00242A  8EC0               	bsf	192,7,c	;volatile
  1280                           
  1281                           ;./ADC.h: 66:         ADCON0bits.ADON = 1;
  1282  00242C  80C2               	bsf	194,0,c	;volatile
  1283  00242E  0012               	return		;funcret
  1284  002430                     __end_of_initADC:
  1285                           	callstack 0
  1286                           
  1287 ;; *************** function _LCDGoto *****************
  1288 ;; Defined at:
  1289 ;;		line 72 in file "./LCD.h"
  1290 ;; Parameters:    Size  Location     Type
  1291 ;;  p_2             1    wreg     unsigned char 
  1292 ;;  p_1             1   20[BANK0 ] unsigned char 
  1293 ;; Auto vars:     Size  Location     Type
  1294 ;;  p_2             1    0[BANK1 ] unsigned char 
  1295 ;; Return value:  Size  Location     Type
  1296 ;;                  1    wreg      void 
  1297 ;; Registers used:
  1298 ;;		wreg, status,2, status,0, cstack
  1299 ;; Tracked objects:
  1300 ;;		On entry : 0/0
  1301 ;;		On exit  : 0/0
  1302 ;;		Unchanged: 0/0
  1303 ;; Data sizes:     COMRAM   BANK0   BANK1   BANK2   BANK3   BANK4   BANK5   BANK6   BANK7   BANK8   BANK9  BANK10  BANK1
      +1  BANK12  BANK13  BANK14  BANK15
  1304 ;;      Params:         0       1       0       0       0       0       0       0       0       0       0       0       
      +0       0       0       0       0
  1305 ;;      Locals:         0       0       1       0       0       0       0       0       0       0       0       0       
      +0       0       0       0       0
  1306 ;;      Temps:          0       0       0       0       0       0       0       0       0       0       0       0       
      +0       0       0       0       0
  1307 ;;      Totals:         0       1       1       0       0       0       0       0       0       0       0       0       
      +0       0       0       0       0
  1308 ;;Total ram usage:        2 bytes
  1309 ;; Hardware stack levels used:    1
  1310 ;; Hardware stack levels required when called:   11
  1311 ;; This function calls:
  1312 ;;		_LCDCmd
  1313 ;; This function is called by:
  1314 ;;		_main
  1315 ;; This function uses a non-reentrant model
  1316 ;;
  1317                           
  1318                           	psect	text3
  1319  002016                     __ptext3:
  1320                           	callstack 0
  1321  002016                     _LCDGoto:
  1322                           	callstack 19
  1323                           
  1324                           ;incstack = 0
  1325                           ;LCDGoto@p_2 stored from wreg
  1326  002016  0101               	movlb	1	; () banked
  1327  002018  6F88               	movwf	LCDGoto@p_2& (0+255),b
  1328  00201A                     
  1329                           ;./LCD.h: 73:   if(p_1==1) {
  1330  00201A  0100               	movlb	0	; () banked
  1331  00201C  05DA               	decf	LCDGoto@p_1& (0+255),w,b
  1332  00201E  A4D8               	btfss	status,2,c
  1333  002020  EF14  F010         	goto	u1741
  1334  002024  EF16  F010         	goto	u1740
  1335  002028                     u1741:
  1336  002028  EF1E  F010         	goto	l2461
  1337  00202C                     u1740:
  1338  00202C                     
  1339                           ; BSR set to: 0
  1340                           ;./LCD.h: 74:     LCDCmd(0x80 +((p_2-1)%16));
  1341  00202C  0101               	movlb	1	; () banked
  1342  00202E  0588               	decf	LCDGoto@p_2& (0+255),w,b
  1343  002030  0B0F               	andlw	15
  1344  002032  0F80               	addlw	128
  1345  002034  EC73  F011         	call	_LCDCmd
  1346                           
  1347                           ;./LCD.h: 75:   }
  1348  002038  EF46  F010         	goto	l2471
  1349  00203C                     l2461:
  1350                           
  1351                           ; BSR set to: 0
  1352  00203C  0E02               	movlw	2
  1353  00203E  19DA               	xorwf	LCDGoto@p_1& (0+255),w,b
  1354  002040  A4D8               	btfss	status,2,c
  1355  002042  EF25  F010         	goto	u1751
  1356  002046  EF27  F010         	goto	u1750
  1357  00204A                     u1751:
  1358  00204A  EF2F  F010         	goto	l2465
  1359  00204E                     u1750:
  1360  00204E                     
  1361                           ; BSR set to: 0
  1362                           ;./LCD.h: 77:     LCDCmd(0xC0 +((p_2-1)%16));
  1363  00204E  0101               	movlb	1	; () banked
  1364  002050  0588               	decf	LCDGoto@p_2& (0+255),w,b
  1365  002052  0B0F               	andlw	15
  1366  002054  0FC0               	addlw	192
  1367  002056  EC73  F011         	call	_LCDCmd
  1368                           
  1369                           ;./LCD.h: 78:   }
  1370  00205A  EF46  F010         	goto	l2471
  1371  00205E                     l2465:
  1372                           
  1373                           ; BSR set to: 0
  1374  00205E  0E03               	movlw	3
  1375  002060  19DA               	xorwf	LCDGoto@p_1& (0+255),w,b
  1376  002062  A4D8               	btfss	status,2,c
  1377  002064  EF36  F010         	goto	u1761
  1378  002068  EF38  F010         	goto	u1760
  1379  00206C                     u1761:
  1380  00206C  EF40  F010         	goto	l2469
  1381  002070                     u1760:
  1382  002070                     
  1383                           ; BSR set to: 0
  1384                           ;./LCD.h: 80:     LCDCmd(0x90 +((p_2-1)%16));
  1385  002070  0101               	movlb	1	; () banked
  1386  002072  0588               	decf	LCDGoto@p_2& (0+255),w,b
  1387  002074  0B0F               	andlw	15
  1388  002076  0F90               	addlw	144
  1389  002078  EC73  F011         	call	_LCDCmd
  1390                           
  1391                           ;./LCD.h: 81:   }
  1392  00207C  EF46  F010         	goto	l2471
  1393  002080                     l2469:
  1394                           
  1395                           ; BSR set to: 0
  1396                           ;./LCD.h: 83:     LCDCmd(0xD0 +((p_2-1)%16));
  1397  002080  0101               	movlb	1	; () banked
  1398  002082  0588               	decf	LCDGoto@p_2& (0+255),w,b
  1399  002084  0B0F               	andlw	15
  1400  002086  0FD0               	addlw	208
  1401  002088  EC73  F011         	call	_LCDCmd
  1402  00208C                     l2471:
  1403                           
  1404                           ;./LCD.h: 85:   lcd_x = p_2;
  1405  00208C  C188  F07E         	movff	LCDGoto@p_2,_lcd_x
  1406  002090                     
  1407                           ;./LCD.h: 86:   lcd_y = p_1;
  1408  002090  C0DA  F09D         	movff	LCDGoto@p_1,_lcd_y
  1409  002094  0012               	return		;funcret
  1410  002096                     __end_of_LCDGoto:
  1411                           	callstack 0
  1412                           
  1413 ;; *************** function _LCDAddSpecialCharacter *****************
  1414 ;; Defined at:
  1415 ;;		line 129 in file "./LCD.h"
  1416 ;; Parameters:    Size  Location     Type
  1417 ;;  character_in    1    wreg     unsigned char 
  1418 ;;  data            2    0[BANK1 ] PTR unsigned char 
  1419 ;;		 -> frisbee(8), teamB_player(8), teamA_player(8), selected_teamB_player(8), 
  1420 ;;		 -> selected_teamA_player(8), empty(8), 
  1421 ;; Auto vars:     Size  Location     Type
  1422 ;;  character_in    1    2[BANK1 ] unsigned char 
  1423 ;;  i               1    3[BANK1 ] unsigned char 
  1424 ;; Return value:  Size  Location     Type
  1425 ;;                  1    wreg      void 
  1426 ;; Registers used:
  1427 ;;		wreg, fsr2l, fsr2h, status,2, status,0, prodl, prodh, cstack
  1428 ;; Tracked objects:
  1429 ;;		On entry : 0/0
  1430 ;;		On exit  : 0/0
  1431 ;;		Unchanged: 0/0
  1432 ;; Data sizes:     COMRAM   BANK0   BANK1   BANK2   BANK3   BANK4   BANK5   BANK6   BANK7   BANK8   BANK9  BANK10  BANK1
      +1  BANK12  BANK13  BANK14  BANK15
  1433 ;;      Params:         0       0       2       0       0       0       0       0       0       0       0       0       
      +0       0       0       0       0
  1434 ;;      Locals:         0       0       2       0       0       0       0       0       0       0       0       0       
      +0       0       0       0       0
  1435 ;;      Temps:          0       0       0       0       0       0       0       0       0       0       0       0       
      +0       0       0       0       0
  1436 ;;      Totals:         0       0       4       0       0       0       0       0       0       0       0       0       
      +0       0       0       0       0
  1437 ;;Total ram usage:        4 bytes
  1438 ;; Hardware stack levels used:    1
  1439 ;; Hardware stack levels required when called:   11
  1440 ;; This function calls:
  1441 ;;		_LCDCmd
  1442 ;;		_LCDDat
  1443 ;; This function is called by:
  1444 ;;		_main
  1445 ;; This function uses a non-reentrant model
  1446 ;;
  1447                           
  1448                           	psect	text4
  1449  0021F6                     __ptext4:
  1450                           	callstack 0
  1451  0021F6                     _LCDAddSpecialCharacter:
  1452                           	callstack 19
  1453                           
  1454                           ;incstack = 0
  1455                           ;LCDAddSpecialCharacter@character_index stored from wreg
  1456  0021F6  0101               	movlb	1	; () banked
  1457  0021F8  6F8A               	movwf	LCDAddSpecialCharacter@character_index& (0+255),b
  1458  0021FA                     
  1459                           ;./LCD.h: 135:     LCDCmd(0b01000000+(character_index*8));
  1460  0021FA  0101               	movlb	1	; () banked
  1461  0021FC  518A               	movf	LCDAddSpecialCharacter@character_index& (0+255),w,b
  1462  0021FE  0D08               	mullw	8
  1463  002200  50F3               	movf	243,w,c
  1464  002202  0F40               	addlw	64
  1465  002204  EC73  F011         	call	_LCDCmd
  1466  002208                     
  1467                           ;./LCD.h: 136:     for(byte i=0; i < 8; i++) {
  1468  002208  0E00               	movlw	0
  1469  00220A  0101               	movlb	1	; () banked
  1470  00220C  6F8B               	movwf	LCDAddSpecialCharacter@i& (0+255),b
  1471  00220E                     l2503:
  1472                           
  1473                           ; BSR set to: 1
  1474                           ;./LCD.h: 137:         LCDDat(data[i]);
  1475  00220E  518B               	movf	LCDAddSpecialCharacter@i& (0+255),w,b
  1476  002210  2588               	addwf	LCDAddSpecialCharacter@data& (0+255),w,b
  1477  002212  6ED9               	movwf	fsr2l,c
  1478  002214  0E00               	movlw	0
  1479  002216  2189               	addwfc	(LCDAddSpecialCharacter@data+1)& (0+255),w,b
  1480  002218  6EDA               	movwf	fsr2h,c
  1481  00221A  50DF               	movf	indf2,w,c
  1482  00221C  EC3B  F011         	call	_LCDDat
  1483  002220                     
  1484                           ;./LCD.h: 138:     }
  1485  002220  0101               	movlb	1	; () banked
  1486  002222  2B8B               	incf	LCDAddSpecialCharacter@i& (0+255),f,b
  1487  002224                     
  1488                           ; BSR set to: 1
  1489  002224  0E07               	movlw	7
  1490  002226  658B               	cpfsgt	LCDAddSpecialCharacter@i& (0+255),b
  1491  002228  EF18  F011         	goto	u1771
  1492  00222C  EF1A  F011         	goto	u1770
  1493  002230                     u1771:
  1494  002230  EF07  F011         	goto	l2503
  1495  002234                     u1770:
  1496  002234                     
  1497                           ; BSR set to: 1
  1498  002234  0012               	return		;funcret
  1499  002236                     __end_of_LCDAddSpecialCharacter:
  1500                           	callstack 0
  1501                           
  1502 ;; *************** function _LCDDat *****************
  1503 ;; Defined at:
  1504 ;;		line 58 in file "./LCD.h"
  1505 ;; Parameters:    Size  Location     Type
  1506 ;;  dat             1    wreg     unsigned char 
  1507 ;; Auto vars:     Size  Location     Type
  1508 ;;  dat             1   19[BANK0 ] unsigned char 
  1509 ;; Return value:  Size  Location     Type
  1510 ;;                  1    wreg      void 
  1511 ;; Registers used:
  1512 ;;		wreg
  1513 ;; Tracked objects:
  1514 ;;		On entry : 0/0
  1515 ;;		On exit  : 0/0
  1516 ;;		Unchanged: 0/0
  1517 ;; Data sizes:     COMRAM   BANK0   BANK1   BANK2   BANK3   BANK4   BANK5   BANK6   BANK7   BANK8   BANK9  BANK10  BANK1
      +1  BANK12  BANK13  BANK14  BANK15
  1518 ;;      Params:         0       0       0       0       0       0       0       0       0       0       0       0       
      +0       0       0       0       0
  1519 ;;      Locals:         0       1       0       0       0       0       0       0       0       0       0       0       
      +0       0       0       0       0
  1520 ;;      Temps:          0       1       0       0       0       0       0       0       0       0       0       0       
      +0       0       0       0       0
  1521 ;;      Totals:         0       2       0       0       0       0       0       0       0       0       0       0       
      +0       0       0       0       0
  1522 ;;Total ram usage:        2 bytes
  1523 ;; Hardware stack levels used:    1
  1524 ;; Hardware stack levels required when called:   10
  1525 ;; This function calls:
  1526 ;;		Nothing
  1527 ;; This function is called by:
  1528 ;;		_LCDAddSpecialCharacter
  1529 ;;		_main
  1530 ;;		_LCDStr
  1531 ;; This function uses a non-reentrant model
  1532 ;;
  1533                           
  1534                           	psect	text5
  1535  002276                     __ptext5:
  1536                           	callstack 0
  1537  002276                     _LCDDat:
  1538                           	callstack 20
  1539                           
  1540                           ; BSR set to: 1
  1541                           ;incstack = 0
  1542                           ;LCDDat@dat stored from wreg
  1543  002276  0100               	movlb	0	; () banked
  1544  002278  6FD9               	movwf	LCDDat@dat& (0+255),b
  1545  00227A                     
  1546                           ;./LCD.h: 59:   PORTEbits.RE1 = 0;
  1547  00227A  9284               	bcf	132,1,c	;volatile
  1548                           
  1549                           ;./LCD.h: 60:   PORTEbits.RE2 = 1;
  1550  00227C  8484               	bsf	132,2,c	;volatile
  1551  00227E                     
  1552                           ;./LCD.h: 61:   PORTD = dat;
  1553  00227E  C0D9  FF83         	movff	LCDDat@dat,3971	;volatile
  1554  002282                     
  1555                           ;./LCD.h: 62:   PORTEbits.RE1 = 1;
  1556  002282  8284               	bsf	132,1,c	;volatile
  1557  002284                     
  1558                           ;./LCD.h: 63:   _delay((unsigned long)((2000)*(40000000L/4000000.0)));
  1559  002284  0E1A               	movlw	26
  1560  002286  0100               	movlb	0	; () banked
  1561  002288  6FD8               	movwf	??_LCDDat& (0+255),b
  1562  00228A  0EF8               	movlw	248
  1563  00228C                     u1837:
  1564  00228C  2EE8               	decfsz	wreg,f,c
  1565  00228E  D7FE               	bra	u1837
  1566  002290  2FD8               	decfsz	??_LCDDat& (0+255),f,b
  1567  002292  D7FC               	bra	u1837
  1568  002294  F000               	nop	
  1569  002296                     
  1570                           ;./LCD.h: 64:   PORTEbits.RE1 = 0;
  1571  002296  9284               	bcf	132,1,c	;volatile
  1572  002298                     
  1573                           ;./LCD.h: 65:   _delay((unsigned long)((2000)*(40000000L/4000000.0)));
  1574  002298  0E1A               	movlw	26
  1575  00229A  0100               	movlb	0	; () banked
  1576  00229C  6FD8               	movwf	??_LCDDat& (0+255),b
  1577  00229E  0EF8               	movlw	248
  1578  0022A0                     u1847:
  1579  0022A0  2EE8               	decfsz	wreg,f,c
  1580  0022A2  D7FE               	bra	u1847
  1581  0022A4  2FD8               	decfsz	??_LCDDat& (0+255),f,b
  1582  0022A6  D7FC               	bra	u1847
  1583  0022A8  F000               	nop	
  1584  0022AA                     
  1585                           ;./LCD.h: 66:   PORTEbits.RE2 = 0;
  1586  0022AA  9484               	bcf	132,2,c	;volatile
  1587  0022AC  0012               	return		;funcret
  1588  0022AE                     __end_of_LCDDat:
  1589                           	callstack 0
  1590                           
  1591 ;; *************** function _InitLCD *****************
  1592 ;; Defined at:
  1593 ;;		line 108 in file "./LCD.h"
  1594 ;; Parameters:    Size  Location     Type
  1595 ;;		None
  1596 ;; Auto vars:     Size  Location     Type
  1597 ;;		None
  1598 ;; Return value:  Size  Location     Type
  1599 ;;                  1    wreg      void 
  1600 ;; Registers used:
  1601 ;;		wreg, status,2, cstack
  1602 ;; Tracked objects:
  1603 ;;		On entry : 0/0
  1604 ;;		On exit  : 0/0
  1605 ;;		Unchanged: 0/0
  1606 ;; Data sizes:     COMRAM   BANK0   BANK1   BANK2   BANK3   BANK4   BANK5   BANK6   BANK7   BANK8   BANK9  BANK10  BANK1
      +1  BANK12  BANK13  BANK14  BANK15
  1607 ;;      Params:         0       0       0       0       0       0       0       0       0       0       0       0       
      +0       0       0       0       0
  1608 ;;      Locals:         0       0       0       0       0       0       0       0       0       0       0       0       
      +0       0       0       0       0
  1609 ;;      Temps:          0       0       0       0       0       0       0       0       0       0       0       0       
      +0       0       0       0       0
  1610 ;;      Totals:         0       0       0       0       0       0       0       0       0       0       0       0       
      +0       0       0       0       0
  1611 ;;Total ram usage:        0 bytes
  1612 ;; Hardware stack levels used:    1
  1613 ;; Hardware stack levels required when called:   11
  1614 ;; This function calls:
  1615 ;;		_LCDCmd
  1616 ;; This function is called by:
  1617 ;;		_main
  1618 ;; This function uses a non-reentrant model
  1619 ;;
  1620                           
  1621                           	psect	text6
  1622  002352                     __ptext6:
  1623                           	callstack 0
  1624  002352                     _InitLCD:
  1625                           	callstack 19
  1626  002352                     
  1627                           ;./LCD.h: 109:   TRISEbits.RE1 = 0;
  1628  002352  9296               	bcf	150,1,c	;volatile
  1629                           
  1630                           ;./LCD.h: 110:   TRISEbits.RE2 = 0;
  1631  002354  9496               	bcf	150,2,c	;volatile
  1632  002356                     
  1633                           ;./LCD.h: 111:   TRISD = 0;
  1634  002356  0E00               	movlw	0
  1635  002358  6E95               	movwf	149,c	;volatile
  1636  00235A                     
  1637                           ;./LCD.h: 113:   PORTEbits.RE1 = 0;
  1638  00235A  9284               	bcf	132,1,c	;volatile
  1639  00235C                     
  1640                           ;./LCD.h: 114:   PORTEbits.RE2 = 0;
  1641  00235C  9484               	bcf	132,2,c	;volatile
  1642  00235E                     
  1643                           ;./LCD.h: 115:   LCDCmd(0x38);
  1644  00235E  0E38               	movlw	56
  1645  002360  EC73  F011         	call	_LCDCmd
  1646  002364                     
  1647                           ;./LCD.h: 116:   LCDCmd(0x08);
  1648  002364  0E08               	movlw	8
  1649  002366  EC73  F011         	call	_LCDCmd
  1650  00236A                     
  1651                           ;./LCD.h: 117:   LCDCmd(0x0C);
  1652  00236A  0E0C               	movlw	12
  1653  00236C  EC73  F011         	call	_LCDCmd
  1654  002370                     
  1655                           ;./LCD.h: 118:   LCDCmd(0x06);
  1656  002370  0E06               	movlw	6
  1657  002372  EC73  F011         	call	_LCDCmd
  1658  002376                     
  1659                           ;./LCD.h: 119:   LCDCmd(0x01);
  1660  002376  0E01               	movlw	1
  1661  002378  EC73  F011         	call	_LCDCmd
  1662  00237C                     
  1663                           ;./LCD.h: 120:   LCDCmd(0x80);
  1664  00237C  0E80               	movlw	128
  1665  00237E  EC73  F011         	call	_LCDCmd
  1666  002382  0012               	return		;funcret
  1667  002384                     __end_of_InitLCD:
  1668                           	callstack 0
  1669                           
  1670 ;; *************** function _LCDCmd *****************
  1671 ;; Defined at:
  1672 ;;		line 48 in file "./LCD.h"
  1673 ;; Parameters:    Size  Location     Type
  1674 ;;  cmd             1    wreg     unsigned char 
  1675 ;; Auto vars:     Size  Location     Type
  1676 ;;  cmd             1   19[BANK0 ] unsigned char 
  1677 ;; Return value:  Size  Location     Type
  1678 ;;                  1    wreg      void 
  1679 ;; Registers used:
  1680 ;;		wreg
  1681 ;; Tracked objects:
  1682 ;;		On entry : 0/0
  1683 ;;		On exit  : 0/0
  1684 ;;		Unchanged: 0/0
  1685 ;; Data sizes:     COMRAM   BANK0   BANK1   BANK2   BANK3   BANK4   BANK5   BANK6   BANK7   BANK8   BANK9  BANK10  BANK1
      +1  BANK12  BANK13  BANK14  BANK15
  1686 ;;      Params:         0       0       0       0       0       0       0       0       0       0       0       0       
      +0       0       0       0       0
  1687 ;;      Locals:         0       1       0       0       0       0       0       0       0       0       0       0       
      +0       0       0       0       0
  1688 ;;      Temps:          0       1       0       0       0       0       0       0       0       0       0       0       
      +0       0       0       0       0
  1689 ;;      Totals:         0       2       0       0       0       0       0       0       0       0       0       0       
      +0       0       0       0       0
  1690 ;;Total ram usage:        2 bytes
  1691 ;; Hardware stack levels used:    1
  1692 ;; Hardware stack levels required when called:   10
  1693 ;; This function calls:
  1694 ;;		Nothing
  1695 ;; This function is called by:
  1696 ;;		_LCDGoto
  1697 ;;		_InitLCD
  1698 ;;		_LCDAddSpecialCharacter
  1699 ;; This function uses a non-reentrant model
  1700 ;;
  1701                           
  1702                           	psect	text7
  1703  0022E6                     __ptext7:
  1704                           	callstack 0
  1705  0022E6                     _LCDCmd:
  1706                           	callstack 19
  1707                           
  1708                           ;incstack = 0
  1709                           ;LCDCmd@cmd stored from wreg
  1710  0022E6  0100               	movlb	0	; () banked
  1711  0022E8  6FD9               	movwf	LCDCmd@cmd& (0+255),b
  1712  0022EA                     
  1713                           ;./LCD.h: 49:   PORTEbits.RE1 = 0;
  1714  0022EA  9284               	bcf	132,1,c	;volatile
  1715                           
  1716                           ;./LCD.h: 50:   PORTEbits.RE2 = 0;
  1717  0022EC  9484               	bcf	132,2,c	;volatile
  1718  0022EE                     
  1719                           ;./LCD.h: 51:   PORTD = cmd;
  1720  0022EE  C0D9  FF83         	movff	LCDCmd@cmd,3971	;volatile
  1721  0022F2                     
  1722                           ;./LCD.h: 52:   PORTEbits.RE1 = 1;
  1723  0022F2  8284               	bsf	132,1,c	;volatile
  1724  0022F4                     
  1725                           ;./LCD.h: 53:   _delay((unsigned long)((2000)*(40000000L/4000000.0)));
  1726  0022F4  0E1A               	movlw	26
  1727  0022F6  0100               	movlb	0	; () banked
  1728  0022F8  6FD8               	movwf	??_LCDCmd& (0+255),b
  1729  0022FA  0EF8               	movlw	248
  1730  0022FC                     u1857:
  1731  0022FC  2EE8               	decfsz	wreg,f,c
  1732  0022FE  D7FE               	bra	u1857
  1733  002300  2FD8               	decfsz	??_LCDCmd& (0+255),f,b
  1734  002302  D7FC               	bra	u1857
  1735  002304  F000               	nop	
  1736  002306                     
  1737                           ;./LCD.h: 54:   PORTEbits.RE1 = 0;
  1738  002306  9284               	bcf	132,1,c	;volatile
  1739  002308                     
  1740                           ;./LCD.h: 55:   _delay((unsigned long)((2000)*(40000000L/4000000.0)));
  1741  002308  0E1A               	movlw	26
  1742  00230A  0100               	movlb	0	; () banked
  1743  00230C  6FD8               	movwf	??_LCDCmd& (0+255),b
  1744  00230E  0EF8               	movlw	248
  1745  002310                     u1867:
  1746  002310  2EE8               	decfsz	wreg,f,c
  1747  002312  D7FE               	bra	u1867
  1748  002314  2FD8               	decfsz	??_LCDCmd& (0+255),f,b
  1749  002316  D7FC               	bra	u1867
  1750  002318  F000               	nop	
  1751  00231A  0012               	return		;funcret
  1752  00231C                     __end_of_LCDCmd:
  1753                           	callstack 0
  1754                           
  1755 ;; *************** function _FNC *****************
  1756 ;; Defined at:
  1757 ;;		line 86 in file "newmain.c"
  1758 ;; Parameters:    Size  Location     Type
  1759 ;;		None
  1760 ;; Auto vars:     Size  Location     Type
  1761 ;;  oldY            2  115[COMRAM] int 
  1762 ;;  oldX            2  113[COMRAM] int 
  1763 ;;  interrupt_ti    4  117[COMRAM] unsigned long 
  1764 ;; Return value:  Size  Location     Type
  1765 ;;                  1    wreg      void 
  1766 ;; Registers used:
  1767 ;;		wreg, fsr0l, fsr0h, fsr1l, fsr1h, fsr1l, fsr1h, fsr2l, fsr2h, status,2, status,0, pclath, btemp, btemp+1, btemp+2, b
      +temp+3, btemp+4, btemp+5, btemp+6, btemp+7, btemp+8, btemp+9, btemp+10, btemp+11, btemp+12, btemp+13, btemp+14, btemp+15
      +, btemp+16, btemp+17, btemp+18, btemp+19, btemp+20, btemp+21, btemp+22, btemp+23, btemp+24, btemp+25, btemp+26, btemp+27
      +, btemp+28, btemp+29, btemp+30, btemp+31, tosl, structret, tblptrl, tblptrh, tblptru, prodl, prodh, bsr, cstack
  1768 ;; Tracked objects:
  1769 ;;		On entry : 0/0
  1770 ;;		On exit  : 0/0
  1771 ;;		Unchanged: 0/0
  1772 ;; Data sizes:     COMRAM   BANK0   BANK1   BANK2   BANK3   BANK4   BANK5   BANK6   BANK7   BANK8   BANK9  BANK10  BANK1
      +1  BANK12  BANK13  BANK14  BANK15
  1773 ;;      Params:         0       0       0       0       0       0       0       0       0       0       0       0       
      +0       0       0       0       0
  1774 ;;      Locals:         8       0       0       0       0       0       0       0       0       0       0       0       
      +0       0       0       0       0
  1775 ;;      Temps:          0      18       0       0       0       0       0       0       0       0       0       0       
      +0       0       0       0       0
  1776 ;;      Totals:         8      18       0       0       0       0       0       0       0       0       0       0       
      +0       0       0       0       0
  1777 ;;Total ram usage:       26 bytes
  1778 ;; Hardware stack levels used:    1
  1779 ;; Hardware stack levels required when called:    9
  1780 ;; This function calls:
  1781 ;;		___awmod
  1782 ;;		_millis
  1783 ;;		_updatePlayerPositionOnLCD
  1784 ;; This function is called by:
  1785 ;;		Interrupt level 2
  1786 ;; This function uses a non-reentrant model
  1787 ;;
  1788                           
  1789                           	psect	intcode
  1790  000000                     __pintcode:
  1791                           	callstack 0
  1792  000000                     _FNC:
  1793                           	callstack 19
  1794                           
  1795                           ;incstack = 0
  1796  000000  827F               	bsf	int$flags,1,c	;set compiler interrupt flag (level 2)
  1797  000002  ED1B  F008         	call	int_func,f	;refresh shadow registers
  1798                           
  1799                           	psect	intcode_body
  1800  001036                     __pintcode_body:
  1801                           	callstack 19
  1802  001036                     int_func:
  1803                           	callstack 19
  1804  001036  0006               	pop		; remove dummy address from shadow register refresh
  1805  001038  CFFA F0CA          	movff	pclath,??_FNC+4
  1806  00103C  CFFB F0CB          	movff	pclatu,??_FNC+5
  1807  001040  CFE9 F0CC          	movff	fsr0l,??_FNC+6
  1808  001044  CFEA F0CD          	movff	fsr0h,??_FNC+7
  1809  001048  CFE1 F0CE          	movff	fsr1l,??_FNC+8
  1810  00104C  CFE2 F0CF          	movff	fsr1h,??_FNC+9
  1811  001050  CFD9 F0D0          	movff	fsr2l,??_FNC+10
  1812  001054  CFDA F0D1          	movff	fsr2h,??_FNC+11
  1813  001058  CFF3 F0D2          	movff	prodl,??_FNC+12
  1814  00105C  CFF4 F0D3          	movff	prodh,??_FNC+13
  1815  001060  CFF6 F0D4          	movff	tblptrl,??_FNC+14
  1816  001064  CFF7 F0D5          	movff	tblptrh,??_FNC+15
  1817  001068  CFF8 F0D6          	movff	tblptru,??_FNC+16
  1818  00106C  CFF5 F0D7          	movff	tablat,??_FNC+17
  1819  001070                     
  1820                           ;newmain.c: 88:     static unsigned long last_interrupt_time = 0;;newmain.c: 89:     uns
      +                          igned long interrupt_time = millis();
  1821  001070  EC00  F000         	call	_millis	;wreg free
  1822  001074  C001  F076         	movff	?_millis,FNC@interrupt_time
  1823  001078  C002  F077         	movff	?_millis+1,FNC@interrupt_time+1
  1824  00107C  0E00               	movlw	0
  1825  00107E  BE77               	btfsc	(FNC@interrupt_time+1)^0,7,c
  1826  001080  0EFF               	movlw	-1
  1827  001082  6E78               	movwf	(FNC@interrupt_time+2)^0,c
  1828  001084  6E79               	movwf	(FNC@interrupt_time+3)^0,c
  1829  001086                     
  1830                           ;newmain.c: 90:     if(interrupt_time - last_interrupt_time > 200 && INTCONbits.RBIF)
  1831  001086  0100               	movlb	0	; () banked
  1832  001088  51DB               	movf	FNC@last_interrupt_time& (0+255),w,b
  1833  00108A  5C76               	subwf	FNC@interrupt_time^0,w,c
  1834  00108C  6FC6               	movwf	??_FNC& (0+255),b
  1835  00108E  51DC               	movf	(FNC@last_interrupt_time+1)& (0+255),w,b
  1836  001090  5877               	subwfb	(FNC@interrupt_time+1)^0,w,c
  1837  001092  6FC7               	movwf	(??_FNC+1)& (0+255),b
  1838  001094  51DD               	movf	(FNC@last_interrupt_time+2)& (0+255),w,b
  1839  001096  5878               	subwfb	(FNC@interrupt_time+2)^0,w,c
  1840  001098  6FC8               	movwf	(??_FNC+2)& (0+255),b
  1841  00109A  51DE               	movf	(FNC@last_interrupt_time+3)& (0+255),w,b
  1842  00109C  5879               	subwfb	(FNC@interrupt_time+3)^0,w,c
  1843  00109E  6FC9               	movwf	(??_FNC+3)& (0+255),b
  1844  0010A0  51C9               	movf	(??_FNC+3)& (0+255),w,b
  1845  0010A2  11C8               	iorwf	(??_FNC+2)& (0+255),w,b
  1846  0010A4  11C7               	iorwf	(??_FNC+1)& (0+255),w,b
  1847  0010A6  E109               	bnz	i2u163_40
  1848  0010A8  0EC9               	movlw	201
  1849  0010AA  5DC6               	subwf	??_FNC& (0+255),w,b
  1850  0010AC  A0D8               	btfss	status,0,c
  1851  0010AE  EF5B  F008         	goto	i2u163_41
  1852  0010B2  EF5D  F008         	goto	i2u163_40
  1853  0010B6                     i2u163_41:
  1854  0010B6  EF58  F009         	goto	i2l2279
  1855  0010BA                     i2u163_40:
  1856  0010BA                     
  1857                           ; BSR set to: 0
  1858  0010BA  A0F2               	btfss	242,0,c	;volatile
  1859  0010BC  EF62  F008         	goto	i2u164_41
  1860  0010C0  EF64  F008         	goto	i2u164_40
  1861  0010C4                     i2u164_41:
  1862  0010C4  EF58  F009         	goto	i2l2279
  1863  0010C8                     i2u164_40:
  1864  0010C8                     
  1865                           ; BSR set to: 0
  1866                           ;newmain.c: 91:     {;newmain.c: 93:         int oldX = gameState.player_positions[gameS
      +                          tate.selected_player].x;
  1867  0010C8  0E80               	movlw	low _gameState
  1868  0010CA  6FC6               	movwf	??_FNC& (0+255),b
  1869  0010CC  0E00               	movlw	high _gameState
  1870  0010CE  6FC7               	movwf	(??_FNC+1)& (0+255),b
  1871  0010D0  90D8               	bcf	status,0,c
  1872  0010D2  3594               	rlcf	(_gameState+20)& (0+255),w,b
  1873  0010D4  6ED9               	movwf	fsr2l,c
  1874  0010D6  3595               	rlcf	(_gameState+21)& (0+255),w,b
  1875  0010D8  6EDA               	movwf	fsr2h,c
  1876  0010DA  90D8               	bcf	status,0,c
  1877  0010DC  36D9               	rlcf	fsr2l,f,c
  1878  0010DE  36DA               	rlcf	fsr2h,f,c
  1879  0010E0  51C6               	movf	??_FNC& (0+255),w,b
  1880  0010E2  26D9               	addwf	fsr2l,f,c
  1881  0010E4  51C7               	movf	(??_FNC+1)& (0+255),w,b
  1882  0010E6  22DA               	addwfc	fsr2h,f,c
  1883  0010E8  CFDE F072          	movff	postinc2,FNC@oldX
  1884  0010EC  CFDD F073          	movff	postdec2,FNC@oldX+1
  1885                           
  1886                           ;newmain.c: 94:         int oldY = gameState.player_positions[gameState.selected_player]
      +                          .y;
  1887  0010F0  0E80               	movlw	low _gameState
  1888  0010F2  6FC6               	movwf	??_FNC& (0+255),b
  1889  0010F4  0E00               	movlw	high _gameState
  1890  0010F6  6FC7               	movwf	(??_FNC+1)& (0+255),b
  1891  0010F8  0E02               	movlw	2
  1892  0010FA  27C6               	addwf	??_FNC& (0+255),f,b
  1893  0010FC  0E00               	movlw	0
  1894  0010FE  23C7               	addwfc	(??_FNC+1)& (0+255),f,b
  1895  001100  90D8               	bcf	status,0,c
  1896  001102  3594               	rlcf	(_gameState+20)& (0+255),w,b
  1897  001104  6ED9               	movwf	fsr2l,c
  1898  001106  3595               	rlcf	(_gameState+21)& (0+255),w,b
  1899  001108  6EDA               	movwf	fsr2h,c
  1900  00110A  90D8               	bcf	status,0,c
  1901  00110C  36D9               	rlcf	fsr2l,f,c
  1902  00110E  36DA               	rlcf	fsr2h,f,c
  1903  001110  51C6               	movf	??_FNC& (0+255),w,b
  1904  001112  26D9               	addwf	fsr2l,f,c
  1905  001114  51C7               	movf	(??_FNC+1)& (0+255),w,b
  1906  001116  22DA               	addwfc	fsr2h,f,c
  1907  001118  CFDE F074          	movff	postinc2,FNC@oldY
  1908  00111C  CFDD F075          	movff	postdec2,FNC@oldY+1
  1909  001120                     
  1910                           ; BSR set to: 0
  1911                           ;newmain.c: 95:         gameState.teamA_score = (gameState.teamA_score+1)%6;
  1912  001120  0E01               	movlw	1
  1913  001122  2596               	addwf	(_gameState+22)& (0+255),w,b
  1914  001124  6E01               	movwf	___awmod@dividend^0,c
  1915  001126  0E00               	movlw	0
  1916  001128  2197               	addwfc	(_gameState+23)& (0+255),w,b
  1917  00112A  6E02               	movwf	(___awmod@dividend+1)^0,c
  1918  00112C  0E00               	movlw	0
  1919  00112E  6E04               	movwf	(___awmod@divisor+1)^0,c
  1920  001130  0E06               	movlw	6
  1921  001132  6E03               	movwf	___awmod@divisor^0,c
  1922  001134  EC89  F00E         	call	___awmod	;wreg free
  1923  001138  C001  F096         	movff	?___awmod,_gameState+22
  1924  00113C  C002  F097         	movff	?___awmod+1,_gameState+23
  1925  001140                     
  1926                           ;newmain.c: 98:         if(PORTBbits.RB4)
  1927  001140  A881               	btfss	129,4,c	;volatile
  1928  001142  EFA5  F008         	goto	i2u165_41
  1929  001146  EFA7  F008         	goto	i2u165_40
  1930  00114A                     i2u165_41:
  1931  00114A  EFC1  F008         	goto	i2l177
  1932  00114E                     i2u165_40:
  1933  00114E                     
  1934                           ;newmain.c: 99:         {;newmain.c: 100:             gameState.player_positions[gameSta
      +                          te.selected_player].y--;
  1935  00114E  0E80               	movlw	low _gameState
  1936  001150  0100               	movlb	0	; () banked
  1937  001152  6FC6               	movwf	??_FNC& (0+255),b
  1938  001154  0E00               	movlw	high _gameState
  1939  001156  6FC7               	movwf	(??_FNC+1)& (0+255),b
  1940  001158  0E02               	movlw	2
  1941  00115A  27C6               	addwf	??_FNC& (0+255),f,b
  1942  00115C  0E00               	movlw	0
  1943  00115E  23C7               	addwfc	(??_FNC+1)& (0+255),f,b
  1944  001160  90D8               	bcf	status,0,c
  1945  001162  3594               	rlcf	(_gameState+20)& (0+255),w,b
  1946  001164  6ED9               	movwf	fsr2l,c
  1947  001166  3595               	rlcf	(_gameState+21)& (0+255),w,b
  1948  001168  6EDA               	movwf	fsr2h,c
  1949  00116A  90D8               	bcf	status,0,c
  1950  00116C  36D9               	rlcf	fsr2l,f,c
  1951  00116E  36DA               	rlcf	fsr2h,f,c
  1952  001170  51C6               	movf	??_FNC& (0+255),w,b
  1953  001172  26D9               	addwf	fsr2l,f,c
  1954  001174  51C7               	movf	(??_FNC+1)& (0+255),w,b
  1955  001176  22DA               	addwfc	fsr2h,f,c
  1956  001178  06DE               	decf	postinc2,f,c
  1957  00117A  0E00               	movlw	0
  1958  00117C  5ADD               	subwfb	postdec2,f,c
  1959                           
  1960                           ;newmain.c: 101:         }
  1961  00117E  EF1C  F009         	goto	i2l2275
  1962  001182                     i2l177:
  1963  001182  AC81               	btfss	129,6,c	;volatile
  1964  001184  EFC6  F008         	goto	i2u166_41
  1965  001188  EFC8  F008         	goto	i2u166_40
  1966  00118C                     i2u166_41:
  1967  00118C  EFE2  F008         	goto	i2l179
  1968  001190                     i2u166_40:
  1969  001190                     
  1970                           ;newmain.c: 103:         {;newmain.c: 104:             gameState.player_positions[gameSt
      +                          ate.selected_player].y++;
  1971  001190  0E80               	movlw	low _gameState
  1972  001192  0100               	movlb	0	; () banked
  1973  001194  6FC6               	movwf	??_FNC& (0+255),b
  1974  001196  0E00               	movlw	high _gameState
  1975  001198  6FC7               	movwf	(??_FNC+1)& (0+255),b
  1976  00119A  0E02               	movlw	2
  1977  00119C  27C6               	addwf	??_FNC& (0+255),f,b
  1978  00119E  0E00               	movlw	0
  1979  0011A0  23C7               	addwfc	(??_FNC+1)& (0+255),f,b
  1980  0011A2  90D8               	bcf	status,0,c
  1981  0011A4  3594               	rlcf	(_gameState+20)& (0+255),w,b
  1982  0011A6  6ED9               	movwf	fsr2l,c
  1983  0011A8  3595               	rlcf	(_gameState+21)& (0+255),w,b
  1984  0011AA  6EDA               	movwf	fsr2h,c
  1985  0011AC  90D8               	bcf	status,0,c
  1986  0011AE  36D9               	rlcf	fsr2l,f,c
  1987  0011B0  36DA               	rlcf	fsr2h,f,c
  1988  0011B2  51C6               	movf	??_FNC& (0+255),w,b
  1989  0011B4  26D9               	addwf	fsr2l,f,c
  1990  0011B6  51C7               	movf	(??_FNC+1)& (0+255),w,b
  1991  0011B8  22DA               	addwfc	fsr2h,f,c
  1992  0011BA  2ADE               	incf	postinc2,f,c
  1993  0011BC  0E00               	movlw	0
  1994  0011BE  22DD               	addwfc	postdec2,f,c
  1995                           
  1996                           ;newmain.c: 105:         }
  1997  0011C0  EF1C  F009         	goto	i2l2275
  1998  0011C4                     i2l179:
  1999  0011C4  AE81               	btfss	129,7,c	;volatile
  2000  0011C6  EFE7  F008         	goto	i2u167_41
  2001  0011CA  EFE9  F008         	goto	i2u167_40
  2002  0011CE                     i2u167_41:
  2003  0011CE  EFFF  F008         	goto	i2l181
  2004  0011D2                     i2u167_40:
  2005  0011D2                     
  2006                           ;newmain.c: 107:         {;newmain.c: 108:             gameState.player_positions[gameSt
      +                          ate.selected_player].x--;
  2007  0011D2  0E80               	movlw	low _gameState
  2008  0011D4  0100               	movlb	0	; () banked
  2009  0011D6  6FC6               	movwf	??_FNC& (0+255),b
  2010  0011D8  0E00               	movlw	high _gameState
  2011  0011DA  6FC7               	movwf	(??_FNC+1)& (0+255),b
  2012  0011DC  90D8               	bcf	status,0,c
  2013  0011DE  3594               	rlcf	(_gameState+20)& (0+255),w,b
  2014  0011E0  6ED9               	movwf	fsr2l,c
  2015  0011E2  3595               	rlcf	(_gameState+21)& (0+255),w,b
  2016  0011E4  6EDA               	movwf	fsr2h,c
  2017  0011E6  90D8               	bcf	status,0,c
  2018  0011E8  36D9               	rlcf	fsr2l,f,c
  2019  0011EA  36DA               	rlcf	fsr2h,f,c
  2020  0011EC  51C6               	movf	??_FNC& (0+255),w,b
  2021  0011EE  26D9               	addwf	fsr2l,f,c
  2022  0011F0  51C7               	movf	(??_FNC+1)& (0+255),w,b
  2023  0011F2  22DA               	addwfc	fsr2h,f,c
  2024  0011F4  06DE               	decf	postinc2,f,c
  2025  0011F6  0E00               	movlw	0
  2026  0011F8  5ADD               	subwfb	postdec2,f,c
  2027                           
  2028                           ;newmain.c: 109:         }
  2029  0011FA  EF1C  F009         	goto	i2l2275
  2030  0011FE                     i2l181:
  2031  0011FE  AA81               	btfss	129,5,c	;volatile
  2032  001200  EF04  F009         	goto	i2u168_41
  2033  001204  EF06  F009         	goto	i2u168_40
  2034  001208                     i2u168_41:
  2035  001208  EF1C  F009         	goto	i2l180
  2036  00120C                     i2u168_40:
  2037  00120C                     
  2038                           ;newmain.c: 111:         {;newmain.c: 112:             gameState.player_positions[gameSt
      +                          ate.selected_player].x++;
  2039  00120C  0E80               	movlw	low _gameState
  2040  00120E  0100               	movlb	0	; () banked
  2041  001210  6FC6               	movwf	??_FNC& (0+255),b
  2042  001212  0E00               	movlw	high _gameState
  2043  001214  6FC7               	movwf	(??_FNC+1)& (0+255),b
  2044  001216  90D8               	bcf	status,0,c
  2045  001218  3594               	rlcf	(_gameState+20)& (0+255),w,b
  2046  00121A  6ED9               	movwf	fsr2l,c
  2047  00121C  3595               	rlcf	(_gameState+21)& (0+255),w,b
  2048  00121E  6EDA               	movwf	fsr2h,c
  2049  001220  90D8               	bcf	status,0,c
  2050  001222  36D9               	rlcf	fsr2l,f,c
  2051  001224  36DA               	rlcf	fsr2h,f,c
  2052  001226  51C6               	movf	??_FNC& (0+255),w,b
  2053  001228  26D9               	addwf	fsr2l,f,c
  2054  00122A  51C7               	movf	(??_FNC+1)& (0+255),w,b
  2055  00122C  22DA               	addwfc	fsr2h,f,c
  2056  00122E  2ADE               	incf	postinc2,f,c
  2057  001230  0E00               	movlw	0
  2058  001232  22DD               	addwfc	postdec2,f,c
  2059  001234  EF1C  F009         	goto	i2l2275
  2060  001238                     i2l180:
  2061  001238                     i2l2275:
  2062                           
  2063                           ;newmain.c: 115:         updatePlayerPositionOnLCD(oldX, oldY,
  2064  001238  C072  F066         	movff	FNC@oldX,updatePlayerPositionOnLCD@oldX
  2065  00123C  C073  F067         	movff	FNC@oldX+1,updatePlayerPositionOnLCD@oldX+1
  2066  001240  C074  F068         	movff	FNC@oldY,updatePlayerPositionOnLCD@oldY
  2067  001244  C075  F069         	movff	FNC@oldY+1,updatePlayerPositionOnLCD@oldY+1
  2068  001248  0E80               	movlw	low _gameState
  2069  00124A  0100               	movlb	0	; () banked
  2070  00124C  6FC6               	movwf	??_FNC& (0+255),b
  2071  00124E  0E00               	movlw	high _gameState
  2072  001250  6FC7               	movwf	(??_FNC+1)& (0+255),b
  2073  001252  90D8               	bcf	status,0,c
  2074  001254  3594               	rlcf	(_gameState+20)& (0+255),w,b
  2075  001256  6ED9               	movwf	fsr2l,c
  2076  001258  3595               	rlcf	(_gameState+21)& (0+255),w,b
  2077  00125A  6EDA               	movwf	fsr2h,c
  2078  00125C  90D8               	bcf	status,0,c
  2079  00125E  36D9               	rlcf	fsr2l,f,c
  2080  001260  36DA               	rlcf	fsr2h,f,c
  2081  001262  51C6               	movf	??_FNC& (0+255),w,b
  2082  001264  26D9               	addwf	fsr2l,f,c
  2083  001266  51C7               	movf	(??_FNC+1)& (0+255),w,b
  2084  001268  22DA               	addwfc	fsr2h,f,c
  2085  00126A  CFDE F06A          	movff	postinc2,updatePlayerPositionOnLCD@newX
  2086  00126E  CFDD F06B          	movff	postdec2,updatePlayerPositionOnLCD@newX+1
  2087  001272  0E80               	movlw	low _gameState
  2088  001274  6FC8               	movwf	(??_FNC+2)& (0+255),b
  2089  001276  0E00               	movlw	high _gameState
  2090  001278  6FC9               	movwf	(??_FNC+3)& (0+255),b
  2091  00127A  0E02               	movlw	2
  2092  00127C  27C8               	addwf	(??_FNC+2)& (0+255),f,b
  2093  00127E  0E00               	movlw	0
  2094  001280  23C9               	addwfc	(??_FNC+3)& (0+255),f,b
  2095  001282  90D8               	bcf	status,0,c
  2096  001284  3594               	rlcf	(_gameState+20)& (0+255),w,b
  2097  001286  6ED9               	movwf	fsr2l,c
  2098  001288  3595               	rlcf	(_gameState+21)& (0+255),w,b
  2099  00128A  6EDA               	movwf	fsr2h,c
  2100  00128C  90D8               	bcf	status,0,c
  2101  00128E  36D9               	rlcf	fsr2l,f,c
  2102  001290  36DA               	rlcf	fsr2h,f,c
  2103  001292  51C8               	movf	(??_FNC+2)& (0+255),w,b
  2104  001294  26D9               	addwf	fsr2l,f,c
  2105  001296  51C9               	movf	(??_FNC+3)& (0+255),w,b
  2106  001298  22DA               	addwfc	fsr2h,f,c
  2107  00129A  CFDE F06C          	movff	postinc2,updatePlayerPositionOnLCD@newY
  2108  00129E  CFDD F06D          	movff	postdec2,updatePlayerPositionOnLCD@newY+1
  2109  0012A2  C094  F06E         	movff	_gameState+20,updatePlayerPositionOnLCD@selectedPlayer
  2110  0012A6  C095  F06F         	movff	_gameState+21,updatePlayerPositionOnLCD@selectedPlayer+1
  2111  0012AA  EC33  F00F         	call	_updatePlayerPositionOnLCD	;wreg free
  2112  0012AE                     
  2113                           ;newmain.c: 124:         INTCONbits.RBIF = 0;
  2114  0012AE  90F2               	bcf	242,0,c	;volatile
  2115  0012B0                     i2l2279:
  2116                           
  2117                           ;newmain.c: 126:     if (TMR0IF) {
  2118  0012B0  A4F2               	btfss	4082,2,c	;volatile
  2119  0012B2  EF5D  F009         	goto	i2u169_41
  2120  0012B6  EF5F  F009         	goto	i2u169_40
  2121  0012BA                     i2u169_41:
  2122  0012BA  EFB5  F009         	goto	i2l2307
  2123  0012BE                     i2u169_40:
  2124  0012BE                     
  2125                           ;newmain.c: 127:         TMR0IF = 0;
  2126  0012BE  94F2               	bcf	4082,2,c	;volatile
  2127  0012C0                     
  2128                           ;newmain.c: 128:         TMR0 = 100;
  2129  0012C0  0E00               	movlw	0
  2130  0012C2  6ED7               	movwf	215,c	;volatile
  2131  0012C4  0E64               	movlw	100
  2132  0012C6  6ED6               	movwf	214,c	;volatile
  2133                           
  2134                           ;newmain.c: 130:         switch (display_state) {
  2135  0012C8  EF8A  F009         	goto	i2l2303
  2136  0012CC                     i2l2285:
  2137                           
  2138                           ; BSR set to: 0
  2139                           ;newmain.c: 132:                 TRISA = 0b00000000;
  2140  0012CC  0E00               	movlw	0
  2141  0012CE  6E92               	movwf	146,c	;volatile
  2142  0012D0                     
  2143                           ; BSR set to: 0
  2144                           ;newmain.c: 133:                 PORTD = digits[gameState.teamA_score];
  2145  0012D0  0E66               	movlw	low _digits
  2146  0012D2  2596               	addwf	(_gameState+22)& (0+255),w,b
  2147  0012D4  6ED9               	movwf	fsr2l,c
  2148  0012D6  0E01               	movlw	high _digits
  2149  0012D8  2197               	addwfc	(_gameState+23)& (0+255),w,b
  2150  0012DA  6EDA               	movwf	fsr2h,c
  2151  0012DC  50DF               	movf	indf2,w,c
  2152  0012DE  6E83               	movwf	131,c	;volatile
  2153  0012E0                     
  2154                           ; BSR set to: 0
  2155                           ;newmain.c: 134:                 PORTA = 0b00001000;
  2156  0012E0  0E08               	movlw	8
  2157  0012E2  6E80               	movwf	128,c	;volatile
  2158                           
  2159                           ;newmain.c: 135:                 break;
  2160  0012E4  EFA5  F009         	goto	i2l2305
  2161  0012E8                     i2l2291:
  2162                           
  2163                           ; BSR set to: 0
  2164                           ;newmain.c: 137:                 TRISA = 0b00000000;
  2165  0012E8  0E00               	movlw	0
  2166  0012EA  6E92               	movwf	146,c	;volatile
  2167  0012EC                     
  2168                           ; BSR set to: 0
  2169                           ;newmain.c: 138:                 PORTD = dash;
  2170  0012EC  C09C  FF83         	movff	_dash,3971	;volatile
  2171                           
  2172                           ;newmain.c: 139:                 LATA = 0b00010000;
  2173  0012F0  0E10               	movlw	16
  2174  0012F2  6E89               	movwf	137,c	;volatile
  2175                           
  2176                           ;newmain.c: 140:                 break;
  2177  0012F4  EFA5  F009         	goto	i2l2305
  2178  0012F8                     i2l2295:
  2179                           
  2180                           ; BSR set to: 0
  2181                           ;newmain.c: 142:                 TRISA = 0b00000000;
  2182  0012F8  0E00               	movlw	0
  2183  0012FA  6E92               	movwf	146,c	;volatile
  2184  0012FC                     
  2185                           ; BSR set to: 0
  2186                           ;newmain.c: 143:                 PORTD = digits[gameState.teamB_score];
  2187  0012FC  0E66               	movlw	low _digits
  2188  0012FE  2598               	addwf	(_gameState+24)& (0+255),w,b
  2189  001300  6ED9               	movwf	fsr2l,c
  2190  001302  0E01               	movlw	high _digits
  2191  001304  2199               	addwfc	(_gameState+25)& (0+255),w,b
  2192  001306  6EDA               	movwf	fsr2h,c
  2193  001308  50DF               	movf	indf2,w,c
  2194  00130A  6E83               	movwf	131,c	;volatile
  2195  00130C                     
  2196                           ; BSR set to: 0
  2197                           ;newmain.c: 144:                 LATA = 0b00100000;
  2198  00130C  0E20               	movlw	32
  2199  00130E  6E89               	movwf	137,c	;volatile
  2200                           
  2201                           ;newmain.c: 145:                 break;
  2202  001310  EFA5  F009         	goto	i2l2305
  2203  001314                     i2l2303:
  2204  001314  C07C  F0C6         	movff	_display_state,??_FNC	;volatile
  2205  001318  C07D  F0C7         	movff	_display_state+1,??_FNC+1	;volatile
  2206                           
  2207                           ; Switch on 2 bytes has been partitioned into a top level switch of size 1, and 1 sub-sw
      +                          itches
  2208                           ; Switch size 1, requested type "simple"
  2209                           ; Number of cases is 1, Range of values is 0 to 0
  2210                           ; switch strategies available:
  2211                           ; Name         Instructions Cycles
  2212                           ; simple_byte            4     3 (average)
  2213                           ;	Chosen strategy is simple_byte
  2214  00131C  0100               	movlb	0	; () banked
  2215  00131E  51C7               	movf	(??_FNC+1)& (0+255),w,b
  2216  001320  0A00               	xorlw	0	; case 0
  2217  001322  B4D8               	btfsc	status,2,c
  2218  001324  EF96  F009         	goto	i2l2629
  2219  001328  EFA5  F009         	goto	i2l2305
  2220  00132C                     i2l2629:
  2221                           
  2222                           ; BSR set to: 0
  2223                           ; Switch size 1, requested type "simple"
  2224                           ; Number of cases is 3, Range of values is 0 to 2
  2225                           ; switch strategies available:
  2226                           ; Name         Instructions Cycles
  2227                           ; simple_byte           10     6 (average)
  2228                           ;	Chosen strategy is simple_byte
  2229  00132C  51C6               	movf	??_FNC& (0+255),w,b
  2230  00132E  0A00               	xorlw	0	; case 0
  2231  001330  B4D8               	btfsc	status,2,c
  2232  001332  EF66  F009         	goto	i2l2285
  2233  001336  0A01               	xorlw	1	; case 1
  2234  001338  B4D8               	btfsc	status,2,c
  2235  00133A  EF74  F009         	goto	i2l2291
  2236  00133E  0A03               	xorlw	3	; case 2
  2237  001340  B4D8               	btfsc	status,2,c
  2238  001342  EF7C  F009         	goto	i2l2295
  2239  001346  EFA5  F009         	goto	i2l2305
  2240  00134A                     i2l2305:
  2241                           
  2242                           ; BSR set to: 0
  2243                           ;newmain.c: 148:         display_state = (display_state + 1) % 3;
  2244  00134A  0E01               	movlw	1
  2245  00134C  247C               	addwf	_display_state^0,w,c	;volatile
  2246  00134E  6E01               	movwf	___awmod@dividend^0,c
  2247  001350  0E00               	movlw	0
  2248  001352  207D               	addwfc	(_display_state+1)^0,w,c	;volatile
  2249  001354  6E02               	movwf	(___awmod@dividend+1)^0,c
  2250  001356  0E00               	movlw	0
  2251  001358  6E04               	movwf	(___awmod@divisor+1)^0,c
  2252  00135A  0E03               	movlw	3
  2253  00135C  6E03               	movwf	___awmod@divisor^0,c
  2254  00135E  EC89  F00E         	call	___awmod	;wreg free
  2255  001362  C001  F07C         	movff	?___awmod,_display_state	;volatile
  2256  001366  C002  F07D         	movff	?___awmod+1,_display_state+1	;volatile
  2257  00136A                     i2l2307:
  2258                           
  2259                           ;newmain.c: 151:     if(INTCONbits.INT0IF)
  2260  00136A  A2F2               	btfss	242,1,c	;volatile
  2261  00136C  EFBA  F009         	goto	i2u170_41
  2262  001370  EFBC  F009         	goto	i2u170_40
  2263  001374                     i2u170_41:
  2264  001374  EFC0  F009         	goto	i2l2313
  2265  001378                     i2u170_40:
  2266  001378                     
  2267                           ;newmain.c: 152:     {;newmain.c: 154:         CONVERT = 1;
  2268  001378  0E01               	movlw	1
  2269  00137A  0100               	movlb	0	; () banked
  2270  00137C  6FE5               	movwf	_CONVERT& (0+255),b	;volatile
  2271  00137E                     
  2272                           ; BSR set to: 0
  2273                           ;newmain.c: 155:         INTCONbits.INT0IF = 0;
  2274  00137E  92F2               	bcf	242,1,c	;volatile
  2275  001380                     i2l2313:
  2276                           
  2277                           ;newmain.c: 158:      last_interrupt_time = interrupt_time;
  2278  001380  C076  F0DB         	movff	FNC@interrupt_time,FNC@last_interrupt_time
  2279  001384  C077  F0DC         	movff	FNC@interrupt_time+1,FNC@last_interrupt_time+1
  2280  001388  C078  F0DD         	movff	FNC@interrupt_time+2,FNC@last_interrupt_time+2
  2281  00138C  C079  F0DE         	movff	FNC@interrupt_time+3,FNC@last_interrupt_time+3
  2282  001390  C0D7  FFF5         	movff	??_FNC+17,tablat
  2283  001394  C0D6  FFF8         	movff	??_FNC+16,tblptru
  2284  001398  C0D5  FFF7         	movff	??_FNC+15,tblptrh
  2285  00139C  C0D4  FFF6         	movff	??_FNC+14,tblptrl
  2286  0013A0  C0D3  FFF4         	movff	??_FNC+13,prodh
  2287  0013A4  C0D2  FFF3         	movff	??_FNC+12,prodl
  2288  0013A8  C0D1  FFDA         	movff	??_FNC+11,fsr2h
  2289  0013AC  C0D0  FFD9         	movff	??_FNC+10,fsr2l
  2290  0013B0  C0CF  FFE2         	movff	??_FNC+9,fsr1h
  2291  0013B4  C0CE  FFE1         	movff	??_FNC+8,fsr1l
  2292  0013B8  C0CD  FFEA         	movff	??_FNC+7,fsr0h
  2293  0013BC  C0CC  FFE9         	movff	??_FNC+6,fsr0l
  2294  0013C0  C0CB  FFFB         	movff	??_FNC+5,pclatu
  2295  0013C4  C0CA  FFFA         	movff	??_FNC+4,pclath
  2296  0013C8  927F               	bcf	int$flags,1,c	;clear compiler interrupt flag (level 2)
  2297  0013CA  0011               	retfie		f
  2298  0013CC                     __end_of_FNC:
  2299                           	callstack 0
  2300                           
  2301 ;; *************** function _updatePlayerPositionOnLCD *****************
  2302 ;; Defined at:
  2303 ;;		line 72 in file "newmain.c"
  2304 ;; Parameters:    Size  Location     Type
  2305 ;;  oldX            2  101[COMRAM] int 
  2306 ;;  oldY            2  103[COMRAM] int 
  2307 ;;  newX            2  105[COMRAM] int 
  2308 ;;  newY            2  107[COMRAM] int 
  2309 ;;  selectedPlay    2  109[COMRAM] int 
  2310 ;; Auto vars:     Size  Location     Type
  2311 ;;		None
  2312 ;; Return value:  Size  Location     Type
  2313 ;;                  1    wreg      void 
  2314 ;; Registers used:
  2315 ;;		wreg, fsr1l, fsr1h, fsr2l, fsr2h, status,2, status,0, tblptrl, tblptrh, tblptru, prodl, prodh, cstack
  2316 ;; Tracked objects:
  2317 ;;		On entry : 0/0
  2318 ;;		On exit  : 0/0
  2319 ;;		Unchanged: 0/0
  2320 ;; Data sizes:     COMRAM   BANK0   BANK1   BANK2   BANK3   BANK4   BANK5   BANK6   BANK7   BANK8   BANK9  BANK10  BANK1
      +1  BANK12  BANK13  BANK14  BANK15
  2321 ;;      Params:        10       0       0       0       0       0       0       0       0       0       0       0       
      +0       0       0       0       0
  2322 ;;      Locals:         2       0       0       0       0       0       0       0       0       0       0       0       
      +0       0       0       0       0
  2323 ;;      Temps:          0       0       0       0       0       0       0       0       0       0       0       0       
      +0       0       0       0       0
  2324 ;;      Totals:        12       0       0       0       0       0       0       0       0       0       0       0       
      +0       0       0       0       0
  2325 ;;Total ram usage:       12 bytes
  2326 ;; Hardware stack levels used:    1
  2327 ;; Hardware stack levels required when called:    8
  2328 ;; This function calls:
  2329 ;;		_printf
  2330 ;;		i2_LCDAddSpecialCharacter
  2331 ;;		i2_LCDDat
  2332 ;;		i2_LCDGoto
  2333 ;; This function is called by:
  2334 ;;		_FNC
  2335 ;; This function uses a non-reentrant model
  2336 ;;
  2337                           
  2338                           	psect	text9
  2339  001E66                     __ptext9:
  2340                           	callstack 0
  2341  001E66                     _updatePlayerPositionOnLCD:
  2342                           	callstack 19
  2343  001E66                     
  2344                           ;newmain.c: 72: void updatePlayerPositionOnLCD(int oldX, int oldY, int newX, int newY, i
      +                          nt selectedPlayer);newmain.c: 73: {;newmain.c: 74:     printf("Updating player position 
      +                          from (%d, %d) to (%d, %d)\n", oldX, oldY, newX, newY);
  2345  001E66  0E01               	movlw	low STR_1
  2346  001E68  6E58               	movwf	printf@fmt^0,c
  2347  001E6A  0E10               	movlw	high STR_1
  2348  001E6C  6E59               	movwf	(printf@fmt+1)^0,c
  2349  001E6E  C066  F05A         	movff	updatePlayerPositionOnLCD@oldX,?_printf+2
  2350  001E72  C067  F05B         	movff	updatePlayerPositionOnLCD@oldX+1,?_printf+3
  2351  001E76  C068  F05C         	movff	updatePlayerPositionOnLCD@oldY,?_printf+4
  2352  001E7A  C069  F05D         	movff	updatePlayerPositionOnLCD@oldY+1,?_printf+5
  2353  001E7E  C06A  F05E         	movff	updatePlayerPositionOnLCD@newX,?_printf+6
  2354  001E82  C06B  F05F         	movff	updatePlayerPositionOnLCD@newX+1,?_printf+7
  2355  001E86  C06C  F060         	movff	updatePlayerPositionOnLCD@newY,?_printf+8
  2356  001E8A  C06D  F061         	movff	updatePlayerPositionOnLCD@newY+1,?_printf+9
  2357  001E8E  ECF3  F011         	call	_printf	;wreg free
  2358  001E92                     
  2359                           ;newmain.c: 76:     LCDAddSpecialCharacter(selectedPlayer, empty);
  2360  001E92  0EE6               	movlw	low _empty
  2361  001E94  6E03               	movwf	i2LCDAddSpecialCharacter@data^0,c
  2362  001E96  0E00               	movlw	high _empty
  2363  001E98  6E04               	movwf	(i2LCDAddSpecialCharacter@data+1)^0,c
  2364  001E9A  506E               	movf	updatePlayerPositionOnLCD@selectedPlayer^0,w,c
  2365  001E9C  EC57  F011         	call	i2_LCDAddSpecialCharacter
  2366  001EA0                     
  2367                           ;newmain.c: 77:     LCDGoto(oldX, oldY);
  2368  001EA0  C068  F003         	movff	updatePlayerPositionOnLCD@oldY,i2LCDGoto@p_1
  2369  001EA4  5066               	movf	updatePlayerPositionOnLCD@oldX^0,w,c
  2370  001EA6  EC4B  F010         	call	i2_LCDGoto
  2371  001EAA                     
  2372                           ;newmain.c: 78:     LCDDat(selectedPlayer);
  2373  001EAA  506E               	movf	updatePlayerPositionOnLCD@selectedPlayer^0,w,c
  2374  001EAC  ECC2  F011         	call	i2_LCDDat
  2375  001EB0                     
  2376                           ;newmain.c: 81:     LCDAddSpecialCharacter(selectedPlayer, selectedPlayer < 2 ? selected
      +                          _teamA_player : selected_teamB_player);
  2377  001EB0  BE6F               	btfsc	(updatePlayerPositionOnLCD@selectedPlayer+1)^0,7,c
  2378  001EB2  EF64  F00F         	goto	i2u140_41
  2379  001EB6  506F               	movf	(updatePlayerPositionOnLCD@selectedPlayer+1)^0,w,c
  2380  001EB8  E109               	bnz	i2u140_40
  2381  001EBA  0E02               	movlw	2
  2382  001EBC  5C6E               	subwf	updatePlayerPositionOnLCD@selectedPlayer^0,w,c
  2383  001EBE  A0D8               	btfss	status,0,c
  2384  001EC0  EF64  F00F         	goto	i2u140_41
  2385  001EC4  EF66  F00F         	goto	i2u140_40
  2386  001EC8                     i2u140_41:
  2387  001EC8  EF6C  F00F         	goto	i2l2115
  2388  001ECC                     i2u140_40:
  2389  001ECC  0EA6               	movlw	low _selected_teamB_player
  2390  001ECE  6E70               	movwf	_updatePlayerPositionOnLCD$674^0,c
  2391  001ED0  0E00               	movlw	high _selected_teamB_player
  2392  001ED2  6E71               	movwf	(_updatePlayerPositionOnLCD$674+1)^0,c
  2393  001ED4  EF70  F00F         	goto	i2l2117
  2394  001ED8                     i2l2115:
  2395  001ED8  0EAE               	movlw	low _selected_teamA_player
  2396  001EDA  6E70               	movwf	_updatePlayerPositionOnLCD$674^0,c
  2397  001EDC  0E00               	movlw	high _selected_teamA_player
  2398  001EDE  6E71               	movwf	(_updatePlayerPositionOnLCD$674+1)^0,c
  2399  001EE0                     i2l2117:
  2400  001EE0  C070  F003         	movff	_updatePlayerPositionOnLCD$674,i2LCDAddSpecialCharacter@data
  2401  001EE4  C071  F004         	movff	_updatePlayerPositionOnLCD$674+1,i2LCDAddSpecialCharacter@data+1
  2402  001EE8  506E               	movf	updatePlayerPositionOnLCD@selectedPlayer^0,w,c
  2403  001EEA  EC57  F011         	call	i2_LCDAddSpecialCharacter
  2404  001EEE                     
  2405                           ;newmain.c: 82:     LCDGoto(newX, newY);
  2406  001EEE  C06C  F003         	movff	updatePlayerPositionOnLCD@newY,i2LCDGoto@p_1
  2407  001EF2  506A               	movf	updatePlayerPositionOnLCD@newX^0,w,c
  2408  001EF4  EC4B  F010         	call	i2_LCDGoto
  2409  001EF8                     
  2410                           ;newmain.c: 83:     LCDDat(selectedPlayer);
  2411  001EF8  506E               	movf	updatePlayerPositionOnLCD@selectedPlayer^0,w,c
  2412  001EFA  ECC2  F011         	call	i2_LCDDat
  2413  001EFE  0012               	return		;funcret
  2414  001F00                     __end_of_updatePlayerPositionOnLCD:
  2415                           	callstack 0
  2416                           
  2417 ;; *************** function i2_LCDGoto *****************
  2418 ;; Defined at:
  2419 ;;		line 72 in file "./LCD.h"
  2420 ;; Parameters:    Size  Location     Type
  2421 ;;  p_2             1    wreg     unsigned char 
  2422 ;;  p_1             1    2[COMRAM] unsigned char 
  2423 ;; Auto vars:     Size  Location     Type
  2424 ;;  p_2             1    3[COMRAM] unsigned char 
  2425 ;; Return value:  Size  Location     Type
  2426 ;;                  1    wreg      void 
  2427 ;; Registers used:
  2428 ;;		wreg, status,2, status,0, cstack
  2429 ;; Tracked objects:
  2430 ;;		On entry : 0/0
  2431 ;;		On exit  : 0/0
  2432 ;;		Unchanged: 0/0
  2433 ;; Data sizes:     COMRAM   BANK0   BANK1   BANK2   BANK3   BANK4   BANK5   BANK6   BANK7   BANK8   BANK9  BANK10  BANK1
      +1  BANK12  BANK13  BANK14  BANK15
  2434 ;;      Params:         1       0       0       0       0       0       0       0       0       0       0       0       
      +0       0       0       0       0
  2435 ;;      Locals:         1       0       0       0       0       0       0       0       0       0       0       0       
      +0       0       0       0       0
  2436 ;;      Temps:          0       0       0       0       0       0       0       0       0       0       0       0       
      +0       0       0       0       0
  2437 ;;      Totals:         2       0       0       0       0       0       0       0       0       0       0       0       
      +0       0       0       0       0
  2438 ;;Total ram usage:        2 bytes
  2439 ;; Hardware stack levels used:    1
  2440 ;; Hardware stack levels required when called:    1
  2441 ;; This function calls:
  2442 ;;		i2_LCDCmd
  2443 ;; This function is called by:
  2444 ;;		_updatePlayerPositionOnLCD
  2445 ;; This function uses a non-reentrant model
  2446 ;;
  2447                           
  2448                           	psect	text10
  2449  002096                     __ptext10:
  2450                           	callstack 0
  2451  002096                     i2_LCDGoto:
  2452                           	callstack 25
  2453                           
  2454                           ;incstack = 0
  2455                           ;i2LCDGoto@p_2 stored from wreg
  2456  002096  6E04               	movwf	i2LCDGoto@p_2^0,c
  2457  002098                     
  2458                           ;./LCD.h: 73:   if(p_1==1) {
  2459  002098  0403               	decf	i2LCDGoto@p_1^0,w,c
  2460  00209A  A4D8               	btfss	status,2,c
  2461  00209C  EF52  F010         	goto	i2u131_41
  2462  0020A0  EF54  F010         	goto	i2u131_40
  2463  0020A4                     i2u131_41:
  2464  0020A4  EF5B  F010         	goto	i2l2013
  2465  0020A8                     i2u131_40:
  2466  0020A8                     
  2467                           ;./LCD.h: 74:     LCDCmd(0x80 +((p_2-1)%16));
  2468  0020A8  0404               	decf	i2LCDGoto@p_2^0,w,c
  2469  0020AA  0B0F               	andlw	15
  2470  0020AC  0F80               	addlw	128
  2471  0020AE  ECDB  F011         	call	i2_LCDCmd
  2472                           
  2473                           ;./LCD.h: 75:   }
  2474  0020B2  EF80  F010         	goto	i2l2023
  2475  0020B6                     i2l2013:
  2476  0020B6  0E02               	movlw	2
  2477  0020B8  1803               	xorwf	i2LCDGoto@p_1^0,w,c
  2478  0020BA  A4D8               	btfss	status,2,c
  2479  0020BC  EF62  F010         	goto	i2u132_41
  2480  0020C0  EF64  F010         	goto	i2u132_40
  2481  0020C4                     i2u132_41:
  2482  0020C4  EF6B  F010         	goto	i2l2017
  2483  0020C8                     i2u132_40:
  2484  0020C8                     
  2485                           ;./LCD.h: 77:     LCDCmd(0xC0 +((p_2-1)%16));
  2486  0020C8  0404               	decf	i2LCDGoto@p_2^0,w,c
  2487  0020CA  0B0F               	andlw	15
  2488  0020CC  0FC0               	addlw	192
  2489  0020CE  ECDB  F011         	call	i2_LCDCmd
  2490                           
  2491                           ;./LCD.h: 78:   }
  2492  0020D2  EF80  F010         	goto	i2l2023
  2493  0020D6                     i2l2017:
  2494  0020D6  0E03               	movlw	3
  2495  0020D8  1803               	xorwf	i2LCDGoto@p_1^0,w,c
  2496  0020DA  A4D8               	btfss	status,2,c
  2497  0020DC  EF72  F010         	goto	i2u133_41
  2498  0020E0  EF74  F010         	goto	i2u133_40
  2499  0020E4                     i2u133_41:
  2500  0020E4  EF7B  F010         	goto	i2l2021
  2501  0020E8                     i2u133_40:
  2502  0020E8                     
  2503                           ;./LCD.h: 80:     LCDCmd(0x90 +((p_2-1)%16));
  2504  0020E8  0404               	decf	i2LCDGoto@p_2^0,w,c
  2505  0020EA  0B0F               	andlw	15
  2506  0020EC  0F90               	addlw	144
  2507  0020EE  ECDB  F011         	call	i2_LCDCmd
  2508                           
  2509                           ;./LCD.h: 81:   }
  2510  0020F2  EF80  F010         	goto	i2l2023
  2511  0020F6                     i2l2021:
  2512                           
  2513                           ;./LCD.h: 83:     LCDCmd(0xD0 +((p_2-1)%16));
  2514  0020F6  0404               	decf	i2LCDGoto@p_2^0,w,c
  2515  0020F8  0B0F               	andlw	15
  2516  0020FA  0FD0               	addlw	208
  2517  0020FC  ECDB  F011         	call	i2_LCDCmd
  2518  002100                     i2l2023:
  2519                           
  2520                           ;./LCD.h: 85:   lcd_x = p_2;
  2521  002100  C004  F07E         	movff	i2LCDGoto@p_2,_lcd_x
  2522  002104                     
  2523                           ;./LCD.h: 86:   lcd_y = p_1;
  2524  002104  C003  F09D         	movff	i2LCDGoto@p_1,_lcd_y
  2525  002108  0012               	return		;funcret
  2526  00210A                     __end_ofi2_LCDGoto:
  2527                           	callstack 0
  2528                           
  2529 ;; *************** function i2_LCDAddSpecialCharacter *****************
  2530 ;; Defined at:
  2531 ;;		line 129 in file "./LCD.h"
  2532 ;; Parameters:    Size  Location     Type
  2533 ;;  character_in    1    wreg     unsigned char 
  2534 ;;  data            2    2[COMRAM] PTR unsigned char 
  2535 ;;		 -> frisbee(8), teamB_player(8), teamA_player(8), selected_teamB_player(8), 
  2536 ;;		 -> selected_teamA_player(8), empty(8), 
  2537 ;; Auto vars:     Size  Location     Type
  2538 ;;  character_in    1    4[COMRAM] unsigned char 
  2539 ;;  i               1    5[COMRAM] unsigned char 
  2540 ;; Return value:  Size  Location     Type
  2541 ;;                  1    wreg      void 
  2542 ;; Registers used:
  2543 ;;		wreg, fsr2l, fsr2h, status,2, status,0, prodl, prodh, cstack
  2544 ;; Tracked objects:
  2545 ;;		On entry : 0/0
  2546 ;;		On exit  : 0/0
  2547 ;;		Unchanged: 0/0
  2548 ;; Data sizes:     COMRAM   BANK0   BANK1   BANK2   BANK3   BANK4   BANK5   BANK6   BANK7   BANK8   BANK9  BANK10  BANK1
      +1  BANK12  BANK13  BANK14  BANK15
  2549 ;;      Params:         2       0       0       0       0       0       0       0       0       0       0       0       
      +0       0       0       0       0
  2550 ;;      Locals:         2       0       0       0       0       0       0       0       0       0       0       0       
      +0       0       0       0       0
  2551 ;;      Temps:          0       0       0       0       0       0       0       0       0       0       0       0       
      +0       0       0       0       0
  2552 ;;      Totals:         4       0       0       0       0       0       0       0       0       0       0       0       
      +0       0       0       0       0
  2553 ;;Total ram usage:        4 bytes
  2554 ;; Hardware stack levels used:    1
  2555 ;; Hardware stack levels required when called:    1
  2556 ;; This function calls:
  2557 ;;		i2_LCDCmd
  2558 ;;		i2_LCDDat
  2559 ;; This function is called by:
  2560 ;;		_updatePlayerPositionOnLCD
  2561 ;; This function uses a non-reentrant model
  2562 ;;
  2563                           
  2564                           	psect	text11
  2565  0022AE                     __ptext11:
  2566                           	callstack 0
  2567  0022AE                     i2_LCDAddSpecialCharacter:
  2568                           	callstack 25
  2569                           
  2570                           ;incstack = 0
  2571                           ;i2LCDAddSpecialCharacter@character_index stored from wreg
  2572  0022AE  6E05               	movwf	i2LCDAddSpecialCharacter@character_index^0,c
  2573  0022B0                     
  2574                           ;./LCD.h: 135:     LCDCmd(0b01000000+(character_index*8));
  2575  0022B0  5005               	movf	i2LCDAddSpecialCharacter@character_index^0,w,c
  2576  0022B2  0D08               	mullw	8
  2577  0022B4  50F3               	movf	243,w,c
  2578  0022B6  0F40               	addlw	64
  2579  0022B8  ECDB  F011         	call	i2_LCDCmd
  2580  0022BC                     
  2581                           ;./LCD.h: 136:     for(byte i=0; i < 8; i++) {
  2582  0022BC  0E00               	movlw	0
  2583  0022BE  6E06               	movwf	i2LCDAddSpecialCharacter@i^0,c
  2584  0022C0                     i2l2035:
  2585                           
  2586                           ;./LCD.h: 137:         LCDDat(data[i]);
  2587  0022C0  5006               	movf	i2LCDAddSpecialCharacter@i^0,w,c
  2588  0022C2  2403               	addwf	i2LCDAddSpecialCharacter@data^0,w,c
  2589  0022C4  6ED9               	movwf	fsr2l,c
  2590  0022C6  0E00               	movlw	0
  2591  0022C8  2004               	addwfc	(i2LCDAddSpecialCharacter@data+1)^0,w,c
  2592  0022CA  6EDA               	movwf	fsr2h,c
  2593  0022CC  50DF               	movf	indf2,w,c
  2594  0022CE  ECC2  F011         	call	i2_LCDDat
  2595  0022D2                     
  2596                           ;./LCD.h: 138:     }
  2597  0022D2  2A06               	incf	i2LCDAddSpecialCharacter@i^0,f,c
  2598  0022D4  0E07               	movlw	7
  2599  0022D6  6406               	cpfsgt	i2LCDAddSpecialCharacter@i^0,c
  2600  0022D8  EF70  F011         	goto	i2u134_41
  2601  0022DC  EF72  F011         	goto	i2u134_40
  2602  0022E0                     i2u134_41:
  2603  0022E0  EF60  F011         	goto	i2l2035
  2604  0022E4                     i2u134_40:
  2605  0022E4  0012               	return		;funcret
  2606  0022E6                     __end_ofi2_LCDAddSpecialCharacter:
  2607                           	callstack 0
  2608                           
  2609 ;; *************** function i2_LCDDat *****************
  2610 ;; Defined at:
  2611 ;;		line 58 in file "./LCD.h"
  2612 ;; Parameters:    Size  Location     Type
  2613 ;;  dat             1    wreg     unsigned char 
  2614 ;; Auto vars:     Size  Location     Type
  2615 ;;  dat             1    1[COMRAM] unsigned char 
  2616 ;; Return value:  Size  Location     Type
  2617 ;;                  1    wreg      void 
  2618 ;; Registers used:
  2619 ;;		wreg
  2620 ;; Tracked objects:
  2621 ;;		On entry : 0/0
  2622 ;;		On exit  : 0/0
  2623 ;;		Unchanged: 0/0
  2624 ;; Data sizes:     COMRAM   BANK0   BANK1   BANK2   BANK3   BANK4   BANK5   BANK6   BANK7   BANK8   BANK9  BANK10  BANK1
      +1  BANK12  BANK13  BANK14  BANK15
  2625 ;;      Params:         0       0       0       0       0       0       0       0       0       0       0       0       
      +0       0       0       0       0
  2626 ;;      Locals:         1       0       0       0       0       0       0       0       0       0       0       0       
      +0       0       0       0       0
  2627 ;;      Temps:          1       0       0       0       0       0       0       0       0       0       0       0       
      +0       0       0       0       0
  2628 ;;      Totals:         2       0       0       0       0       0       0       0       0       0       0       0       
      +0       0       0       0       0
  2629 ;;Total ram usage:        2 bytes
  2630 ;; Hardware stack levels used:    1
  2631 ;; This function calls:
  2632 ;;		Nothing
  2633 ;; This function is called by:
  2634 ;;		_updatePlayerPositionOnLCD
  2635 ;;		i2_LCDAddSpecialCharacter
  2636 ;; This function uses a non-reentrant model
  2637 ;;
  2638                           
  2639                           	psect	text12
  2640  002384                     __ptext12:
  2641                           	callstack 0
  2642  002384                     i2_LCDDat:
  2643                           	callstack 26
  2644                           
  2645                           ;incstack = 0
  2646                           ;i2LCDDat@dat stored from wreg
  2647  002384  6E02               	movwf	i2LCDDat@dat^0,c
  2648  002386                     
  2649                           ;./LCD.h: 59:   PORTEbits.RE1 = 0;
  2650  002386  9284               	bcf	132,1,c	;volatile
  2651                           
  2652                           ;./LCD.h: 60:   PORTEbits.RE2 = 1;
  2653  002388  8484               	bsf	132,2,c	;volatile
  2654  00238A                     
  2655                           ;./LCD.h: 61:   PORTD = dat;
  2656  00238A  C002  FF83         	movff	i2LCDDat@dat,3971	;volatile
  2657  00238E                     
  2658                           ;./LCD.h: 62:   PORTEbits.RE1 = 1;
  2659  00238E  8284               	bsf	132,1,c	;volatile
  2660  002390                     
  2661                           ;./LCD.h: 63:   _delay((unsigned long)((2000)*(40000000L/4000000.0)));
  2662  002390  0E1A               	movlw	26
  2663  002392  6E01               	movwf	??i2_LCDDat^0,c
  2664  002394  0EF8               	movlw	248
  2665  002396                     i2u187_47:
  2666  002396  2EE8               	decfsz	wreg,f,c
  2667  002398  D7FE               	bra	i2u187_47
  2668  00239A  2E01               	decfsz	??i2_LCDDat^0,f,c
  2669  00239C  D7FC               	bra	i2u187_47
  2670  00239E  D000               	nop2	
  2671  0023A0                     
  2672                           ;./LCD.h: 64:   PORTEbits.RE1 = 0;
  2673  0023A0  9284               	bcf	132,1,c	;volatile
  2674  0023A2                     
  2675                           ;./LCD.h: 65:   _delay((unsigned long)((2000)*(40000000L/4000000.0)));
  2676  0023A2  0E1A               	movlw	26
  2677  0023A4  6E01               	movwf	??i2_LCDDat^0,c
  2678  0023A6  0EF8               	movlw	248
  2679  0023A8                     i2u188_47:
  2680  0023A8  2EE8               	decfsz	wreg,f,c
  2681  0023AA  D7FE               	bra	i2u188_47
  2682  0023AC  2E01               	decfsz	??i2_LCDDat^0,f,c
  2683  0023AE  D7FC               	bra	i2u188_47
  2684  0023B0  D000               	nop2	
  2685  0023B2                     
  2686                           ;./LCD.h: 66:   PORTEbits.RE2 = 0;
  2687  0023B2  9484               	bcf	132,2,c	;volatile
  2688  0023B4  0012               	return		;funcret
  2689  0023B6                     __end_ofi2_LCDDat:
  2690                           	callstack 0
  2691                           
  2692 ;; *************** function i2_LCDCmd *****************
  2693 ;; Defined at:
  2694 ;;		line 48 in file "./LCD.h"
  2695 ;; Parameters:    Size  Location     Type
  2696 ;;  cmd             1    wreg     unsigned char 
  2697 ;; Auto vars:     Size  Location     Type
  2698 ;;  cmd             1    1[COMRAM] unsigned char 
  2699 ;; Return value:  Size  Location     Type
  2700 ;;                  1    wreg      void 
  2701 ;; Registers used:
  2702 ;;		wreg
  2703 ;; Tracked objects:
  2704 ;;		On entry : 0/0
  2705 ;;		On exit  : 0/0
  2706 ;;		Unchanged: 0/0
  2707 ;; Data sizes:     COMRAM   BANK0   BANK1   BANK2   BANK3   BANK4   BANK5   BANK6   BANK7   BANK8   BANK9  BANK10  BANK1
      +1  BANK12  BANK13  BANK14  BANK15
  2708 ;;      Params:         0       0       0       0       0       0       0       0       0       0       0       0       
      +0       0       0       0       0
  2709 ;;      Locals:         1       0       0       0       0       0       0       0       0       0       0       0       
      +0       0       0       0       0
  2710 ;;      Temps:          1       0       0       0       0       0       0       0       0       0       0       0       
      +0       0       0       0       0
  2711 ;;      Totals:         2       0       0       0       0       0       0       0       0       0       0       0       
      +0       0       0       0       0
  2712 ;;Total ram usage:        2 bytes
  2713 ;; Hardware stack levels used:    1
  2714 ;; This function calls:
  2715 ;;		Nothing
  2716 ;; This function is called by:
  2717 ;;		i2_LCDGoto
  2718 ;;		i2_LCDAddSpecialCharacter
  2719 ;; This function uses a non-reentrant model
  2720 ;;
  2721                           
  2722                           	psect	text13
  2723  0023B6                     __ptext13:
  2724                           	callstack 0
  2725  0023B6                     i2_LCDCmd:
  2726                           	callstack 25
  2727                           
  2728                           ;incstack = 0
  2729                           ;i2LCDCmd@cmd stored from wreg
  2730  0023B6  6E02               	movwf	i2LCDCmd@cmd^0,c
  2731  0023B8                     
  2732                           ;./LCD.h: 49:   PORTEbits.RE1 = 0;
  2733  0023B8  9284               	bcf	132,1,c	;volatile
  2734                           
  2735                           ;./LCD.h: 50:   PORTEbits.RE2 = 0;
  2736  0023BA  9484               	bcf	132,2,c	;volatile
  2737  0023BC                     
  2738                           ;./LCD.h: 51:   PORTD = cmd;
  2739  0023BC  C002  FF83         	movff	i2LCDCmd@cmd,3971	;volatile
  2740  0023C0                     
  2741                           ;./LCD.h: 52:   PORTEbits.RE1 = 1;
  2742  0023C0  8284               	bsf	132,1,c	;volatile
  2743  0023C2                     
  2744                           ;./LCD.h: 53:   _delay((unsigned long)((2000)*(40000000L/4000000.0)));
  2745  0023C2  0E1A               	movlw	26
  2746  0023C4  6E01               	movwf	??i2_LCDCmd^0,c
  2747  0023C6  0EF8               	movlw	248
  2748  0023C8                     i2u189_47:
  2749  0023C8  2EE8               	decfsz	wreg,f,c
  2750  0023CA  D7FE               	bra	i2u189_47
  2751  0023CC  2E01               	decfsz	??i2_LCDCmd^0,f,c
  2752  0023CE  D7FC               	bra	i2u189_47
  2753  0023D0  D000               	nop2	
  2754  0023D2                     
  2755                           ;./LCD.h: 54:   PORTEbits.RE1 = 0;
  2756  0023D2  9284               	bcf	132,1,c	;volatile
  2757  0023D4                     
  2758                           ;./LCD.h: 55:   _delay((unsigned long)((2000)*(40000000L/4000000.0)));
  2759  0023D4  0E1A               	movlw	26
  2760  0023D6  6E01               	movwf	??i2_LCDCmd^0,c
  2761  0023D8  0EF8               	movlw	248
  2762  0023DA                     i2u190_47:
  2763  0023DA  2EE8               	decfsz	wreg,f,c
  2764  0023DC  D7FE               	bra	i2u190_47
  2765  0023DE  2E01               	decfsz	??i2_LCDCmd^0,f,c
  2766  0023E0  D7FC               	bra	i2u190_47
  2767  0023E2  D000               	nop2	
  2768  0023E4  0012               	return		;funcret
  2769  0023E6                     __end_ofi2_LCDCmd:
  2770                           	callstack 0
  2771                           
  2772 ;; *************** function _printf *****************
  2773 ;; Defined at:
  2774 ;;		line 5 in file "/opt/microchip/xc8/v2.30/pic/sources/c99/common/printf.c"
  2775 ;; Parameters:    Size  Location     Type
  2776 ;;  fmt             2   87[COMRAM] PTR const unsigned char 
  2777 ;;		 -> STR_1(52), 
  2778 ;; Auto vars:     Size  Location     Type
  2779 ;;  ap              2   99[COMRAM] PTR void [1]
  2780 ;;		 -> ?_printf(2), 
  2781 ;;  ret             2    0        int 
  2782 ;; Return value:  Size  Location     Type
  2783 ;;                  2   87[COMRAM] int 
  2784 ;; Registers used:
  2785 ;;		wreg, fsr1l, fsr1h, fsr2l, fsr2h, status,2, status,0, tblptrl, tblptrh, tblptru, cstack
  2786 ;; Tracked objects:
  2787 ;;		On entry : 0/0
  2788 ;;		On exit  : 0/0
  2789 ;;		Unchanged: 0/0
  2790 ;; Data sizes:     COMRAM   BANK0   BANK1   BANK2   BANK3   BANK4   BANK5   BANK6   BANK7   BANK8   BANK9  BANK10  BANK1
      +1  BANK12  BANK13  BANK14  BANK15
  2791 ;;      Params:        10       0       0       0       0       0       0       0       0       0       0       0       
      +0       0       0       0       0
  2792 ;;      Locals:         4       0       0       0       0       0       0       0       0       0       0       0       
      +0       0       0       0       0
  2793 ;;      Temps:          0       0       0       0       0       0       0       0       0       0       0       0       
      +0       0       0       0       0
  2794 ;;      Totals:        14       0       0       0       0       0       0       0       0       0       0       0       
      +0       0       0       0       0
  2795 ;;Total ram usage:       14 bytes
  2796 ;; Hardware stack levels used:    1
  2797 ;; Hardware stack levels required when called:    7
  2798 ;; This function calls:
  2799 ;;		_vfprintf
  2800 ;; This function is called by:
  2801 ;;		_updatePlayerPositionOnLCD
  2802 ;; This function uses a non-reentrant model
  2803 ;;
  2804                           
  2805                           	psect	text14
  2806  0023E6                     __ptext14:
  2807                           	callstack 0
  2808  0023E6                     _printf:
  2809                           	callstack 19
  2810  0023E6  0E5A               	movlw	low (?_printf+2)
  2811  0023E8  6E64               	movwf	printf@ap^0,c
  2812  0023EA  0E00               	movlw	high (?_printf+2)
  2813  0023EC  6E65               	movwf	(printf@ap+1)^0,c
  2814  0023EE  0E00               	movlw	0
  2815  0023F0  6E50               	movwf	vfprintf@fp^0,c
  2816  0023F2  0E00               	movlw	0
  2817  0023F4  6E51               	movwf	(vfprintf@fp+1)^0,c
  2818  0023F6  C058  F052         	movff	printf@fmt,vfprintf@fmt
  2819  0023FA  C059  F053         	movff	printf@fmt+1,vfprintf@fmt+1
  2820  0023FE  0E64               	movlw	low printf@ap
  2821  002400  6E54               	movwf	vfprintf@ap^0,c
  2822  002402  0E00               	movlw	high printf@ap
  2823  002404  6E55               	movwf	(vfprintf@ap+1)^0,c
  2824  002406  EC85  F010         	call	_vfprintf	;wreg free
  2825  00240A  0012               	return		;funcret
  2826  00240C                     __end_of_printf:
  2827                           	callstack 0
  2828                           
  2829 ;; *************** function _vfprintf *****************
  2830 ;; Defined at:
  2831 ;;		line 1390 in file "/opt/microchip/xc8/v2.30/pic/sources/c99/common/doprnt.c"
  2832 ;; Parameters:    Size  Location     Type
  2833 ;;  fp              2   79[COMRAM] PTR struct _IO_FILE
  2834 ;;		 -> NULL(0), 
  2835 ;;  fmt             2   81[COMRAM] PTR const unsigned char 
  2836 ;;		 -> STR_1(52), 
  2837 ;;  ap              2   83[COMRAM] PTR PTR void 
  2838 ;;		 -> printf@ap(2), 
  2839 ;; Auto vars:     Size  Location     Type
  2840 ;;  cfmt            2   85[COMRAM] PTR unsigned char 
  2841 ;;		 -> STR_1(52), 
  2842 ;; Return value:  Size  Location     Type
  2843 ;;                  2   79[COMRAM] int 
  2844 ;; Registers used:
  2845 ;;		wreg, fsr1l, fsr1h, fsr2l, fsr2h, status,2, status,0, tblptrl, tblptrh, tblptru, cstack
  2846 ;; Tracked objects:
  2847 ;;		On entry : 0/0
  2848 ;;		On exit  : 0/0
  2849 ;;		Unchanged: 0/0
  2850 ;; Data sizes:     COMRAM   BANK0   BANK1   BANK2   BANK3   BANK4   BANK5   BANK6   BANK7   BANK8   BANK9  BANK10  BANK1
      +1  BANK12  BANK13  BANK14  BANK15
  2851 ;;      Params:         6       0       0       0       0       0       0       0       0       0       0       0       
      +0       0       0       0       0
  2852 ;;      Locals:         2       0       0       0       0       0       0       0       0       0       0       0       
      +0       0       0       0       0
  2853 ;;      Temps:          0       0       0       0       0       0       0       0       0       0       0       0       
      +0       0       0       0       0
  2854 ;;      Totals:         8       0       0       0       0       0       0       0       0       0       0       0       
      +0       0       0       0       0
  2855 ;;Total ram usage:        8 bytes
  2856 ;; Hardware stack levels used:    1
  2857 ;; Hardware stack levels required when called:    6
  2858 ;; This function calls:
  2859 ;;		_vfpfcnvrt
  2860 ;; This function is called by:
  2861 ;;		_printf
  2862 ;; This function uses a non-reentrant model
  2863 ;;
  2864                           
  2865                           	psect	text15
  2866  00210A                     __ptext15:
  2867                           	callstack 0
  2868  00210A                     _vfprintf:
  2869                           	callstack 19
  2870  00210A                     
  2871                           ;/opt/microchip/xc8/v2.30/pic/sources/c99/common/doprnt.c: 1390: int vfprintf(FILE *fp, 
      +                          const char *fmt, va_list ap);/opt/microchip/xc8/v2.30/pic/sources/c99/common/doprnt.c: 1
      +                          391: {;/opt/microchip/xc8/v2.30/pic/sources/c99/common/doprnt.c: 1393:     char *cfmt;;/
      +                          opt/microchip/xc8/v2.30/pic/sources/c99/common/doprnt.c: 1395:     cfmt = (char *)fmt;
  2872  00210A  C052  F056         	movff	vfprintf@fmt,vfprintf@cfmt
  2873  00210E  C053  F057         	movff	vfprintf@fmt+1,vfprintf@cfmt+1
  2874  002112                     
  2875                           ;/opt/microchip/xc8/v2.30/pic/sources/c99/common/doprnt.c: 1396:     nout = 0;
  2876  002112  0E00               	movlw	0
  2877  002114  0100               	movlb	0	; () banked
  2878  002116  6FE0               	movwf	(_nout+1)& (0+255),b
  2879  002118  0E00               	movlw	0
  2880  00211A  6FDF               	movwf	_nout& (0+255),b
  2881                           
  2882                           ;/opt/microchip/xc8/v2.30/pic/sources/c99/common/doprnt.c: 1397:     while (*cfmt) {
  2883  00211C  EFA3  F010         	goto	i2l1949
  2884  002120                     i2l1947:
  2885                           
  2886                           ; BSR set to: 0
  2887                           ;/opt/microchip/xc8/v2.30/pic/sources/c99/common/doprnt.c: 1398:         nout += vfpfcnv
      +                          rt(fp, &cfmt, ap);
  2888  002120  C050  F040         	movff	vfprintf@fp,vfpfcnvrt@fp
  2889  002124  C051  F041         	movff	vfprintf@fp+1,vfpfcnvrt@fp+1
  2890  002128  0E56               	movlw	low vfprintf@cfmt
  2891  00212A  6E42               	movwf	vfpfcnvrt@fmt^0,c
  2892  00212C  0E00               	movlw	high vfprintf@cfmt
  2893  00212E  6E43               	movwf	(vfpfcnvrt@fmt+1)^0,c
  2894  002130  C054  F044         	movff	vfprintf@ap,vfpfcnvrt@ap
  2895  002134  C055  F045         	movff	vfprintf@ap+1,vfpfcnvrt@ap+1
  2896  002138  EC56  F00B         	call	_vfpfcnvrt	;wreg free
  2897  00213C  5040               	movf	?_vfpfcnvrt^0,w,c
  2898  00213E  0100               	movlb	0	; () banked
  2899  002140  27DF               	addwf	_nout& (0+255),f,b
  2900  002142  5041               	movf	(?_vfpfcnvrt+1)^0,w,c
  2901  002144  23E0               	addwfc	(_nout+1)& (0+255),f,b
  2902  002146                     i2l1949:
  2903                           
  2904                           ; BSR set to: 0
  2905                           ;/opt/microchip/xc8/v2.30/pic/sources/c99/common/doprnt.c: 1397:     while (*cfmt) {
  2906  002146  C056  FFF6         	movff	vfprintf@cfmt,tblptrl
  2907  00214A  C057  FFF7         	movff	vfprintf@cfmt+1,tblptrh
  2908  00214E                     	if	0	;tblptru may be non-zero
  2909  00214E                     	endif
  2910  00214E                     	if	0	;tblptru may be non-zero
  2911  00214E                     	endif
  2912  00214E  0008               	tblrd		*
  2913  002150  50F5               	movf	tablat,w,c
  2914  002152  0900               	iorlw	0
  2915  002154  A4D8               	btfss	status,2,c
  2916  002156  EFAF  F010         	goto	i2u130_41
  2917  00215A  EFB1  F010         	goto	i2u130_40
  2918  00215E                     i2u130_41:
  2919  00215E  EF90  F010         	goto	i2l1947
  2920  002162                     i2u130_40:
  2921  002162                     
  2922                           ; BSR set to: 0
  2923                           ;/opt/microchip/xc8/v2.30/pic/sources/c99/common/doprnt.c: 1400:     return nout;
  2924  002162  C0DF  F050         	movff	_nout,?_vfprintf
  2925  002166  C0E0  F051         	movff	_nout+1,?_vfprintf+1
  2926  00216A                     
  2927                           ; BSR set to: 0
  2928  00216A  0012               	return		;funcret
  2929  00216C                     __end_of_vfprintf:
  2930                           	callstack 0
  2931                           
  2932 ;; *************** function _vfpfcnvrt *****************
  2933 ;; Defined at:
  2934 ;;		line 692 in file "/opt/microchip/xc8/v2.30/pic/sources/c99/common/doprnt.c"
  2935 ;; Parameters:    Size  Location     Type
  2936 ;;  fp              2   63[COMRAM] PTR struct _IO_FILE
  2937 ;;		 -> NULL(0), 
  2938 ;;  fmt             2   65[COMRAM] PTR PTR unsigned char 
  2939 ;;		 -> vfprintf@cfmt(2), 
  2940 ;;  ap              2   67[COMRAM] PTR PTR void 
  2941 ;;		 -> printf@ap(2), 
  2942 ;; Auto vars:     Size  Location     Type
  2943 ;;  ll              8   71[COMRAM] long long 
  2944 ;;  llu             8    0        unsigned long long 
  2945 ;;  f               4    0        unsigned long long 
  2946 ;;  vp              3    0        PTR void 
  2947 ;;  ct              3    0        unsigned char [3]
  2948 ;;  cp              3    0        PTR unsigned char 
  2949 ;;  i               2    0        int 
  2950 ;;  done            2    0        int 
  2951 ;;  c               1    0        unsigned char 
  2952 ;; Return value:  Size  Location     Type
  2953 ;;                  2   63[COMRAM] int 
  2954 ;; Registers used:
  2955 ;;		wreg, fsr1l, fsr1h, fsr2l, fsr2h, status,2, status,0, tblptrl, tblptrh, tblptru, cstack
  2956 ;; Tracked objects:
  2957 ;;		On entry : 0/0
  2958 ;;		On exit  : 0/0
  2959 ;;		Unchanged: 0/0
  2960 ;; Data sizes:     COMRAM   BANK0   BANK1   BANK2   BANK3   BANK4   BANK5   BANK6   BANK7   BANK8   BANK9  BANK10  BANK1
      +1  BANK12  BANK13  BANK14  BANK15
  2961 ;;      Params:         6       0       0       0       0       0       0       0       0       0       0       0       
      +0       0       0       0       0
  2962 ;;      Locals:         8       0       0       0       0       0       0       0       0       0       0       0       
      +0       0       0       0       0
  2963 ;;      Temps:          2       0       0       0       0       0       0       0       0       0       0       0       
      +0       0       0       0       0
  2964 ;;      Totals:        16       0       0       0       0       0       0       0       0       0       0       0       
      +0       0       0       0       0
  2965 ;;Total ram usage:       16 bytes
  2966 ;; Hardware stack levels used:    1
  2967 ;; Hardware stack levels required when called:    5
  2968 ;; This function calls:
  2969 ;;		_dtoa
  2970 ;;		_fputc
  2971 ;; This function is called by:
  2972 ;;		_vfprintf
  2973 ;; This function uses a non-reentrant model
  2974 ;;
  2975                           
  2976                           	psect	text16
  2977  0016AC                     __ptext16:
  2978                           	callstack 0
  2979  0016AC                     _vfpfcnvrt:
  2980                           	callstack 19
  2981  0016AC                     
  2982                           ;/opt/microchip/xc8/v2.30/pic/sources/c99/common/doprnt.c: 692: static int vfpfcnvrt(FIL
      +                          E *fp, char *fmt[], va_list ap);/opt/microchip/xc8/v2.30/pic/sources/c99/common/doprnt.c
      +                          : 693: {;/opt/microchip/xc8/v2.30/pic/sources/c99/common/doprnt.c: 694:     char c, *cp,
      +                           ct[3];;/opt/microchip/xc8/v2.30/pic/sources/c99/common/doprnt.c: 695:     int done, i;;
      +                          /opt/microchip/xc8/v2.30/pic/sources/c99/common/doprnt.c: 696:     long long ll;;/opt/mi
      +                          crochip/xc8/v2.30/pic/sources/c99/common/doprnt.c: 697:     unsigned long long llu;
  2983  0016AC  C042  FFD9         	movff	vfpfcnvrt@fmt,fsr2l
  2984  0016B0  C043  FFDA         	movff	vfpfcnvrt@fmt+1,fsr2h
  2985  0016B4  CFDE FFF6          	movff	postinc2,tblptrl
  2986  0016B8  CFDD FFF7          	movff	postdec2,tblptrh
  2987  0016BC                     	if	0	;tblptru may be non-zero
  2988  0016BC                     	endif
  2989  0016BC                     	if	0	;tblptru may be non-zero
  2990  0016BC                     	endif
  2991  0016BC  0008               	tblrd		*
  2992  0016BE  50F5               	movf	tablat,w,c
  2993  0016C0  0A25               	xorlw	37
  2994  0016C2  A4D8               	btfss	status,2,c
  2995  0016C4  EF66  F00B         	goto	i2u126_41
  2996  0016C8  EF68  F00B         	goto	i2u126_40
  2997  0016CC                     i2u126_41:
  2998  0016CC  EF14  F00C         	goto	i2l1935
  2999  0016D0                     i2u126_40:
  3000  0016D0                     
  3001                           ;/opt/microchip/xc8/v2.30/pic/sources/c99/common/doprnt.c: 703:         ++*fmt;
  3002  0016D0  C042  FFD9         	movff	vfpfcnvrt@fmt,fsr2l
  3003  0016D4  C043  FFDA         	movff	vfpfcnvrt@fmt+1,fsr2h
  3004  0016D8  2ADE               	incf	postinc2,f,c
  3005  0016DA  0E00               	movlw	0
  3006  0016DC  22DD               	addwfc	postdec2,f,c
  3007  0016DE                     
  3008                           ;/opt/microchip/xc8/v2.30/pic/sources/c99/common/doprnt.c: 705:         flags = width = 
      +                          0;
  3009  0016DE  0E00               	movlw	0
  3010  0016E0  0100               	movlb	0	; () banked
  3011  0016E2  6FE2               	movwf	(_width+1)& (0+255),b
  3012  0016E4  0E00               	movlw	0
  3013  0016E6  6FE1               	movwf	_width& (0+255),b
  3014  0016E8  C0E1  F07A         	movff	_width,_flags
  3015  0016EC  C0E2  F07B         	movff	_width+1,_flags+1
  3016  0016F0                     
  3017                           ; BSR set to: 0
  3018                           ;/opt/microchip/xc8/v2.30/pic/sources/c99/common/doprnt.c: 706:         prec = -1;
  3019  0016F0  69E3               	setf	_prec& (0+255),b
  3020  0016F2  69E4               	setf	(_prec+1)& (0+255),b
  3021  0016F4                     
  3022                           ; BSR set to: 0
  3023                           ;/opt/microchip/xc8/v2.30/pic/sources/c99/common/doprnt.c: 847:         if ((*fmt[0] == 
      +                          'd') || (*fmt[0] == 'i')) {
  3024  0016F4  C042  FFD9         	movff	vfpfcnvrt@fmt,fsr2l
  3025  0016F8  C043  FFDA         	movff	vfpfcnvrt@fmt+1,fsr2h
  3026  0016FC  CFDE FFF6          	movff	postinc2,tblptrl
  3027  001700  CFDD FFF7          	movff	postdec2,tblptrh
  3028  001704                     	if	0	;tblptru may be non-zero
  3029  001704                     	endif
  3030  001704                     	if	0	;tblptru may be non-zero
  3031  001704                     	endif
  3032  001704  0008               	tblrd		*
  3033  001706  50F5               	movf	tablat,w,c
  3034  001708  0A64               	xorlw	100
  3035  00170A  B4D8               	btfsc	status,2,c
  3036  00170C  EF8A  F00B         	goto	i2u127_41
  3037  001710  EF8C  F00B         	goto	i2u127_40
  3038  001714                     i2u127_41:
  3039  001714  EF9E  F00B         	goto	i2l1913
  3040  001718                     i2u127_40:
  3041  001718                     
  3042                           ; BSR set to: 0
  3043  001718  C042  FFD9         	movff	vfpfcnvrt@fmt,fsr2l
  3044  00171C  C043  FFDA         	movff	vfpfcnvrt@fmt+1,fsr2h
  3045  001720  CFDE FFF6          	movff	postinc2,tblptrl
  3046  001724  CFDD FFF7          	movff	postdec2,tblptrh
  3047  001728                     	if	0	;tblptru may be non-zero
  3048  001728                     	endif
  3049  001728                     	if	0	;tblptru may be non-zero
  3050  001728                     	endif
  3051  001728  0008               	tblrd		*
  3052  00172A  50F5               	movf	tablat,w,c
  3053  00172C  0A69               	xorlw	105
  3054  00172E  A4D8               	btfss	status,2,c
  3055  001730  EF9C  F00B         	goto	i2u128_41
  3056  001734  EF9E  F00B         	goto	i2u128_40
  3057  001738                     i2u128_41:
  3058  001738  EFDE  F00B         	goto	i2l1919
  3059  00173C                     i2u128_40:
  3060  00173C                     i2l1913:
  3061                           
  3062                           ; BSR set to: 0
  3063                           ;/opt/microchip/xc8/v2.30/pic/sources/c99/common/doprnt.c: 849:             ++*fmt;
  3064  00173C  C042  FFD9         	movff	vfpfcnvrt@fmt,fsr2l
  3065  001740  C043  FFDA         	movff	vfpfcnvrt@fmt+1,fsr2h
  3066  001744  2ADE               	incf	postinc2,f,c
  3067  001746  0E00               	movlw	0
  3068  001748  22DD               	addwfc	postdec2,f,c
  3069                           
  3070                           ;/opt/microchip/xc8/v2.30/pic/sources/c99/common/doprnt.c: 850:             ll = (long l
      +                          ong)(*(int *)__va_arg(*(int **)ap, (int)0));
  3071  00174A  C044  FFD9         	movff	vfpfcnvrt@ap,fsr2l
  3072  00174E  C045  FFDA         	movff	vfpfcnvrt@ap+1,fsr2h
  3073  001752  CFDF F046          	movff	indf2,??_vfpfcnvrt
  3074  001756  0E02               	movlw	2
  3075  001758  26DE               	addwf	postinc2,f,c
  3076  00175A  CFDF F047          	movff	indf2,??_vfpfcnvrt+1
  3077  00175E  0E00               	movlw	0
  3078  001760  22DD               	addwfc	postdec2,f,c
  3079  001762  C046  FFD9         	movff	??_vfpfcnvrt,fsr2l
  3080  001766  C047  FFDA         	movff	??_vfpfcnvrt+1,fsr2h
  3081  00176A  CFDE F048          	movff	postinc2,vfpfcnvrt@ll
  3082  00176E  CFDD F049          	movff	postdec2,vfpfcnvrt@ll+1
  3083  001772  0E00               	movlw	0
  3084  001774  BE49               	btfsc	(vfpfcnvrt@ll+1)^0,7,c
  3085  001776  0EFF               	movlw	-1
  3086  001778  6E4A               	movwf	(vfpfcnvrt@ll+2)^0,c
  3087  00177A  6E4B               	movwf	(vfpfcnvrt@ll+3)^0,c
  3088  00177C  6E4C               	movwf	(vfpfcnvrt@ll+4)^0,c
  3089  00177E  6E4D               	movwf	(vfpfcnvrt@ll+5)^0,c
  3090  001780  6E4E               	movwf	(vfpfcnvrt@ll+6)^0,c
  3091  001782  6E4F               	movwf	(vfpfcnvrt@ll+7)^0,c
  3092  001784                     
  3093                           ; BSR set to: 0
  3094                           ;/opt/microchip/xc8/v2.30/pic/sources/c99/common/doprnt.c: 852:             return dtoa(
      +                          fp, ll);
  3095  001784  C040  F01C         	movff	vfpfcnvrt@fp,dtoa@fp
  3096  001788  C041  F01D         	movff	vfpfcnvrt@fp+1,dtoa@fp+1
  3097  00178C  C048  F01E         	movff	vfpfcnvrt@ll,dtoa@d
  3098  001790  C049  F01F         	movff	vfpfcnvrt@ll+1,dtoa@d+1
  3099  001794  C04A  F020         	movff	vfpfcnvrt@ll+2,dtoa@d+2
  3100  001798  C04B  F021         	movff	vfpfcnvrt@ll+3,dtoa@d+3
  3101  00179C  C04C  F022         	movff	vfpfcnvrt@ll+4,dtoa@d+4
  3102  0017A0  C04D  F023         	movff	vfpfcnvrt@ll+5,dtoa@d+5
  3103  0017A4  C04E  F024         	movff	vfpfcnvrt@ll+6,dtoa@d+6
  3104  0017A8  C04F  F025         	movff	vfpfcnvrt@ll+7,dtoa@d+7
  3105  0017AC  ECE6  F009         	call	_dtoa	;wreg free
  3106  0017B0  C01C  F040         	movff	?_dtoa,?_vfpfcnvrt
  3107  0017B4  C01D  F041         	movff	?_dtoa+1,?_vfpfcnvrt+1
  3108  0017B8  EF2F  F00C         	goto	i2l948
  3109  0017BC                     i2l1919:
  3110                           
  3111                           ; BSR set to: 0
  3112                           ;/opt/microchip/xc8/v2.30/pic/sources/c99/common/doprnt.c: 1372:         if ((*fmt)[0] =
      +                          = '%') {
  3113  0017BC  C042  FFD9         	movff	vfpfcnvrt@fmt,fsr2l
  3114  0017C0  C043  FFDA         	movff	vfpfcnvrt@fmt+1,fsr2h
  3115  0017C4  CFDE FFF6          	movff	postinc2,tblptrl
  3116  0017C8  CFDD FFF7          	movff	postdec2,tblptrh
  3117  0017CC                     	if	0	;tblptru may be non-zero
  3118  0017CC                     	endif
  3119  0017CC                     	if	0	;tblptru may be non-zero
  3120  0017CC                     	endif
  3121  0017CC  0008               	tblrd		*
  3122  0017CE  50F5               	movf	tablat,w,c
  3123  0017D0  0A25               	xorlw	37
  3124  0017D2  A4D8               	btfss	status,2,c
  3125  0017D4  EFEE  F00B         	goto	i2u129_41
  3126  0017D8  EFF0  F00B         	goto	i2u129_40
  3127  0017DC                     i2u129_41:
  3128  0017DC  EF07  F00C         	goto	i2l1929
  3129  0017E0                     i2u129_40:
  3130  0017E0                     
  3131                           ; BSR set to: 0
  3132                           ;/opt/microchip/xc8/v2.30/pic/sources/c99/common/doprnt.c: 1373:             ++*fmt;
  3133  0017E0  C042  FFD9         	movff	vfpfcnvrt@fmt,fsr2l
  3134  0017E4  C043  FFDA         	movff	vfpfcnvrt@fmt+1,fsr2h
  3135  0017E8  2ADE               	incf	postinc2,f,c
  3136  0017EA  0E00               	movlw	0
  3137  0017EC  22DD               	addwfc	postdec2,f,c
  3138  0017EE                     
  3139                           ; BSR set to: 0
  3140                           ;/opt/microchip/xc8/v2.30/pic/sources/c99/common/doprnt.c: 1374:             fputc((int)
      +                          '%', fp);
  3141  0017EE  0E00               	movlw	0
  3142  0017F0  6E02               	movwf	(fputc@c+1)^0,c
  3143  0017F2  0E25               	movlw	37
  3144  0017F4  6E01               	movwf	fputc@c^0,c
  3145  0017F6  C040  F003         	movff	vfpfcnvrt@fp,fputc@fp
  3146  0017FA  C041  F004         	movff	vfpfcnvrt@fp+1,fputc@fp+1
  3147  0017FE  EC80  F00F         	call	_fputc	;wreg free
  3148  001802                     i2l1925:
  3149                           
  3150                           ;/opt/microchip/xc8/v2.30/pic/sources/c99/common/doprnt.c: 1375:             return 1;
  3151  001802  0E00               	movlw	0
  3152  001804  6E41               	movwf	(?_vfpfcnvrt+1)^0,c
  3153  001806  0E01               	movlw	1
  3154  001808  6E40               	movwf	?_vfpfcnvrt^0,c
  3155  00180A  EF2F  F00C         	goto	i2l948
  3156  00180E                     i2l1929:
  3157                           
  3158                           ; BSR set to: 0
  3159                           ;/opt/microchip/xc8/v2.30/pic/sources/c99/common/doprnt.c: 1379:         ++*fmt;
  3160  00180E  C042  FFD9         	movff	vfpfcnvrt@fmt,fsr2l
  3161  001812  C043  FFDA         	movff	vfpfcnvrt@fmt+1,fsr2h
  3162  001816  2ADE               	incf	postinc2,f,c
  3163  001818  0E00               	movlw	0
  3164  00181A  22DD               	addwfc	postdec2,f,c
  3165  00181C                     
  3166                           ; BSR set to: 0
  3167                           ;/opt/microchip/xc8/v2.30/pic/sources/c99/common/doprnt.c: 1380:         return 0;
  3168  00181C  0E00               	movlw	0
  3169  00181E  6E41               	movwf	(?_vfpfcnvrt+1)^0,c
  3170  001820  0E00               	movlw	0
  3171  001822  6E40               	movwf	?_vfpfcnvrt^0,c
  3172  001824  EF2F  F00C         	goto	i2l948
  3173  001828                     i2l1935:
  3174                           
  3175                           ;/opt/microchip/xc8/v2.30/pic/sources/c99/common/doprnt.c: 1384:     fputc((int)(*fmt)[0
      +                          ], fp);
  3176  001828  C042  FFD9         	movff	vfpfcnvrt@fmt,fsr2l
  3177  00182C  C043  FFDA         	movff	vfpfcnvrt@fmt+1,fsr2h
  3178  001830  CFDE FFF6          	movff	postinc2,tblptrl
  3179  001834  CFDD FFF7          	movff	postdec2,tblptrh
  3180  001838                     	if	0	;tblptru may be non-zero
  3181  001838                     	endif
  3182  001838                     	if	0	;tblptru may be non-zero
  3183  001838                     	endif
  3184  001838  0008               	tblrd		*
  3185  00183A  50F5               	movf	tablat,w,c
  3186  00183C  6E01               	movwf	fputc@c^0,c
  3187  00183E  6A02               	clrf	(fputc@c+1)^0,c
  3188  001840  C040  F003         	movff	vfpfcnvrt@fp,fputc@fp
  3189  001844  C041  F004         	movff	vfpfcnvrt@fp+1,fputc@fp+1
  3190  001848  EC80  F00F         	call	_fputc	;wreg free
  3191  00184C                     
  3192                           ;/opt/microchip/xc8/v2.30/pic/sources/c99/common/doprnt.c: 1385:     ++*fmt;
  3193  00184C  C042  FFD9         	movff	vfpfcnvrt@fmt,fsr2l
  3194  001850  C043  FFDA         	movff	vfpfcnvrt@fmt+1,fsr2h
  3195  001854  2ADE               	incf	postinc2,f,c
  3196  001856  0E00               	movlw	0
  3197  001858  22DD               	addwfc	postdec2,f,c
  3198  00185A  EF01  F00C         	goto	i2l1925
  3199  00185E                     i2l948:
  3200  00185E  0012               	return		;funcret
  3201  001860                     __end_of_vfpfcnvrt:
  3202                           	callstack 0
  3203                           
  3204 ;; *************** function _dtoa *****************
  3205 ;; Defined at:
  3206 ;;		line 287 in file "/opt/microchip/xc8/v2.30/pic/sources/c99/common/doprnt.c"
  3207 ;; Parameters:    Size  Location     Type
  3208 ;;  fp              2   27[COMRAM] PTR struct _IO_FILE
  3209 ;;		 -> NULL(0), 
  3210 ;;  d               8   29[COMRAM] long long 
  3211 ;; Auto vars:     Size  Location     Type
  3212 ;;  n               8   53[COMRAM] long long 
  3213 ;;  i               2   61[COMRAM] int 
  3214 ;;  s               2   51[COMRAM] int 
  3215 ;;  w               2   49[COMRAM] int 
  3216 ;;  p               2   47[COMRAM] int 
  3217 ;; Return value:  Size  Location     Type
  3218 ;;                  2   27[COMRAM] int 
  3219 ;; Registers used:
  3220 ;;		wreg, fsr1l, fsr1h, fsr2l, fsr2h, status,2, status,0, cstack
  3221 ;; Tracked objects:
  3222 ;;		On entry : 0/0
  3223 ;;		On exit  : 0/0
  3224 ;;		Unchanged: 0/0
  3225 ;; Data sizes:     COMRAM   BANK0   BANK1   BANK2   BANK3   BANK4   BANK5   BANK6   BANK7   BANK8   BANK9  BANK10  BANK1
      +1  BANK12  BANK13  BANK14  BANK15
  3226 ;;      Params:        10       0       0       0       0       0       0       0       0       0       0       0       
      +0       0       0       0       0
  3227 ;;      Locals:        18       0       0       0       0       0       0       0       0       0       0       0       
      +0       0       0       0       0
  3228 ;;      Temps:          8       0       0       0       0       0       0       0       0       0       0       0       
      +0       0       0       0       0
  3229 ;;      Totals:        36       0       0       0       0       0       0       0       0       0       0       0       
      +0       0       0       0       0
  3230 ;;Total ram usage:       36 bytes
  3231 ;; Hardware stack levels used:    1
  3232 ;; Hardware stack levels required when called:    4
  3233 ;; This function calls:
  3234 ;;		___aodiv
  3235 ;;		___aomod
  3236 ;;		_abs
  3237 ;;		_pad
  3238 ;; This function is called by:
  3239 ;;		_vfpfcnvrt
  3240 ;; This function uses a non-reentrant model
  3241 ;;
  3242                           
  3243                           	psect	text17
  3244  0013CC                     __ptext17:
  3245                           	callstack 0
  3246  0013CC                     _dtoa:
  3247                           	callstack 19
  3248  0013CC                     
  3249                           ;/opt/microchip/xc8/v2.30/pic/sources/c99/common/doprnt.c: 287: static int dtoa(FILE *fp
      +                          , long long d);/opt/microchip/xc8/v2.30/pic/sources/c99/common/doprnt.c: 288: {;/opt/mic
      +                          rochip/xc8/v2.30/pic/sources/c99/common/doprnt.c: 289:     int i, p, s, w;;/opt/microchi
      +                          p/xc8/v2.30/pic/sources/c99/common/doprnt.c: 290:     long long n;;/opt/microchip/xc8/v2
      +                          .30/pic/sources/c99/common/doprnt.c: 293:     n = d;
  3250  0013CC  C01E  F036         	movff	dtoa@d,dtoa@n
  3251  0013D0  C01F  F037         	movff	dtoa@d+1,dtoa@n+1
  3252  0013D4  C020  F038         	movff	dtoa@d+2,dtoa@n+2
  3253  0013D8  C021  F039         	movff	dtoa@d+3,dtoa@n+3
  3254  0013DC  C022  F03A         	movff	dtoa@d+4,dtoa@n+4
  3255  0013E0  C023  F03B         	movff	dtoa@d+5,dtoa@n+5
  3256  0013E4  C024  F03C         	movff	dtoa@d+6,dtoa@n+6
  3257  0013E8  C025  F03D         	movff	dtoa@d+7,dtoa@n+7
  3258  0013EC                     
  3259                           ;/opt/microchip/xc8/v2.30/pic/sources/c99/common/doprnt.c: 294:     s = n < 0 ? 1 : 0;
  3260  0013EC  BE3D               	btfsc	(dtoa@n+7)^0,7,c
  3261  0013EE  EFFB  F009         	goto	i2u111_41
  3262  0013F2  EFFE  F009         	goto	i2u111_40
  3263  0013F6                     i2u111_41:
  3264  0013F6  0E01               	movlw	1
  3265  0013F8  EFFF  F009         	goto	i2u112_40
  3266  0013FC                     i2u111_40:
  3267  0013FC  0E00               	movlw	0
  3268  0013FE                     i2u112_40:
  3269  0013FE  6E34               	movwf	dtoa@s^0,c
  3270  001400  6A35               	clrf	(dtoa@s+1)^0,c
  3271                           
  3272                           ;/opt/microchip/xc8/v2.30/pic/sources/c99/common/doprnt.c: 295:     if (s) {
  3273  001402  5034               	movf	dtoa@s^0,w,c
  3274  001404  1035               	iorwf	(dtoa@s+1)^0,w,c
  3275  001406  B4D8               	btfsc	status,2,c
  3276  001408  EF08  F00A         	goto	i2u113_41
  3277  00140C  EF0A  F00A         	goto	i2u113_40
  3278  001410                     i2u113_41:
  3279  001410  EF1A  F00A         	goto	i2l1845
  3280  001414                     i2u113_40:
  3281  001414                     
  3282                           ;/opt/microchip/xc8/v2.30/pic/sources/c99/common/doprnt.c: 296:         n = -n;
  3283  001414  1E3D               	comf	(dtoa@n+7)^0,f,c
  3284  001416  1E3C               	comf	(dtoa@n+6)^0,f,c
  3285  001418  1E3B               	comf	(dtoa@n+5)^0,f,c
  3286  00141A  1E3A               	comf	(dtoa@n+4)^0,f,c
  3287  00141C  1E39               	comf	(dtoa@n+3)^0,f,c
  3288  00141E  1E38               	comf	(dtoa@n+2)^0,f,c
  3289  001420  1E37               	comf	(dtoa@n+1)^0,f,c
  3290  001422  6C36               	negf	dtoa@n^0,c
  3291  001424  0E00               	movlw	0
  3292  001426  2237               	addwfc	(dtoa@n+1)^0,f,c
  3293  001428  2238               	addwfc	(dtoa@n+2)^0,f,c
  3294  00142A  2239               	addwfc	(dtoa@n+3)^0,f,c
  3295  00142C  223A               	addwfc	(dtoa@n+4)^0,f,c
  3296  00142E  223B               	addwfc	(dtoa@n+5)^0,f,c
  3297  001430  223C               	addwfc	(dtoa@n+6)^0,f,c
  3298  001432  223D               	addwfc	(dtoa@n+7)^0,f,c
  3299  001434                     i2l1845:
  3300                           
  3301                           ;/opt/microchip/xc8/v2.30/pic/sources/c99/common/doprnt.c: 300:     if (!(prec < 0)) {
  3302  001434  0100               	movlb	0	; () banked
  3303  001436  BFE4               	btfsc	(_prec+1)& (0+255),7,b
  3304  001438  EF20  F00A         	goto	i2u114_41
  3305  00143C  EF22  F00A         	goto	i2u114_40
  3306  001440                     i2u114_41:
  3307  001440  EF23  F00A         	goto	i2l1849
  3308  001444                     i2u114_40:
  3309  001444                     
  3310                           ; BSR set to: 0
  3311                           ;/opt/microchip/xc8/v2.30/pic/sources/c99/common/doprnt.c: 301:         flags &= ~(1 << 
      +                          1);
  3312  001444  927A               	bcf	_flags^0,1,c
  3313  001446                     i2l1849:
  3314                           
  3315                           ; BSR set to: 0
  3316                           ;/opt/microchip/xc8/v2.30/pic/sources/c99/common/doprnt.c: 303:     p = (0 < prec) ? pre
      +                          c : 1;
  3317  001446  BFE4               	btfsc	(_prec+1)& (0+255),7,b
  3318  001448  EF30  F00A         	goto	i2u115_40
  3319  00144C  51E4               	movf	(_prec+1)& (0+255),w,b
  3320  00144E  E106               	bnz	i2u115_41
  3321  001450  05E3               	decf	_prec& (0+255),w,b
  3322  001452  B0D8               	btfsc	status,0,c
  3323  001454  EF2E  F00A         	goto	i2u115_41
  3324  001458  EF30  F00A         	goto	i2u115_40
  3325  00145C                     i2u115_41:
  3326  00145C  EF36  F00A         	goto	i2l921
  3327  001460                     i2u115_40:
  3328  001460                     
  3329                           ; BSR set to: 0
  3330  001460  0E00               	movlw	0
  3331  001462  6E31               	movwf	(dtoa@p+1)^0,c
  3332  001464  0E01               	movlw	1
  3333  001466  6E30               	movwf	dtoa@p^0,c
  3334  001468  EF3A  F00A         	goto	i2l923
  3335  00146C                     i2l921:
  3336                           
  3337                           ; BSR set to: 0
  3338  00146C  C0E3  F030         	movff	_prec,dtoa@p
  3339  001470  C0E4  F031         	movff	_prec+1,dtoa@p+1
  3340  001474                     i2l923:
  3341                           
  3342                           ; BSR set to: 0
  3343                           ;/opt/microchip/xc8/v2.30/pic/sources/c99/common/doprnt.c: 304:     w = width;
  3344  001474  C0E1  F032         	movff	_width,dtoa@w
  3345  001478  C0E2  F033         	movff	_width+1,dtoa@w+1
  3346  00147C                     
  3347                           ; BSR set to: 0
  3348                           ;/opt/microchip/xc8/v2.30/pic/sources/c99/common/doprnt.c: 305:     if (s || (flags & (1
      +                           << 2))) {
  3349  00147C  5034               	movf	dtoa@s^0,w,c
  3350  00147E  1035               	iorwf	(dtoa@s+1)^0,w,c
  3351  001480  A4D8               	btfss	status,2,c
  3352  001482  EF45  F00A         	goto	i2u116_41
  3353  001486  EF47  F00A         	goto	i2u116_40
  3354  00148A                     i2u116_41:
  3355  00148A  EF4E  F00A         	goto	i2l1857
  3356  00148E                     i2u116_40:
  3357  00148E                     
  3358                           ; BSR set to: 0
  3359  00148E  A47A               	btfss	_flags^0,2,c
  3360  001490  EF4C  F00A         	goto	i2u117_41
  3361  001494  EF4E  F00A         	goto	i2u117_40
  3362  001498                     i2u117_41:
  3363  001498  EF51  F00A         	goto	i2l1859
  3364  00149C                     i2u117_40:
  3365  00149C                     i2l1857:
  3366                           
  3367                           ; BSR set to: 0
  3368                           ;/opt/microchip/xc8/v2.30/pic/sources/c99/common/doprnt.c: 306:         --w;
  3369  00149C  0632               	decf	dtoa@w^0,f,c
  3370  00149E  A0D8               	btfss	status,0,c
  3371  0014A0  0633               	decf	(dtoa@w+1)^0,f,c
  3372  0014A2                     i2l1859:
  3373                           
  3374                           ; BSR set to: 0
  3375                           ;/opt/microchip/xc8/v2.30/pic/sources/c99/common/doprnt.c: 310:     i = sizeof(dbuf) - 1
      +                          ;
  3376  0014A2  0E00               	movlw	0
  3377  0014A4  6E3F               	movwf	(dtoa@i+1)^0,c
  3378  0014A6  0E1F               	movlw	31
  3379  0014A8  6E3E               	movwf	dtoa@i^0,c
  3380  0014AA                     
  3381                           ; BSR set to: 0
  3382                           ;/opt/microchip/xc8/v2.30/pic/sources/c99/common/doprnt.c: 311:     dbuf[i] = '\0';
  3383  0014AA  0E00               	movlw	0
  3384  0014AC  0101               	movlb	1	; () banked
  3385  0014AE  6F65               	movwf	(_dbuf+31)& (0+255),b
  3386                           
  3387                           ;/opt/microchip/xc8/v2.30/pic/sources/c99/common/doprnt.c: 312:     while (!(i < 1) && (
      +                          n || (0 < p) || ((0 < w) && (flags & (1 << 1))))) {
  3388  0014B0  EFD6  F00A         	goto	i2l1873
  3389  0014B4                     i2l1863:
  3390                           
  3391                           ;/opt/microchip/xc8/v2.30/pic/sources/c99/common/doprnt.c: 313:         --i;
  3392  0014B4  063E               	decf	dtoa@i^0,f,c
  3393  0014B6  A0D8               	btfss	status,0,c
  3394  0014B8  063F               	decf	(dtoa@i+1)^0,f,c
  3395  0014BA                     
  3396                           ;/opt/microchip/xc8/v2.30/pic/sources/c99/common/doprnt.c: 314:         dbuf[i] = (char)
      +                          ((int)'0' + abs(n % 10));
  3397  0014BA  0E46               	movlw	low _dbuf
  3398  0014BC  243E               	addwf	dtoa@i^0,w,c
  3399  0014BE  6ED9               	movwf	fsr2l,c
  3400  0014C0  0E01               	movlw	high _dbuf
  3401  0014C2  203F               	addwfc	(dtoa@i+1)^0,w,c
  3402  0014C4  6EDA               	movwf	fsr2h,c
  3403  0014C6  C036  F001         	movff	dtoa@n,___aomod@dividend
  3404  0014CA  C037  F002         	movff	dtoa@n+1,___aomod@dividend+1
  3405  0014CE  C038  F003         	movff	dtoa@n+2,___aomod@dividend+2
  3406  0014D2  C039  F004         	movff	dtoa@n+3,___aomod@dividend+3
  3407  0014D6  C03A  F005         	movff	dtoa@n+4,___aomod@dividend+4
  3408  0014DA  C03B  F006         	movff	dtoa@n+5,___aomod@dividend+5
  3409  0014DE  C03C  F007         	movff	dtoa@n+6,___aomod@dividend+6
  3410  0014E2  C03D  F008         	movff	dtoa@n+7,___aomod@dividend+7
  3411  0014E6  0E0A               	movlw	10
  3412  0014E8  6E09               	movwf	___aomod@divisor^0,c
  3413  0014EA  0E00               	movlw	0
  3414  0014EC  6E0A               	movwf	(___aomod@divisor+1)^0,c
  3415  0014EE  0E00               	movlw	0
  3416  0014F0  6E0B               	movwf	(___aomod@divisor+2)^0,c
  3417  0014F2  0E00               	movlw	0
  3418  0014F4  6E0C               	movwf	(___aomod@divisor+3)^0,c
  3419  0014F6  0E00               	movlw	0
  3420  0014F8  6E0D               	movwf	(___aomod@divisor+4)^0,c
  3421  0014FA  0E00               	movlw	0
  3422  0014FC  6E0E               	movwf	(___aomod@divisor+5)^0,c
  3423  0014FE  0E00               	movlw	0
  3424  001500  6E0F               	movwf	(___aomod@divisor+6)^0,c
  3425  001502  0E00               	movlw	0
  3426  001504  6E10               	movwf	(___aomod@divisor+7)^0,c
  3427  001506  ECF4  F00C         	call	___aomod	;wreg free
  3428  00150A  C001  F026         	movff	?___aomod,??_dtoa
  3429  00150E  C002  F027         	movff	?___aomod+1,??_dtoa+1
  3430  001512  C003  F028         	movff	?___aomod+2,??_dtoa+2
  3431  001516  C004  F029         	movff	?___aomod+3,??_dtoa+3
  3432  00151A  C005  F02A         	movff	?___aomod+4,??_dtoa+4
  3433  00151E  C006  F02B         	movff	?___aomod+5,??_dtoa+5
  3434  001522  C007  F02C         	movff	?___aomod+6,??_dtoa+6
  3435  001526  C008  F02D         	movff	?___aomod+7,??_dtoa+7
  3436  00152A  C026  F013         	movff	??_dtoa,abs@a
  3437  00152E  C028  F014         	movff	??_dtoa+2,abs@a+1
  3438  001532  EC1B  F011         	call	_abs	;wreg free
  3439  001536  5013               	movf	?_abs^0,w,c
  3440  001538  0F30               	addlw	48
  3441  00153A  6EDF               	movwf	indf2,c
  3442  00153C                     
  3443                           ;/opt/microchip/xc8/v2.30/pic/sources/c99/common/doprnt.c: 315:         --p;
  3444  00153C  0630               	decf	dtoa@p^0,f,c
  3445  00153E  A0D8               	btfss	status,0,c
  3446  001540  0631               	decf	(dtoa@p+1)^0,f,c
  3447  001542                     
  3448                           ;/opt/microchip/xc8/v2.30/pic/sources/c99/common/doprnt.c: 316:         --w;
  3449  001542  0632               	decf	dtoa@w^0,f,c
  3450  001544  A0D8               	btfss	status,0,c
  3451  001546  0633               	decf	(dtoa@w+1)^0,f,c
  3452  001548                     
  3453                           ;/opt/microchip/xc8/v2.30/pic/sources/c99/common/doprnt.c: 317:         n = n / 10;
  3454  001548  C036  F001         	movff	dtoa@n,___aodiv@dividend
  3455  00154C  C037  F002         	movff	dtoa@n+1,___aodiv@dividend+1
  3456  001550  C038  F003         	movff	dtoa@n+2,___aodiv@dividend+2
  3457  001554  C039  F004         	movff	dtoa@n+3,___aodiv@dividend+3
  3458  001558  C03A  F005         	movff	dtoa@n+4,___aodiv@dividend+4
  3459  00155C  C03B  F006         	movff	dtoa@n+5,___aodiv@dividend+5
  3460  001560  C03C  F007         	movff	dtoa@n+6,___aodiv@dividend+6
  3461  001564  C03D  F008         	movff	dtoa@n+7,___aodiv@dividend+7
  3462  001568  0E0A               	movlw	10
  3463  00156A  6E09               	movwf	___aodiv@divisor^0,c
  3464  00156C  0E00               	movlw	0
  3465  00156E  6E0A               	movwf	(___aodiv@divisor+1)^0,c
  3466  001570  0E00               	movlw	0
  3467  001572  6E0B               	movwf	(___aodiv@divisor+2)^0,c
  3468  001574  0E00               	movlw	0
  3469  001576  6E0C               	movwf	(___aodiv@divisor+3)^0,c
  3470  001578  0E00               	movlw	0
  3471  00157A  6E0D               	movwf	(___aodiv@divisor+4)^0,c
  3472  00157C  0E00               	movlw	0
  3473  00157E  6E0E               	movwf	(___aodiv@divisor+5)^0,c
  3474  001580  0E00               	movlw	0
  3475  001582  6E0F               	movwf	(___aodiv@divisor+6)^0,c
  3476  001584  0E00               	movlw	0
  3477  001586  6E10               	movwf	(___aodiv@divisor+7)^0,c
  3478  001588  EC30  F00C         	call	___aodiv	;wreg free
  3479  00158C  C001  F036         	movff	?___aodiv,dtoa@n
  3480  001590  C002  F037         	movff	?___aodiv+1,dtoa@n+1
  3481  001594  C003  F038         	movff	?___aodiv+2,dtoa@n+2
  3482  001598  C004  F039         	movff	?___aodiv+3,dtoa@n+3
  3483  00159C  C005  F03A         	movff	?___aodiv+4,dtoa@n+4
  3484  0015A0  C006  F03B         	movff	?___aodiv+5,dtoa@n+5
  3485  0015A4  C007  F03C         	movff	?___aodiv+6,dtoa@n+6
  3486  0015A8  C008  F03D         	movff	?___aodiv+7,dtoa@n+7
  3487  0015AC                     i2l1873:
  3488                           
  3489                           ;/opt/microchip/xc8/v2.30/pic/sources/c99/common/doprnt.c: 312:     while (!(i < 1) && (
      +                          n || (0 < p) || ((0 < w) && (flags & (1 << 1))))) {
  3490  0015AC  BE3F               	btfsc	(dtoa@i+1)^0,7,c
  3491  0015AE  EFE1  F00A         	goto	i2u118_41
  3492  0015B2  503F               	movf	(dtoa@i+1)^0,w,c
  3493  0015B4  E108               	bnz	i2u118_40
  3494  0015B6  043E               	decf	dtoa@i^0,w,c
  3495  0015B8  A0D8               	btfss	status,0,c
  3496  0015BA  EFE1  F00A         	goto	i2u118_41
  3497  0015BE  EFE3  F00A         	goto	i2u118_40
  3498  0015C2                     i2u118_41:
  3499  0015C2  EF13  F00B         	goto	i2l1883
  3500  0015C6                     i2u118_40:
  3501  0015C6  5036               	movf	dtoa@n^0,w,c
  3502  0015C8  1037               	iorwf	(dtoa@n+1)^0,w,c
  3503  0015CA  1038               	iorwf	(dtoa@n+2)^0,w,c
  3504  0015CC  1039               	iorwf	(dtoa@n+3)^0,w,c
  3505  0015CE  103A               	iorwf	(dtoa@n+4)^0,w,c
  3506  0015D0  103B               	iorwf	(dtoa@n+5)^0,w,c
  3507  0015D2  103C               	iorwf	(dtoa@n+6)^0,w,c
  3508  0015D4  103D               	iorwf	(dtoa@n+7)^0,w,c
  3509  0015D6  A4D8               	btfss	status,2,c
  3510  0015D8  EFF0  F00A         	goto	i2u119_41
  3511  0015DC  EFF2  F00A         	goto	i2u119_40
  3512  0015E0                     i2u119_41:
  3513  0015E0  EF5A  F00A         	goto	i2l1863
  3514  0015E4                     i2u119_40:
  3515  0015E4  BE31               	btfsc	(dtoa@p+1)^0,7,c
  3516  0015E6  EFFF  F00A         	goto	i2u120_40
  3517  0015EA  5031               	movf	(dtoa@p+1)^0,w,c
  3518  0015EC  E106               	bnz	i2u120_41
  3519  0015EE  0430               	decf	dtoa@p^0,w,c
  3520  0015F0  B0D8               	btfsc	status,0,c
  3521  0015F2  EFFD  F00A         	goto	i2u120_41
  3522  0015F6  EFFF  F00A         	goto	i2u120_40
  3523  0015FA                     i2u120_41:
  3524  0015FA  EF5A  F00A         	goto	i2l1863
  3525  0015FE                     i2u120_40:
  3526  0015FE  BE33               	btfsc	(dtoa@w+1)^0,7,c
  3527  001600  EF0A  F00B         	goto	i2u121_41
  3528  001604  5033               	movf	(dtoa@w+1)^0,w,c
  3529  001606  E108               	bnz	i2u121_40
  3530  001608  0432               	decf	dtoa@w^0,w,c
  3531  00160A  A0D8               	btfss	status,0,c
  3532  00160C  EF0A  F00B         	goto	i2u121_41
  3533  001610  EF0C  F00B         	goto	i2u121_40
  3534  001614                     i2u121_41:
  3535  001614  EF13  F00B         	goto	i2l1883
  3536  001618                     i2u121_40:
  3537  001618  B27A               	btfsc	_flags^0,1,c
  3538  00161A  EF11  F00B         	goto	i2u122_41
  3539  00161E  EF13  F00B         	goto	i2u122_40
  3540  001622                     i2u122_41:
  3541  001622  EF5A  F00A         	goto	i2l1863
  3542  001626                     i2u122_40:
  3543  001626                     i2l1883:
  3544                           
  3545                           ;/opt/microchip/xc8/v2.30/pic/sources/c99/common/doprnt.c: 321:     if (s || (flags & (1
      +                           << 2))) {
  3546  001626  5034               	movf	dtoa@s^0,w,c
  3547  001628  1035               	iorwf	(dtoa@s+1)^0,w,c
  3548  00162A  A4D8               	btfss	status,2,c
  3549  00162C  EF1A  F00B         	goto	i2u123_41
  3550  001630  EF1C  F00B         	goto	i2u123_40
  3551  001634                     i2u123_41:
  3552  001634  EF23  F00B         	goto	i2l1887
  3553  001638                     i2u123_40:
  3554  001638  A47A               	btfss	_flags^0,2,c
  3555  00163A  EF21  F00B         	goto	i2u124_41
  3556  00163E  EF23  F00B         	goto	i2u124_40
  3557  001642                     i2u124_41:
  3558  001642  EF41  F00B         	goto	i2l1897
  3559  001646                     i2u124_40:
  3560  001646                     i2l1887:
  3561                           
  3562                           ;/opt/microchip/xc8/v2.30/pic/sources/c99/common/doprnt.c: 322:         --i;
  3563  001646  063E               	decf	dtoa@i^0,f,c
  3564  001648  A0D8               	btfss	status,0,c
  3565  00164A  063F               	decf	(dtoa@i+1)^0,f,c
  3566  00164C                     
  3567                           ;/opt/microchip/xc8/v2.30/pic/sources/c99/common/doprnt.c: 323:         dbuf[i] = s ? '-
      +                          ' : '+';
  3568  00164C  5034               	movf	dtoa@s^0,w,c
  3569  00164E  1035               	iorwf	(dtoa@s+1)^0,w,c
  3570  001650  A4D8               	btfss	status,2,c
  3571  001652  EF2D  F00B         	goto	i2u125_41
  3572  001656  EF2F  F00B         	goto	i2u125_40
  3573  00165A                     i2u125_41:
  3574  00165A  EF35  F00B         	goto	i2l1893
  3575  00165E                     i2u125_40:
  3576  00165E  0E00               	movlw	0
  3577  001660  6E2F               	movwf	(_dtoa$1233+1)^0,c
  3578  001662  0E2B               	movlw	43
  3579  001664  6E2E               	movwf	_dtoa$1233^0,c
  3580  001666  EF39  F00B         	goto	i2l1895
  3581  00166A                     i2l1893:
  3582  00166A  0E00               	movlw	0
  3583  00166C  6E2F               	movwf	(_dtoa$1233+1)^0,c
  3584  00166E  0E2D               	movlw	45
  3585  001670  6E2E               	movwf	_dtoa$1233^0,c
  3586  001672                     i2l1895:
  3587  001672  0E46               	movlw	low _dbuf
  3588  001674  243E               	addwf	dtoa@i^0,w,c
  3589  001676  6ED9               	movwf	fsr2l,c
  3590  001678  0E01               	movlw	high _dbuf
  3591  00167A  203F               	addwfc	(dtoa@i+1)^0,w,c
  3592  00167C  6EDA               	movwf	fsr2h,c
  3593  00167E  C02E  FFDF         	movff	_dtoa$1233,indf2
  3594  001682                     i2l1897:
  3595                           
  3596                           ;/opt/microchip/xc8/v2.30/pic/sources/c99/common/doprnt.c: 327:     return pad(fp, &dbuf
      +                          [i], w);
  3597  001682  C01C  F011         	movff	dtoa@fp,pad@fp
  3598  001686  C01D  F012         	movff	dtoa@fp+1,pad@fp+1
  3599  00168A  0E46               	movlw	low _dbuf
  3600  00168C  243E               	addwf	dtoa@i^0,w,c
  3601  00168E  6E13               	movwf	pad@buf^0,c
  3602  001690  0E01               	movlw	high _dbuf
  3603  001692  203F               	addwfc	(dtoa@i+1)^0,w,c
  3604  001694  6E14               	movwf	(pad@buf+1)^0,c
  3605  001696  C032  F015         	movff	dtoa@w,pad@p
  3606  00169A  C033  F016         	movff	dtoa@w+1,pad@p+1
  3607  00169E  EC28  F00E         	call	_pad	;wreg free
  3608  0016A2  C011  F01C         	movff	?_pad,?_dtoa
  3609  0016A6  C012  F01D         	movff	?_pad+1,?_dtoa+1
  3610  0016AA  0012               	return		;funcret
  3611  0016AC                     __end_of_dtoa:
  3612                           	callstack 0
  3613                           
  3614 ;; *************** function _pad *****************
  3615 ;; Defined at:
  3616 ;;		line 72 in file "/opt/microchip/xc8/v2.30/pic/sources/c99/common/doprnt.c"
  3617 ;; Parameters:    Size  Location     Type
  3618 ;;  fp              2   16[COMRAM] PTR struct _IO_FILE
  3619 ;;		 -> NULL(0), 
  3620 ;;  buf             2   18[COMRAM] PTR unsigned char 
  3621 ;;		 -> dbuf(32), 
  3622 ;;  p               2   20[COMRAM] int 
  3623 ;; Auto vars:     Size  Location     Type
  3624 ;;  w               2   25[COMRAM] int 
  3625 ;;  i               2   23[COMRAM] int 
  3626 ;; Return value:  Size  Location     Type
  3627 ;;                  2   16[COMRAM] int 
  3628 ;; Registers used:
  3629 ;;		wreg, fsr1l, fsr1h, fsr2l, fsr2h, status,2, status,0, cstack
  3630 ;; Tracked objects:
  3631 ;;		On entry : 0/0
  3632 ;;		On exit  : 0/0
  3633 ;;		Unchanged: 0/0
  3634 ;; Data sizes:     COMRAM   BANK0   BANK1   BANK2   BANK3   BANK4   BANK5   BANK6   BANK7   BANK8   BANK9  BANK10  BANK1
      +1  BANK12  BANK13  BANK14  BANK15
  3635 ;;      Params:         6       0       0       0       0       0       0       0       0       0       0       0       
      +0       0       0       0       0
  3636 ;;      Locals:         4       0       0       0       0       0       0       0       0       0       0       0       
      +0       0       0       0       0
  3637 ;;      Temps:          1       0       0       0       0       0       0       0       0       0       0       0       
      +0       0       0       0       0
  3638 ;;      Totals:        11       0       0       0       0       0       0       0       0       0       0       0       
      +0       0       0       0       0
  3639 ;;Total ram usage:       11 bytes
  3640 ;; Hardware stack levels used:    1
  3641 ;; Hardware stack levels required when called:    3
  3642 ;; This function calls:
  3643 ;;		_fputc
  3644 ;;		_fputs
  3645 ;;		_strlen
  3646 ;; This function is called by:
  3647 ;;		_dtoa
  3648 ;; This function uses a non-reentrant model
  3649 ;;
  3650                           
  3651                           	psect	text18
  3652  001C50                     __ptext18:
  3653                           	callstack 0
  3654  001C50                     _pad:
  3655                           	callstack 19
  3656  001C50                     
  3657                           ;/opt/microchip/xc8/v2.30/pic/sources/c99/common/doprnt.c: 72: static int pad(FILE *fp, 
      +                          char *buf, int p);/opt/microchip/xc8/v2.30/pic/sources/c99/common/doprnt.c: 73: {;/opt/m
      +                          icrochip/xc8/v2.30/pic/sources/c99/common/doprnt.c: 74:     int i, w;;/opt/microchip/xc8
      +                          /v2.30/pic/sources/c99/common/doprnt.c: 77:     if (flags & (1 << 0)) {
  3658  001C50  A07A               	btfss	_flags^0,0,c
  3659  001C52  EF2D  F00E         	goto	i2u106_41
  3660  001C56  EF2F  F00E         	goto	i2u106_40
  3661  001C5A                     i2u106_41:
  3662  001C5A  EF39  F00E         	goto	i2l1817
  3663  001C5E                     i2u106_40:
  3664  001C5E                     
  3665                           ;/opt/microchip/xc8/v2.30/pic/sources/c99/common/doprnt.c: 78:         fputs((const char
      +                           *)buf, fp);
  3666  001C5E  C013  F00A         	movff	pad@buf,fputs@s
  3667  001C62  C014  F00B         	movff	pad@buf+1,fputs@s+1
  3668  001C66  C011  F00C         	movff	pad@fp,fputs@fp
  3669  001C6A  C012  F00D         	movff	pad@fp+1,fputs@fp+1
  3670  001C6E  ECD9  F010         	call	_fputs	;wreg free
  3671  001C72                     i2l1817:
  3672                           
  3673                           ;/opt/microchip/xc8/v2.30/pic/sources/c99/common/doprnt.c: 82:     w = (p < 0) ? 0 : p;
  3674  001C72  BE16               	btfsc	(pad@p+1)^0,7,c
  3675  001C74  EF3E  F00E         	goto	i2u107_41
  3676  001C78  EF40  F00E         	goto	i2u107_40
  3677  001C7C                     i2u107_41:
  3678  001C7C  EF46  F00E         	goto	i2l1821
  3679  001C80                     i2u107_40:
  3680  001C80  C015  F01A         	movff	pad@p,pad@w
  3681  001C84  C016  F01B         	movff	pad@p+1,pad@w+1
  3682  001C88  EF4A  F00E         	goto	i2l910
  3683  001C8C                     i2l1821:
  3684  001C8C  0E00               	movlw	0
  3685  001C8E  6E1B               	movwf	(pad@w+1)^0,c
  3686  001C90  0E00               	movlw	0
  3687  001C92  6E1A               	movwf	pad@w^0,c
  3688  001C94                     i2l910:
  3689                           
  3690                           ;/opt/microchip/xc8/v2.30/pic/sources/c99/common/doprnt.c: 83:     i = 0;
  3691  001C94  0E00               	movlw	0
  3692  001C96  6E19               	movwf	(pad@i+1)^0,c
  3693  001C98  0E00               	movlw	0
  3694  001C9A  6E18               	movwf	pad@i^0,c
  3695                           
  3696                           ;/opt/microchip/xc8/v2.30/pic/sources/c99/common/doprnt.c: 84:     while (i < w) {
  3697  001C9C  EF5C  F00E         	goto	i2l1827
  3698  001CA0                     i2l1823:
  3699                           
  3700                           ;/opt/microchip/xc8/v2.30/pic/sources/c99/common/doprnt.c: 85:         fputc(' ', fp);
  3701  001CA0  0E00               	movlw	0
  3702  001CA2  6E02               	movwf	(fputc@c+1)^0,c
  3703  001CA4  0E20               	movlw	32
  3704  001CA6  6E01               	movwf	fputc@c^0,c
  3705  001CA8  C011  F003         	movff	pad@fp,fputc@fp
  3706  001CAC  C012  F004         	movff	pad@fp+1,fputc@fp+1
  3707  001CB0  EC80  F00F         	call	_fputc	;wreg free
  3708  001CB4                     
  3709                           ;/opt/microchip/xc8/v2.30/pic/sources/c99/common/doprnt.c: 86:         ++i;
  3710  001CB4  4A18               	infsnz	pad@i^0,f,c
  3711  001CB6  2A19               	incf	(pad@i+1)^0,f,c
  3712  001CB8                     i2l1827:
  3713                           
  3714                           ;/opt/microchip/xc8/v2.30/pic/sources/c99/common/doprnt.c: 84:     while (i < w) {
  3715  001CB8  501A               	movf	pad@w^0,w,c
  3716  001CBA  5C18               	subwf	pad@i^0,w,c
  3717  001CBC  5019               	movf	(pad@i+1)^0,w,c
  3718  001CBE  0A80               	xorlw	128
  3719  001CC0  6E17               	movwf	??_pad^0,c
  3720  001CC2  501B               	movf	(pad@w+1)^0,w,c
  3721  001CC4  0A80               	xorlw	128
  3722  001CC6  5817               	subwfb	??_pad^0,w,c
  3723  001CC8  A0D8               	btfss	status,0,c
  3724  001CCA  EF69  F00E         	goto	i2u108_41
  3725  001CCE  EF6B  F00E         	goto	i2u108_40
  3726  001CD2                     i2u108_41:
  3727  001CD2  EF50  F00E         	goto	i2l1823
  3728  001CD6                     i2u108_40:
  3729  001CD6                     
  3730                           ;/opt/microchip/xc8/v2.30/pic/sources/c99/common/doprnt.c: 90:     if (!(flags & (1 << 0
      +                          ))) {
  3731  001CD6  B07A               	btfsc	_flags^0,0,c
  3732  001CD8  EF70  F00E         	goto	i2u109_41
  3733  001CDC  EF72  F00E         	goto	i2u109_40
  3734  001CE0                     i2u109_41:
  3735  001CE0  EF7C  F00E         	goto	i2l1831
  3736  001CE4                     i2u109_40:
  3737  001CE4                     
  3738                           ;/opt/microchip/xc8/v2.30/pic/sources/c99/common/doprnt.c: 91:         fputs((const char
      +                           *)buf, fp);
  3739  001CE4  C013  F00A         	movff	pad@buf,fputs@s
  3740  001CE8  C014  F00B         	movff	pad@buf+1,fputs@s+1
  3741  001CEC  C011  F00C         	movff	pad@fp,fputs@fp
  3742  001CF0  C012  F00D         	movff	pad@fp+1,fputs@fp+1
  3743  001CF4  ECD9  F010         	call	_fputs	;wreg free
  3744  001CF8                     i2l1831:
  3745                           
  3746                           ;/opt/microchip/xc8/v2.30/pic/sources/c99/common/doprnt.c: 94:     return (int)(strlen(b
      +                          uf) + (size_t)w);
  3747  001CF8  C013  F001         	movff	pad@buf,strlen@s
  3748  001CFC  C014  F002         	movff	pad@buf+1,strlen@s+1
  3749  001D00  EC8E  F011         	call	_strlen	;wreg free
  3750  001D04  501A               	movf	pad@w^0,w,c
  3751  001D06  2401               	addwf	?_strlen^0,w,c
  3752  001D08  6E11               	movwf	?_pad^0,c
  3753  001D0A  501B               	movf	(pad@w+1)^0,w,c
  3754  001D0C  2002               	addwfc	(?_strlen+1)^0,w,c
  3755  001D0E  6E12               	movwf	(?_pad+1)^0,c
  3756  001D10  0012               	return		;funcret
  3757  001D12                     __end_of_pad:
  3758                           	callstack 0
  3759                           
  3760 ;; *************** function _strlen *****************
  3761 ;; Defined at:
  3762 ;;		line 5 in file "/opt/microchip/xc8/v2.30/pic/sources/c99/common/strlen.c"
  3763 ;; Parameters:    Size  Location     Type
  3764 ;;  s               2    0[COMRAM] PTR const unsigned char 
  3765 ;;		 -> dbuf(32), 
  3766 ;; Auto vars:     Size  Location     Type
  3767 ;;  a               2    2[COMRAM] PTR const unsigned char 
  3768 ;;		 -> dbuf(32), 
  3769 ;; Return value:  Size  Location     Type
  3770 ;;                  2    0[COMRAM] unsigned int 
  3771 ;; Registers used:
  3772 ;;		wreg, fsr2l, fsr2h, status,2, status,0
  3773 ;; Tracked objects:
  3774 ;;		On entry : 0/0
  3775 ;;		On exit  : 0/0
  3776 ;;		Unchanged: 0/0
  3777 ;; Data sizes:     COMRAM   BANK0   BANK1   BANK2   BANK3   BANK4   BANK5   BANK6   BANK7   BANK8   BANK9  BANK10  BANK1
      +1  BANK12  BANK13  BANK14  BANK15
  3778 ;;      Params:         2       0       0       0       0       0       0       0       0       0       0       0       
      +0       0       0       0       0
  3779 ;;      Locals:         2       0       0       0       0       0       0       0       0       0       0       0       
      +0       0       0       0       0
  3780 ;;      Temps:          0       0       0       0       0       0       0       0       0       0       0       0       
      +0       0       0       0       0
  3781 ;;      Totals:         4       0       0       0       0       0       0       0       0       0       0       0       
      +0       0       0       0       0
  3782 ;;Total ram usage:        4 bytes
  3783 ;; Hardware stack levels used:    1
  3784 ;; This function calls:
  3785 ;;		Nothing
  3786 ;; This function is called by:
  3787 ;;		_pad
  3788 ;; This function uses a non-reentrant model
  3789 ;;
  3790                           
  3791                           	psect	text19
  3792  00231C                     __ptext19:
  3793                           	callstack 0
  3794  00231C                     _strlen:
  3795                           	callstack 21
  3796  00231C  C001  F003         	movff	strlen@s,strlen@a
  3797  002320  C002  F004         	movff	strlen@s+1,strlen@a+1
  3798  002324  EF96  F011         	goto	i2l1727
  3799  002328                     i2l1725:
  3800  002328  4A01               	infsnz	strlen@s^0,f,c
  3801  00232A  2A02               	incf	(strlen@s+1)^0,f,c
  3802  00232C                     i2l1727:
  3803  00232C  C001  FFD9         	movff	strlen@s,fsr2l
  3804  002330  C002  FFDA         	movff	strlen@s+1,fsr2h
  3805  002334  50DF               	movf	indf2,w,c
  3806  002336  A4D8               	btfss	status,2,c
  3807  002338  EFA0  F011         	goto	i2u92_41
  3808  00233C  EFA2  F011         	goto	i2u92_40
  3809  002340                     i2u92_41:
  3810  002340  EF94  F011         	goto	i2l1725
  3811  002344                     i2u92_40:
  3812  002344  5003               	movf	strlen@a^0,w,c
  3813  002346  5C01               	subwf	strlen@s^0,w,c
  3814  002348  6E01               	movwf	?_strlen^0,c
  3815  00234A  5004               	movf	(strlen@a+1)^0,w,c
  3816  00234C  5802               	subwfb	(strlen@s+1)^0,w,c
  3817  00234E  6E02               	movwf	(?_strlen+1)^0,c
  3818  002350  0012               	return		;funcret
  3819  002352                     __end_of_strlen:
  3820                           	callstack 0
  3821                           
  3822 ;; *************** function _fputs *****************
  3823 ;; Defined at:
  3824 ;;		line 8 in file "/opt/microchip/xc8/v2.30/pic/sources/c99/common/nf_fputs.c"
  3825 ;; Parameters:    Size  Location     Type
  3826 ;;  s               2    9[COMRAM] PTR const unsigned char 
  3827 ;;		 -> dbuf(32), 
  3828 ;;  fp              2   11[COMRAM] PTR struct _IO_FILE
  3829 ;;		 -> NULL(0), 
  3830 ;; Auto vars:     Size  Location     Type
  3831 ;;  i               2   14[COMRAM] int 
  3832 ;;  c               1   13[COMRAM] unsigned char 
  3833 ;; Return value:  Size  Location     Type
  3834 ;;                  2    9[COMRAM] int 
  3835 ;; Registers used:
  3836 ;;		wreg, fsr1l, fsr1h, fsr2l, fsr2h, status,2, status,0, cstack
  3837 ;; Tracked objects:
  3838 ;;		On entry : 0/0
  3839 ;;		On exit  : 0/0
  3840 ;;		Unchanged: 0/0
  3841 ;; Data sizes:     COMRAM   BANK0   BANK1   BANK2   BANK3   BANK4   BANK5   BANK6   BANK7   BANK8   BANK9  BANK10  BANK1
      +1  BANK12  BANK13  BANK14  BANK15
  3842 ;;      Params:         4       0       0       0       0       0       0       0       0       0       0       0       
      +0       0       0       0       0
  3843 ;;      Locals:         3       0       0       0       0       0       0       0       0       0       0       0       
      +0       0       0       0       0
  3844 ;;      Temps:          0       0       0       0       0       0       0       0       0       0       0       0       
      +0       0       0       0       0
  3845 ;;      Totals:         7       0       0       0       0       0       0       0       0       0       0       0       
      +0       0       0       0       0
  3846 ;;Total ram usage:        7 bytes
  3847 ;; Hardware stack levels used:    1
  3848 ;; Hardware stack levels required when called:    2
  3849 ;; This function calls:
  3850 ;;		_fputc
  3851 ;; This function is called by:
  3852 ;;		_pad
  3853 ;; This function uses a non-reentrant model
  3854 ;;
  3855                           
  3856                           	psect	text20
  3857  0021B2                     __ptext20:
  3858                           	callstack 0
  3859  0021B2                     _fputs:
  3860                           	callstack 19
  3861  0021B2  0E00               	movlw	0
  3862  0021B4  6E10               	movwf	(fputs@i+1)^0,c
  3863  0021B6  0E00               	movlw	0
  3864  0021B8  6E0F               	movwf	fputs@i^0,c
  3865  0021BA  EFEA  F010         	goto	i2l1721
  3866  0021BE                     i2l1717:
  3867  0021BE  C00E  F001         	movff	fputs@c,fputc@c
  3868  0021C2  6A02               	clrf	(fputc@c+1)^0,c
  3869  0021C4  C00C  F003         	movff	fputs@fp,fputc@fp
  3870  0021C8  C00D  F004         	movff	fputs@fp+1,fputc@fp+1
  3871  0021CC  EC80  F00F         	call	_fputc	;wreg free
  3872  0021D0  4A0F               	infsnz	fputs@i^0,f,c
  3873  0021D2  2A10               	incf	(fputs@i+1)^0,f,c
  3874  0021D4                     i2l1721:
  3875  0021D4  500F               	movf	fputs@i^0,w,c
  3876  0021D6  240A               	addwf	fputs@s^0,w,c
  3877  0021D8  6ED9               	movwf	fsr2l,c
  3878  0021DA  5010               	movf	(fputs@i+1)^0,w,c
  3879  0021DC  200B               	addwfc	(fputs@s+1)^0,w,c
  3880  0021DE  6EDA               	movwf	fsr2h,c
  3881  0021E0  50DF               	movf	indf2,w,c
  3882  0021E2  6E0E               	movwf	fputs@c^0,c
  3883  0021E4  500E               	movf	fputs@c^0,w,c
  3884  0021E6  A4D8               	btfss	status,2,c
  3885  0021E8  EFF8  F010         	goto	i2u91_41
  3886  0021EC  EFFA  F010         	goto	i2u91_40
  3887  0021F0                     i2u91_41:
  3888  0021F0  EFDF  F010         	goto	i2l1717
  3889  0021F4                     i2u91_40:
  3890  0021F4  0012               	return		;funcret
  3891  0021F6                     __end_of_fputs:
  3892                           	callstack 0
  3893                           
  3894 ;; *************** function _fputc *****************
  3895 ;; Defined at:
  3896 ;;		line 8 in file "/opt/microchip/xc8/v2.30/pic/sources/c99/common/nf_fputc.c"
  3897 ;; Parameters:    Size  Location     Type
  3898 ;;  c               2    0[COMRAM] int 
  3899 ;;  fp              2    2[COMRAM] PTR struct _IO_FILE
  3900 ;;		 -> NULL(0), 
  3901 ;; Auto vars:     Size  Location     Type
  3902 ;;		None
  3903 ;; Return value:  Size  Location     Type
  3904 ;;                  2    0[COMRAM] int 
  3905 ;; Registers used:
  3906 ;;		wreg, fsr1l, fsr1h, fsr2l, fsr2h, status,2, status,0, cstack
  3907 ;; Tracked objects:
  3908 ;;		On entry : 0/0
  3909 ;;		On exit  : 0/0
  3910 ;;		Unchanged: 0/0
  3911 ;; Data sizes:     COMRAM   BANK0   BANK1   BANK2   BANK3   BANK4   BANK5   BANK6   BANK7   BANK8   BANK9  BANK10  BANK1
      +1  BANK12  BANK13  BANK14  BANK15
  3912 ;;      Params:         4       0       0       0       0       0       0       0       0       0       0       0       
      +0       0       0       0       0
  3913 ;;      Locals:         0       0       0       0       0       0       0       0       0       0       0       0       
      +0       0       0       0       0
  3914 ;;      Temps:          5       0       0       0       0       0       0       0       0       0       0       0       
      +0       0       0       0       0
  3915 ;;      Totals:         9       0       0       0       0       0       0       0       0       0       0       0       
      +0       0       0       0       0
  3916 ;;Total ram usage:        9 bytes
  3917 ;; Hardware stack levels used:    1
  3918 ;; Hardware stack levels required when called:    1
  3919 ;; This function calls:
  3920 ;;		_putch
  3921 ;; This function is called by:
  3922 ;;		_pad
  3923 ;;		_vfpfcnvrt
  3924 ;;		_fputs
  3925 ;; This function uses a non-reentrant model
  3926 ;;
  3927                           
  3928                           	psect	text21
  3929  001F00                     __ptext21:
  3930                           	callstack 0
  3931  001F00                     _fputc:
  3932                           	callstack 22
  3933  001F00  5003               	movf	fputc@fp^0,w,c
  3934  001F02  1004               	iorwf	(fputc@fp+1)^0,w,c
  3935  001F04  B4D8               	btfsc	status,2,c
  3936  001F06  EF87  F00F         	goto	i2u87_41
  3937  001F0A  EF89  F00F         	goto	i2u87_40
  3938  001F0E                     i2u87_41:
  3939  001F0E  EF92  F00F         	goto	i2l1705
  3940  001F12                     i2u87_40:
  3941  001F12  5003               	movf	fputc@fp^0,w,c
  3942  001F14  1004               	iorwf	(fputc@fp+1)^0,w,c
  3943  001F16  A4D8               	btfss	status,2,c
  3944  001F18  EF90  F00F         	goto	i2u88_41
  3945  001F1C  EF92  F00F         	goto	i2u88_40
  3946  001F20                     i2u88_41:
  3947  001F20  EF97  F00F         	goto	i2l1707
  3948  001F24                     i2u88_40:
  3949  001F24                     i2l1705:
  3950  001F24  5001               	movf	fputc@c^0,w,c
  3951  001F26  EC29  F012         	call	_putch
  3952  001F2A  EFCA  F00F         	goto	i2l974
  3953  001F2E                     i2l1707:
  3954  001F2E  EE20 F004          	lfsr	2,4
  3955  001F32  5003               	movf	fputc@fp^0,w,c
  3956  001F34  26D9               	addwf	fsr2l,f,c
  3957  001F36  5004               	movf	(fputc@fp+1)^0,w,c
  3958  001F38  22DA               	addwfc	fsr2h,f,c
  3959  001F3A  50DE               	movf	postinc2,w,c
  3960  001F3C  10DE               	iorwf	postinc2,w,c
  3961  001F3E  B4D8               	btfsc	status,2,c
  3962  001F40  EFA4  F00F         	goto	i2u89_41
  3963  001F44  EFA6  F00F         	goto	i2u89_40
  3964  001F48                     i2u89_41:
  3965  001F48  EFC1  F00F         	goto	i2l1711
  3966  001F4C                     i2u89_40:
  3967  001F4C  EE20 F004          	lfsr	2,4
  3968  001F50  5003               	movf	fputc@fp^0,w,c
  3969  001F52  26D9               	addwf	fsr2l,f,c
  3970  001F54  5004               	movf	(fputc@fp+1)^0,w,c
  3971  001F56  22DA               	addwfc	fsr2h,f,c
  3972  001F58  EE10 F002          	lfsr	1,2
  3973  001F5C  5003               	movf	fputc@fp^0,w,c
  3974  001F5E  26E1               	addwf	fsr1l,f,c
  3975  001F60  5004               	movf	(fputc@fp+1)^0,w,c
  3976  001F62  22E2               	addwfc	fsr1h,f,c
  3977  001F64  50DE               	movf	postinc2,w,c
  3978  001F66  5CE6               	subwf	postinc1,w,c
  3979  001F68  50E6               	movf	postinc1,w,c
  3980  001F6A  0A80               	xorlw	128
  3981  001F6C  6E09               	movwf	(??_fputc+4)^0,c
  3982  001F6E  50DE               	movf	postinc2,w,c
  3983  001F70  0A80               	xorlw	128
  3984  001F72  5809               	subwfb	(??_fputc+4)^0,w,c
  3985  001F74  B0D8               	btfsc	status,0,c
  3986  001F76  EFBF  F00F         	goto	i2u90_41
  3987  001F7A  EFC1  F00F         	goto	i2u90_40
  3988  001F7E                     i2u90_41:
  3989  001F7E  EFCA  F00F         	goto	i2l974
  3990  001F82                     i2u90_40:
  3991  001F82                     i2l1711:
  3992  001F82  EE20 F002          	lfsr	2,2
  3993  001F86  5003               	movf	fputc@fp^0,w,c
  3994  001F88  26D9               	addwf	fsr2l,f,c
  3995  001F8A  5004               	movf	(fputc@fp+1)^0,w,c
  3996  001F8C  22DA               	addwfc	fsr2h,f,c
  3997  001F8E  2ADE               	incf	postinc2,f,c
  3998  001F90  0E00               	movlw	0
  3999  001F92  22DD               	addwfc	postdec2,f,c
  4000  001F94                     i2l974:
  4001  001F94  0012               	return		;funcret
  4002  001F96                     __end_of_fputc:
  4003                           	callstack 0
  4004                           
  4005 ;; *************** function _putch *****************
  4006 ;; Defined at:
  4007 ;;		line 7 in file "/opt/microchip/xc8/v2.30/pic/sources/c99/common/putch.c"
  4008 ;; Parameters:    Size  Location     Type
  4009 ;;  c               1    wreg     unsigned char 
  4010 ;; Auto vars:     Size  Location     Type
  4011 ;;  c               1    0[COMRAM] unsigned char 
  4012 ;; Return value:  Size  Location     Type
  4013 ;;                  1    wreg      void 
  4014 ;; Registers used:
  4015 ;;		wreg
  4016 ;; Tracked objects:
  4017 ;;		On entry : 0/0
  4018 ;;		On exit  : 0/0
  4019 ;;		Unchanged: 0/0
  4020 ;; Data sizes:     COMRAM   BANK0   BANK1   BANK2   BANK3   BANK4   BANK5   BANK6   BANK7   BANK8   BANK9  BANK10  BANK1
      +1  BANK12  BANK13  BANK14  BANK15
  4021 ;;      Params:         0       0       0       0       0       0       0       0       0       0       0       0       
      +0       0       0       0       0
  4022 ;;      Locals:         0       0       0       0       0       0       0       0       0       0       0       0       
      +0       0       0       0       0
  4023 ;;      Temps:          0       0       0       0       0       0       0       0       0       0       0       0       
      +0       0       0       0       0
  4024 ;;      Totals:         0       0       0       0       0       0       0       0       0       0       0       0       
      +0       0       0       0       0
  4025 ;;Total ram usage:        0 bytes
  4026 ;; Hardware stack levels used:    1
  4027 ;; This function calls:
  4028 ;;		Nothing
  4029 ;; This function is called by:
  4030 ;;		_fputc
  4031 ;; This function uses a non-reentrant model
  4032 ;;
  4033                           
  4034                           	psect	text22
  4035  002452                     __ptext22:
  4036                           	callstack 0
  4037  002452                     _putch:
  4038                           	callstack 22
  4039  002452  0012               	return		;funcret
  4040  002454                     __end_of_putch:
  4041                           	callstack 0
  4042                           
  4043 ;; *************** function _abs *****************
  4044 ;; Defined at:
  4045 ;;		line 1 in file "/opt/microchip/xc8/v2.30/pic/sources/c99/common/abs.c"
  4046 ;; Parameters:    Size  Location     Type
  4047 ;;  a               2   18[COMRAM] int 
  4048 ;; Auto vars:     Size  Location     Type
  4049 ;;		None
  4050 ;; Return value:  Size  Location     Type
  4051 ;;                  2   18[COMRAM] int 
  4052 ;; Registers used:
  4053 ;;		wreg, status,2, status,0
  4054 ;; Tracked objects:
  4055 ;;		On entry : 0/0
  4056 ;;		On exit  : 0/0
  4057 ;;		Unchanged: 0/0
  4058 ;; Data sizes:     COMRAM   BANK0   BANK1   BANK2   BANK3   BANK4   BANK5   BANK6   BANK7   BANK8   BANK9  BANK10  BANK1
      +1  BANK12  BANK13  BANK14  BANK15
  4059 ;;      Params:         2       0       0       0       0       0       0       0       0       0       0       0       
      +0       0       0       0       0
  4060 ;;      Locals:         0       0       0       0       0       0       0       0       0       0       0       0       
      +0       0       0       0       0
  4061 ;;      Temps:          2       0       0       0       0       0       0       0       0       0       0       0       
      +0       0       0       0       0
  4062 ;;      Totals:         4       0       0       0       0       0       0       0       0       0       0       0       
      +0       0       0       0       0
  4063 ;;Total ram usage:        4 bytes
  4064 ;; Hardware stack levels used:    1
  4065 ;; This function calls:
  4066 ;;		Nothing
  4067 ;; This function is called by:
  4068 ;;		_dtoa
  4069 ;; This function uses a non-reentrant model
  4070 ;;
  4071                           
  4072                           	psect	text23
  4073  002236                     __ptext23:
  4074                           	callstack 0
  4075  002236                     _abs:
  4076                           	callstack 22
  4077  002236  BE14               	btfsc	(abs@a+1)^0,7,c
  4078  002238  EF28  F011         	goto	i2u110_40
  4079  00223C  5014               	movf	(abs@a+1)^0,w,c
  4080  00223E  E106               	bnz	i2u110_41
  4081  002240  0413               	decf	abs@a^0,w,c
  4082  002242  B0D8               	btfsc	status,0,c
  4083  002244  EF26  F011         	goto	i2u110_41
  4084  002248  EF28  F011         	goto	i2u110_40
  4085  00224C                     i2u110_41:
  4086  00224C  EF36  F011         	goto	i2l959
  4087  002250                     i2u110_40:
  4088  002250  C013  F015         	movff	abs@a,??_abs
  4089  002254  C014  F016         	movff	abs@a+1,??_abs+1
  4090  002258  1E15               	comf	??_abs^0,f,c
  4091  00225A  1E16               	comf	(??_abs+1)^0,f,c
  4092  00225C  4A15               	infsnz	??_abs^0,f,c
  4093  00225E  2A16               	incf	(??_abs+1)^0,f,c
  4094  002260  C015  F013         	movff	??_abs,?_abs
  4095  002264  C016  F014         	movff	??_abs+1,?_abs+1
  4096  002268  EF3A  F011         	goto	i2l962
  4097  00226C                     i2l959:
  4098  00226C  C013  F013         	movff	abs@a,?_abs
  4099  002270  C014  F014         	movff	abs@a+1,?_abs+1
  4100  002274                     i2l962:
  4101  002274  0012               	return		;funcret
  4102  002276                     __end_of_abs:
  4103                           	callstack 0
  4104                           
  4105 ;; *************** function ___aomod *****************
  4106 ;; Defined at:
  4107 ;;		line 9 in file "/opt/microchip/xc8/v2.30/pic/sources/c99/common/aomod.c"
  4108 ;; Parameters:    Size  Location     Type
  4109 ;;  dividend        8    0[COMRAM] long long 
  4110 ;;  divisor         8    8[COMRAM] long long 
  4111 ;; Auto vars:     Size  Location     Type
  4112 ;;  sign            1   17[COMRAM] unsigned char 
  4113 ;;  counter         1   16[COMRAM] unsigned char 
  4114 ;; Return value:  Size  Location     Type
  4115 ;;                  8    0[COMRAM] long long 
  4116 ;; Registers used:
  4117 ;;		wreg, status,2, status,0
  4118 ;; Tracked objects:
  4119 ;;		On entry : 0/0
  4120 ;;		On exit  : 0/0
  4121 ;;		Unchanged: 0/0
  4122 ;; Data sizes:     COMRAM   BANK0   BANK1   BANK2   BANK3   BANK4   BANK5   BANK6   BANK7   BANK8   BANK9  BANK10  BANK1
      +1  BANK12  BANK13  BANK14  BANK15
  4123 ;;      Params:        16       0       0       0       0       0       0       0       0       0       0       0       
      +0       0       0       0       0
  4124 ;;      Locals:         2       0       0       0       0       0       0       0       0       0       0       0       
      +0       0       0       0       0
  4125 ;;      Temps:          0       0       0       0       0       0       0       0       0       0       0       0       
      +0       0       0       0       0
  4126 ;;      Totals:        18       0       0       0       0       0       0       0       0       0       0       0       
      +0       0       0       0       0
  4127 ;;Total ram usage:       18 bytes
  4128 ;; Hardware stack levels used:    1
  4129 ;; This function calls:
  4130 ;;		Nothing
  4131 ;; This function is called by:
  4132 ;;		_dtoa
  4133 ;; This function uses a non-reentrant model
  4134 ;;
  4135                           
  4136                           	psect	text24
  4137  0019E8                     __ptext24:
  4138                           	callstack 0
  4139  0019E8                     ___aomod:
  4140                           	callstack 22
  4141  0019E8  0E00               	movlw	0
  4142  0019EA  6E12               	movwf	___aomod@sign^0,c
  4143  0019EC  BE08               	btfsc	(___aomod@dividend+7)^0,7,c
  4144  0019EE  EFFD  F00C         	goto	i2u100_40
  4145  0019F2  EFFB  F00C         	goto	i2u100_41
  4146  0019F6                     i2u100_41:
  4147  0019F6  EF0F  F00D         	goto	i2l1785
  4148  0019FA                     i2u100_40:
  4149  0019FA  1E08               	comf	(___aomod@dividend+7)^0,f,c
  4150  0019FC  1E07               	comf	(___aomod@dividend+6)^0,f,c
  4151  0019FE  1E06               	comf	(___aomod@dividend+5)^0,f,c
  4152  001A00  1E05               	comf	(___aomod@dividend+4)^0,f,c
  4153  001A02  1E04               	comf	(___aomod@dividend+3)^0,f,c
  4154  001A04  1E03               	comf	(___aomod@dividend+2)^0,f,c
  4155  001A06  1E02               	comf	(___aomod@dividend+1)^0,f,c
  4156  001A08  6C01               	negf	___aomod@dividend^0,c
  4157  001A0A  0E00               	movlw	0
  4158  001A0C  2202               	addwfc	(___aomod@dividend+1)^0,f,c
  4159  001A0E  2203               	addwfc	(___aomod@dividend+2)^0,f,c
  4160  001A10  2204               	addwfc	(___aomod@dividend+3)^0,f,c
  4161  001A12  2205               	addwfc	(___aomod@dividend+4)^0,f,c
  4162  001A14  2206               	addwfc	(___aomod@dividend+5)^0,f,c
  4163  001A16  2207               	addwfc	(___aomod@dividend+6)^0,f,c
  4164  001A18  2208               	addwfc	(___aomod@dividend+7)^0,f,c
  4165  001A1A  0E01               	movlw	1
  4166  001A1C  6E12               	movwf	___aomod@sign^0,c
  4167  001A1E                     i2l1785:
  4168  001A1E  BE10               	btfsc	(___aomod@divisor+7)^0,7,c
  4169  001A20  EF16  F00D         	goto	i2u101_40
  4170  001A24  EF14  F00D         	goto	i2u101_41
  4171  001A28                     i2u101_41:
  4172  001A28  EF26  F00D         	goto	i2l1789
  4173  001A2C                     i2u101_40:
  4174  001A2C  1E10               	comf	(___aomod@divisor+7)^0,f,c
  4175  001A2E  1E0F               	comf	(___aomod@divisor+6)^0,f,c
  4176  001A30  1E0E               	comf	(___aomod@divisor+5)^0,f,c
  4177  001A32  1E0D               	comf	(___aomod@divisor+4)^0,f,c
  4178  001A34  1E0C               	comf	(___aomod@divisor+3)^0,f,c
  4179  001A36  1E0B               	comf	(___aomod@divisor+2)^0,f,c
  4180  001A38  1E0A               	comf	(___aomod@divisor+1)^0,f,c
  4181  001A3A  6C09               	negf	___aomod@divisor^0,c
  4182  001A3C  0E00               	movlw	0
  4183  001A3E  220A               	addwfc	(___aomod@divisor+1)^0,f,c
  4184  001A40  220B               	addwfc	(___aomod@divisor+2)^0,f,c
  4185  001A42  220C               	addwfc	(___aomod@divisor+3)^0,f,c
  4186  001A44  220D               	addwfc	(___aomod@divisor+4)^0,f,c
  4187  001A46  220E               	addwfc	(___aomod@divisor+5)^0,f,c
  4188  001A48  220F               	addwfc	(___aomod@divisor+6)^0,f,c
  4189  001A4A  2210               	addwfc	(___aomod@divisor+7)^0,f,c
  4190  001A4C                     i2l1789:
  4191  001A4C  5009               	movf	___aomod@divisor^0,w,c
  4192  001A4E  100A               	iorwf	(___aomod@divisor+1)^0,w,c
  4193  001A50  100B               	iorwf	(___aomod@divisor+2)^0,w,c
  4194  001A52  100C               	iorwf	(___aomod@divisor+3)^0,w,c
  4195  001A54  100D               	iorwf	(___aomod@divisor+4)^0,w,c
  4196  001A56  100E               	iorwf	(___aomod@divisor+5)^0,w,c
  4197  001A58  100F               	iorwf	(___aomod@divisor+6)^0,w,c
  4198  001A5A  1010               	iorwf	(___aomod@divisor+7)^0,w,c
  4199  001A5C  B4D8               	btfsc	status,2,c
  4200  001A5E  EF33  F00D         	goto	i2u102_41
  4201  001A62  EF35  F00D         	goto	i2u102_40
  4202  001A66                     i2u102_41:
  4203  001A66  EF7D  F00D         	goto	i2l1805
  4204  001A6A                     i2u102_40:
  4205  001A6A  0E01               	movlw	1
  4206  001A6C  6E11               	movwf	___aomod@counter^0,c
  4207  001A6E  EF43  F00D         	goto	i2l1795
  4208  001A72                     i2l1793:
  4209  001A72  90D8               	bcf	status,0,c
  4210  001A74  3609               	rlcf	___aomod@divisor^0,f,c
  4211  001A76  360A               	rlcf	(___aomod@divisor+1)^0,f,c
  4212  001A78  360B               	rlcf	(___aomod@divisor+2)^0,f,c
  4213  001A7A  360C               	rlcf	(___aomod@divisor+3)^0,f,c
  4214  001A7C  360D               	rlcf	(___aomod@divisor+4)^0,f,c
  4215  001A7E  360E               	rlcf	(___aomod@divisor+5)^0,f,c
  4216  001A80  360F               	rlcf	(___aomod@divisor+6)^0,f,c
  4217  001A82  3610               	rlcf	(___aomod@divisor+7)^0,f,c
  4218  001A84  2A11               	incf	___aomod@counter^0,f,c
  4219  001A86                     i2l1795:
  4220  001A86  AE10               	btfss	(___aomod@divisor+7)^0,7,c
  4221  001A88  EF48  F00D         	goto	i2u103_41
  4222  001A8C  EF4A  F00D         	goto	i2u103_40
  4223  001A90                     i2u103_41:
  4224  001A90  EF39  F00D         	goto	i2l1793
  4225  001A94                     i2u103_40:
  4226  001A94                     i2l1797:
  4227  001A94  5009               	movf	___aomod@divisor^0,w,c
  4228  001A96  5C01               	subwf	___aomod@dividend^0,w,c
  4229  001A98  500A               	movf	(___aomod@divisor+1)^0,w,c
  4230  001A9A  5802               	subwfb	(___aomod@dividend+1)^0,w,c
  4231  001A9C  500B               	movf	(___aomod@divisor+2)^0,w,c
  4232  001A9E  5803               	subwfb	(___aomod@dividend+2)^0,w,c
  4233  001AA0  500C               	movf	(___aomod@divisor+3)^0,w,c
  4234  001AA2  5804               	subwfb	(___aomod@dividend+3)^0,w,c
  4235  001AA4  500D               	movf	(___aomod@divisor+4)^0,w,c
  4236  001AA6  5805               	subwfb	(___aomod@dividend+4)^0,w,c
  4237  001AA8  500E               	movf	(___aomod@divisor+5)^0,w,c
  4238  001AAA  5806               	subwfb	(___aomod@dividend+5)^0,w,c
  4239  001AAC  500F               	movf	(___aomod@divisor+6)^0,w,c
  4240  001AAE  5807               	subwfb	(___aomod@dividend+6)^0,w,c
  4241  001AB0  5010               	movf	(___aomod@divisor+7)^0,w,c
  4242  001AB2  5808               	subwfb	(___aomod@dividend+7)^0,w,c
  4243  001AB4  A0D8               	btfss	status,0,c
  4244  001AB6  EF5F  F00D         	goto	i2u104_41
  4245  001ABA  EF61  F00D         	goto	i2u104_40
  4246  001ABE                     i2u104_41:
  4247  001ABE  EF71  F00D         	goto	i2l1801
  4248  001AC2                     i2u104_40:
  4249  001AC2  5009               	movf	___aomod@divisor^0,w,c
  4250  001AC4  5E01               	subwf	___aomod@dividend^0,f,c
  4251  001AC6  500A               	movf	(___aomod@divisor+1)^0,w,c
  4252  001AC8  5A02               	subwfb	(___aomod@dividend+1)^0,f,c
  4253  001ACA  500B               	movf	(___aomod@divisor+2)^0,w,c
  4254  001ACC  5A03               	subwfb	(___aomod@dividend+2)^0,f,c
  4255  001ACE  500C               	movf	(___aomod@divisor+3)^0,w,c
  4256  001AD0  5A04               	subwfb	(___aomod@dividend+3)^0,f,c
  4257  001AD2  500D               	movf	(___aomod@divisor+4)^0,w,c
  4258  001AD4  5A05               	subwfb	(___aomod@dividend+4)^0,f,c
  4259  001AD6  500E               	movf	(___aomod@divisor+5)^0,w,c
  4260  001AD8  5A06               	subwfb	(___aomod@dividend+5)^0,f,c
  4261  001ADA  500F               	movf	(___aomod@divisor+6)^0,w,c
  4262  001ADC  5A07               	subwfb	(___aomod@dividend+6)^0,f,c
  4263  001ADE  5010               	movf	(___aomod@divisor+7)^0,w,c
  4264  001AE0  5A08               	subwfb	(___aomod@dividend+7)^0,f,c
  4265  001AE2                     i2l1801:
  4266  001AE2  90D8               	bcf	status,0,c
  4267  001AE4  3210               	rrcf	(___aomod@divisor+7)^0,f,c
  4268  001AE6  320F               	rrcf	(___aomod@divisor+6)^0,f,c
  4269  001AE8  320E               	rrcf	(___aomod@divisor+5)^0,f,c
  4270  001AEA  320D               	rrcf	(___aomod@divisor+4)^0,f,c
  4271  001AEC  320C               	rrcf	(___aomod@divisor+3)^0,f,c
  4272  001AEE  320B               	rrcf	(___aomod@divisor+2)^0,f,c
  4273  001AF0  320A               	rrcf	(___aomod@divisor+1)^0,f,c
  4274  001AF2  3209               	rrcf	___aomod@divisor^0,f,c
  4275  001AF4  2E11               	decfsz	___aomod@counter^0,f,c
  4276  001AF6  EF4A  F00D         	goto	i2l1797
  4277  001AFA                     i2l1805:
  4278  001AFA  5012               	movf	___aomod@sign^0,w,c
  4279  001AFC  B4D8               	btfsc	status,2,c
  4280  001AFE  EF83  F00D         	goto	i2u105_41
  4281  001B02  EF85  F00D         	goto	i2u105_40
  4282  001B06                     i2u105_41:
  4283  001B06  EF95  F00D         	goto	i2l1809
  4284  001B0A                     i2u105_40:
  4285  001B0A  1E08               	comf	(___aomod@dividend+7)^0,f,c
  4286  001B0C  1E07               	comf	(___aomod@dividend+6)^0,f,c
  4287  001B0E  1E06               	comf	(___aomod@dividend+5)^0,f,c
  4288  001B10  1E05               	comf	(___aomod@dividend+4)^0,f,c
  4289  001B12  1E04               	comf	(___aomod@dividend+3)^0,f,c
  4290  001B14  1E03               	comf	(___aomod@dividend+2)^0,f,c
  4291  001B16  1E02               	comf	(___aomod@dividend+1)^0,f,c
  4292  001B18  6C01               	negf	___aomod@dividend^0,c
  4293  001B1A  0E00               	movlw	0
  4294  001B1C  2202               	addwfc	(___aomod@dividend+1)^0,f,c
  4295  001B1E  2203               	addwfc	(___aomod@dividend+2)^0,f,c
  4296  001B20  2204               	addwfc	(___aomod@dividend+3)^0,f,c
  4297  001B22  2205               	addwfc	(___aomod@dividend+4)^0,f,c
  4298  001B24  2206               	addwfc	(___aomod@dividend+5)^0,f,c
  4299  001B26  2207               	addwfc	(___aomod@dividend+6)^0,f,c
  4300  001B28  2208               	addwfc	(___aomod@dividend+7)^0,f,c
  4301  001B2A                     i2l1809:
  4302  001B2A  C001  F001         	movff	___aomod@dividend,?___aomod
  4303  001B2E  C002  F002         	movff	___aomod@dividend+1,?___aomod+1
  4304  001B32  C003  F003         	movff	___aomod@dividend+2,?___aomod+2
  4305  001B36  C004  F004         	movff	___aomod@dividend+3,?___aomod+3
  4306  001B3A  C005  F005         	movff	___aomod@dividend+4,?___aomod+4
  4307  001B3E  C006  F006         	movff	___aomod@dividend+5,?___aomod+5
  4308  001B42  C007  F007         	movff	___aomod@dividend+6,?___aomod+6
  4309  001B46  C008  F008         	movff	___aomod@dividend+7,?___aomod+7
  4310  001B4A  0012               	return		;funcret
  4311  001B4C                     __end_of___aomod:
  4312                           	callstack 0
  4313                           
  4314 ;; *************** function ___aodiv *****************
  4315 ;; Defined at:
  4316 ;;		line 9 in file "/opt/microchip/xc8/v2.30/pic/sources/c99/common/aodiv.c"
  4317 ;; Parameters:    Size  Location     Type
  4318 ;;  dividend        8    0[COMRAM] long long 
  4319 ;;  divisor         8    8[COMRAM] long long 
  4320 ;; Auto vars:     Size  Location     Type
  4321 ;;  quotient        8   18[COMRAM] long long 
  4322 ;;  sign            1   17[COMRAM] unsigned char 
  4323 ;;  counter         1   16[COMRAM] unsigned char 
  4324 ;; Return value:  Size  Location     Type
  4325 ;;                  8    0[COMRAM] long long 
  4326 ;; Registers used:
  4327 ;;		wreg, fsr2l, fsr2h, status,2, status,0
  4328 ;; Tracked objects:
  4329 ;;		On entry : 0/0
  4330 ;;		On exit  : 0/0
  4331 ;;		Unchanged: 0/0
  4332 ;; Data sizes:     COMRAM   BANK0   BANK1   BANK2   BANK3   BANK4   BANK5   BANK6   BANK7   BANK8   BANK9  BANK10  BANK1
      +1  BANK12  BANK13  BANK14  BANK15
  4333 ;;      Params:        16       0       0       0       0       0       0       0       0       0       0       0       
      +0       0       0       0       0
  4334 ;;      Locals:        10       0       0       0       0       0       0       0       0       0       0       0       
      +0       0       0       0       0
  4335 ;;      Temps:          0       0       0       0       0       0       0       0       0       0       0       0       
      +0       0       0       0       0
  4336 ;;      Totals:        26       0       0       0       0       0       0       0       0       0       0       0       
      +0       0       0       0       0
  4337 ;;Total ram usage:       26 bytes
  4338 ;; Hardware stack levels used:    1
  4339 ;; This function calls:
  4340 ;;		Nothing
  4341 ;; This function is called by:
  4342 ;;		_dtoa
  4343 ;; This function uses a non-reentrant model
  4344 ;;
  4345                           
  4346                           	psect	text25
  4347  001860                     __ptext25:
  4348                           	callstack 0
  4349  001860                     ___aodiv:
  4350                           	callstack 22
  4351  001860  0E00               	movlw	0
  4352  001862  6E12               	movwf	___aodiv@sign^0,c
  4353  001864  BE10               	btfsc	(___aodiv@divisor+7)^0,7,c
  4354  001866  EF39  F00C         	goto	i2u93_40
  4355  00186A  EF37  F00C         	goto	i2u93_41
  4356  00186E                     i2u93_41:
  4357  00186E  EF4B  F00C         	goto	i2l1741
  4358  001872                     i2u93_40:
  4359  001872  1E10               	comf	(___aodiv@divisor+7)^0,f,c
  4360  001874  1E0F               	comf	(___aodiv@divisor+6)^0,f,c
  4361  001876  1E0E               	comf	(___aodiv@divisor+5)^0,f,c
  4362  001878  1E0D               	comf	(___aodiv@divisor+4)^0,f,c
  4363  00187A  1E0C               	comf	(___aodiv@divisor+3)^0,f,c
  4364  00187C  1E0B               	comf	(___aodiv@divisor+2)^0,f,c
  4365  00187E  1E0A               	comf	(___aodiv@divisor+1)^0,f,c
  4366  001880  6C09               	negf	___aodiv@divisor^0,c
  4367  001882  0E00               	movlw	0
  4368  001884  220A               	addwfc	(___aodiv@divisor+1)^0,f,c
  4369  001886  220B               	addwfc	(___aodiv@divisor+2)^0,f,c
  4370  001888  220C               	addwfc	(___aodiv@divisor+3)^0,f,c
  4371  00188A  220D               	addwfc	(___aodiv@divisor+4)^0,f,c
  4372  00188C  220E               	addwfc	(___aodiv@divisor+5)^0,f,c
  4373  00188E  220F               	addwfc	(___aodiv@divisor+6)^0,f,c
  4374  001890  2210               	addwfc	(___aodiv@divisor+7)^0,f,c
  4375  001892  0E01               	movlw	1
  4376  001894  6E12               	movwf	___aodiv@sign^0,c
  4377  001896                     i2l1741:
  4378  001896  BE08               	btfsc	(___aodiv@dividend+7)^0,7,c
  4379  001898  EF52  F00C         	goto	i2u94_40
  4380  00189C  EF50  F00C         	goto	i2u94_41
  4381  0018A0                     i2u94_41:
  4382  0018A0  EF64  F00C         	goto	i2l1747
  4383  0018A4                     i2u94_40:
  4384  0018A4  1E08               	comf	(___aodiv@dividend+7)^0,f,c
  4385  0018A6  1E07               	comf	(___aodiv@dividend+6)^0,f,c
  4386  0018A8  1E06               	comf	(___aodiv@dividend+5)^0,f,c
  4387  0018AA  1E05               	comf	(___aodiv@dividend+4)^0,f,c
  4388  0018AC  1E04               	comf	(___aodiv@dividend+3)^0,f,c
  4389  0018AE  1E03               	comf	(___aodiv@dividend+2)^0,f,c
  4390  0018B0  1E02               	comf	(___aodiv@dividend+1)^0,f,c
  4391  0018B2  6C01               	negf	___aodiv@dividend^0,c
  4392  0018B4  0E00               	movlw	0
  4393  0018B6  2202               	addwfc	(___aodiv@dividend+1)^0,f,c
  4394  0018B8  2203               	addwfc	(___aodiv@dividend+2)^0,f,c
  4395  0018BA  2204               	addwfc	(___aodiv@dividend+3)^0,f,c
  4396  0018BC  2205               	addwfc	(___aodiv@dividend+4)^0,f,c
  4397  0018BE  2206               	addwfc	(___aodiv@dividend+5)^0,f,c
  4398  0018C0  2207               	addwfc	(___aodiv@dividend+6)^0,f,c
  4399  0018C2  2208               	addwfc	(___aodiv@dividend+7)^0,f,c
  4400  0018C4  0E01               	movlw	1
  4401  0018C6  1A12               	xorwf	___aodiv@sign^0,f,c
  4402  0018C8                     i2l1747:
  4403  0018C8  EE20  F013         	lfsr	2,___aodiv@quotient
  4404  0018CC  0E07               	movlw	7
  4405  0018CE                     i2u95_41:
  4406  0018CE  6ADE               	clrf	postinc2,c
  4407  0018D0  06E8               	decf	wreg,f,c
  4408  0018D2  E2FD               	bc	i2u95_41
  4409  0018D4  5009               	movf	___aodiv@divisor^0,w,c
  4410  0018D6  100A               	iorwf	(___aodiv@divisor+1)^0,w,c
  4411  0018D8  100B               	iorwf	(___aodiv@divisor+2)^0,w,c
  4412  0018DA  100C               	iorwf	(___aodiv@divisor+3)^0,w,c
  4413  0018DC  100D               	iorwf	(___aodiv@divisor+4)^0,w,c
  4414  0018DE  100E               	iorwf	(___aodiv@divisor+5)^0,w,c
  4415  0018E0  100F               	iorwf	(___aodiv@divisor+6)^0,w,c
  4416  0018E2  1010               	iorwf	(___aodiv@divisor+7)^0,w,c
  4417  0018E4  B4D8               	btfsc	status,2,c
  4418  0018E6  EF77  F00C         	goto	i2u96_41
  4419  0018EA  EF79  F00C         	goto	i2u96_40
  4420  0018EE                     i2u96_41:
  4421  0018EE  EFCB  F00C         	goto	i2l1769
  4422  0018F2                     i2u96_40:
  4423  0018F2  0E01               	movlw	1
  4424  0018F4  6E11               	movwf	___aodiv@counter^0,c
  4425  0018F6  EF87  F00C         	goto	i2l1755
  4426  0018FA                     i2l1753:
  4427  0018FA  90D8               	bcf	status,0,c
  4428  0018FC  3609               	rlcf	___aodiv@divisor^0,f,c
  4429  0018FE  360A               	rlcf	(___aodiv@divisor+1)^0,f,c
  4430  001900  360B               	rlcf	(___aodiv@divisor+2)^0,f,c
  4431  001902  360C               	rlcf	(___aodiv@divisor+3)^0,f,c
  4432  001904  360D               	rlcf	(___aodiv@divisor+4)^0,f,c
  4433  001906  360E               	rlcf	(___aodiv@divisor+5)^0,f,c
  4434  001908  360F               	rlcf	(___aodiv@divisor+6)^0,f,c
  4435  00190A  3610               	rlcf	(___aodiv@divisor+7)^0,f,c
  4436  00190C  2A11               	incf	___aodiv@counter^0,f,c
  4437  00190E                     i2l1755:
  4438  00190E  AE10               	btfss	(___aodiv@divisor+7)^0,7,c
  4439  001910  EF8C  F00C         	goto	i2u97_41
  4440  001914  EF8E  F00C         	goto	i2u97_40
  4441  001918                     i2u97_41:
  4442  001918  EF7D  F00C         	goto	i2l1753
  4443  00191C                     i2u97_40:
  4444  00191C                     i2l1757:
  4445  00191C  90D8               	bcf	status,0,c
  4446  00191E  3613               	rlcf	___aodiv@quotient^0,f,c
  4447  001920  3614               	rlcf	(___aodiv@quotient+1)^0,f,c
  4448  001922  3615               	rlcf	(___aodiv@quotient+2)^0,f,c
  4449  001924  3616               	rlcf	(___aodiv@quotient+3)^0,f,c
  4450  001926  3617               	rlcf	(___aodiv@quotient+4)^0,f,c
  4451  001928  3618               	rlcf	(___aodiv@quotient+5)^0,f,c
  4452  00192A  3619               	rlcf	(___aodiv@quotient+6)^0,f,c
  4453  00192C  361A               	rlcf	(___aodiv@quotient+7)^0,f,c
  4454  00192E  5009               	movf	___aodiv@divisor^0,w,c
  4455  001930  5C01               	subwf	___aodiv@dividend^0,w,c
  4456  001932  500A               	movf	(___aodiv@divisor+1)^0,w,c
  4457  001934  5802               	subwfb	(___aodiv@dividend+1)^0,w,c
  4458  001936  500B               	movf	(___aodiv@divisor+2)^0,w,c
  4459  001938  5803               	subwfb	(___aodiv@dividend+2)^0,w,c
  4460  00193A  500C               	movf	(___aodiv@divisor+3)^0,w,c
  4461  00193C  5804               	subwfb	(___aodiv@dividend+3)^0,w,c
  4462  00193E  500D               	movf	(___aodiv@divisor+4)^0,w,c
  4463  001940  5805               	subwfb	(___aodiv@dividend+4)^0,w,c
  4464  001942  500E               	movf	(___aodiv@divisor+5)^0,w,c
  4465  001944  5806               	subwfb	(___aodiv@dividend+5)^0,w,c
  4466  001946  500F               	movf	(___aodiv@divisor+6)^0,w,c
  4467  001948  5807               	subwfb	(___aodiv@dividend+6)^0,w,c
  4468  00194A  5010               	movf	(___aodiv@divisor+7)^0,w,c
  4469  00194C  5808               	subwfb	(___aodiv@dividend+7)^0,w,c
  4470  00194E  A0D8               	btfss	status,0,c
  4471  001950  EFAC  F00C         	goto	i2u98_41
  4472  001954  EFAE  F00C         	goto	i2u98_40
  4473  001958                     i2u98_41:
  4474  001958  EFBF  F00C         	goto	i2l1765
  4475  00195C                     i2u98_40:
  4476  00195C  5009               	movf	___aodiv@divisor^0,w,c
  4477  00195E  5E01               	subwf	___aodiv@dividend^0,f,c
  4478  001960  500A               	movf	(___aodiv@divisor+1)^0,w,c
  4479  001962  5A02               	subwfb	(___aodiv@dividend+1)^0,f,c
  4480  001964  500B               	movf	(___aodiv@divisor+2)^0,w,c
  4481  001966  5A03               	subwfb	(___aodiv@dividend+2)^0,f,c
  4482  001968  500C               	movf	(___aodiv@divisor+3)^0,w,c
  4483  00196A  5A04               	subwfb	(___aodiv@dividend+3)^0,f,c
  4484  00196C  500D               	movf	(___aodiv@divisor+4)^0,w,c
  4485  00196E  5A05               	subwfb	(___aodiv@dividend+4)^0,f,c
  4486  001970  500E               	movf	(___aodiv@divisor+5)^0,w,c
  4487  001972  5A06               	subwfb	(___aodiv@dividend+5)^0,f,c
  4488  001974  500F               	movf	(___aodiv@divisor+6)^0,w,c
  4489  001976  5A07               	subwfb	(___aodiv@dividend+6)^0,f,c
  4490  001978  5010               	movf	(___aodiv@divisor+7)^0,w,c
  4491  00197A  5A08               	subwfb	(___aodiv@dividend+7)^0,f,c
  4492  00197C  8013               	bsf	___aodiv@quotient^0,0,c
  4493  00197E                     i2l1765:
  4494  00197E  90D8               	bcf	status,0,c
  4495  001980  3210               	rrcf	(___aodiv@divisor+7)^0,f,c
  4496  001982  320F               	rrcf	(___aodiv@divisor+6)^0,f,c
  4497  001984  320E               	rrcf	(___aodiv@divisor+5)^0,f,c
  4498  001986  320D               	rrcf	(___aodiv@divisor+4)^0,f,c
  4499  001988  320C               	rrcf	(___aodiv@divisor+3)^0,f,c
  4500  00198A  320B               	rrcf	(___aodiv@divisor+2)^0,f,c
  4501  00198C  320A               	rrcf	(___aodiv@divisor+1)^0,f,c
  4502  00198E  3209               	rrcf	___aodiv@divisor^0,f,c
  4503  001990  2E11               	decfsz	___aodiv@counter^0,f,c
  4504  001992  EF8E  F00C         	goto	i2l1757
  4505  001996                     i2l1769:
  4506  001996  5012               	movf	___aodiv@sign^0,w,c
  4507  001998  B4D8               	btfsc	status,2,c
  4508  00199A  EFD1  F00C         	goto	i2u99_41
  4509  00199E  EFD3  F00C         	goto	i2u99_40
  4510  0019A2                     i2u99_41:
  4511  0019A2  EFE3  F00C         	goto	i2l1773
  4512  0019A6                     i2u99_40:
  4513  0019A6  1E1A               	comf	(___aodiv@quotient+7)^0,f,c
  4514  0019A8  1E19               	comf	(___aodiv@quotient+6)^0,f,c
  4515  0019AA  1E18               	comf	(___aodiv@quotient+5)^0,f,c
  4516  0019AC  1E17               	comf	(___aodiv@quotient+4)^0,f,c
  4517  0019AE  1E16               	comf	(___aodiv@quotient+3)^0,f,c
  4518  0019B0  1E15               	comf	(___aodiv@quotient+2)^0,f,c
  4519  0019B2  1E14               	comf	(___aodiv@quotient+1)^0,f,c
  4520  0019B4  6C13               	negf	___aodiv@quotient^0,c
  4521  0019B6  0E00               	movlw	0
  4522  0019B8  2214               	addwfc	(___aodiv@quotient+1)^0,f,c
  4523  0019BA  2215               	addwfc	(___aodiv@quotient+2)^0,f,c
  4524  0019BC  2216               	addwfc	(___aodiv@quotient+3)^0,f,c
  4525  0019BE  2217               	addwfc	(___aodiv@quotient+4)^0,f,c
  4526  0019C0  2218               	addwfc	(___aodiv@quotient+5)^0,f,c
  4527  0019C2  2219               	addwfc	(___aodiv@quotient+6)^0,f,c
  4528  0019C4  221A               	addwfc	(___aodiv@quotient+7)^0,f,c
  4529  0019C6                     i2l1773:
  4530  0019C6  C013  F001         	movff	___aodiv@quotient,?___aodiv
  4531  0019CA  C014  F002         	movff	___aodiv@quotient+1,?___aodiv+1
  4532  0019CE  C015  F003         	movff	___aodiv@quotient+2,?___aodiv+2
  4533  0019D2  C016  F004         	movff	___aodiv@quotient+3,?___aodiv+3
  4534  0019D6  C017  F005         	movff	___aodiv@quotient+4,?___aodiv+4
  4535  0019DA  C018  F006         	movff	___aodiv@quotient+5,?___aodiv+5
  4536  0019DE  C019  F007         	movff	___aodiv@quotient+6,?___aodiv+6
  4537  0019E2  C01A  F008         	movff	___aodiv@quotient+7,?___aodiv+7
  4538  0019E6  0012               	return		;funcret
  4539  0019E8                     __end_of___aodiv:
  4540                           	callstack 0
  4541                           
  4542 ;; *************** function ___awmod *****************
  4543 ;; Defined at:
  4544 ;;		line 7 in file "/opt/microchip/xc8/v2.30/pic/sources/c99/common/awmod.c"
  4545 ;; Parameters:    Size  Location     Type
  4546 ;;  dividend        2    0[COMRAM] int 
  4547 ;;  divisor         2    2[COMRAM] int 
  4548 ;; Auto vars:     Size  Location     Type
  4549 ;;  sign            1    5[COMRAM] unsigned char 
  4550 ;;  counter         1    4[COMRAM] unsigned char 
  4551 ;; Return value:  Size  Location     Type
  4552 ;;                  2    0[COMRAM] int 
  4553 ;; Registers used:
  4554 ;;		wreg, status,2, status,0
  4555 ;; Tracked objects:
  4556 ;;		On entry : 0/0
  4557 ;;		On exit  : 0/0
  4558 ;;		Unchanged: 0/0
  4559 ;; Data sizes:     COMRAM   BANK0   BANK1   BANK2   BANK3   BANK4   BANK5   BANK6   BANK7   BANK8   BANK9  BANK10  BANK1
      +1  BANK12  BANK13  BANK14  BANK15
  4560 ;;      Params:         4       0       0       0       0       0       0       0       0       0       0       0       
      +0       0       0       0       0
  4561 ;;      Locals:         2       0       0       0       0       0       0       0       0       0       0       0       
      +0       0       0       0       0
  4562 ;;      Temps:          0       0       0       0       0       0       0       0       0       0       0       0       
      +0       0       0       0       0
  4563 ;;      Totals:         6       0       0       0       0       0       0       0       0       0       0       0       
      +0       0       0       0       0
  4564 ;;Total ram usage:        6 bytes
  4565 ;; Hardware stack levels used:    1
  4566 ;; This function calls:
  4567 ;;		Nothing
  4568 ;; This function is called by:
  4569 ;;		_FNC
  4570 ;; This function uses a non-reentrant model
  4571 ;;
  4572                           
  4573                           	psect	text26
  4574  001D12                     __ptext26:
  4575                           	callstack 0
  4576  001D12                     ___awmod:
  4577                           	callstack 27
  4578  001D12  0E00               	movlw	0
  4579  001D14  6E06               	movwf	___awmod@sign^0,c
  4580  001D16  BE02               	btfsc	(___awmod@dividend+1)^0,7,c
  4581  001D18  EF92  F00E         	goto	i2u141_40
  4582  001D1C  EF90  F00E         	goto	i2u141_41
  4583  001D20                     i2u141_41:
  4584  001D20  EF98  F00E         	goto	i2l2131
  4585  001D24                     i2u141_40:
  4586  001D24  6C01               	negf	___awmod@dividend^0,c
  4587  001D26  1E02               	comf	(___awmod@dividend+1)^0,f,c
  4588  001D28  B0D8               	btfsc	status,0,c
  4589  001D2A  2A02               	incf	(___awmod@dividend+1)^0,f,c
  4590  001D2C  0E01               	movlw	1
  4591  001D2E  6E06               	movwf	___awmod@sign^0,c
  4592  001D30                     i2l2131:
  4593  001D30  BE04               	btfsc	(___awmod@divisor+1)^0,7,c
  4594  001D32  EF9F  F00E         	goto	i2u142_40
  4595  001D36  EF9D  F00E         	goto	i2u142_41
  4596  001D3A                     i2u142_41:
  4597  001D3A  EFA3  F00E         	goto	i2l2135
  4598  001D3E                     i2u142_40:
  4599  001D3E  6C03               	negf	___awmod@divisor^0,c
  4600  001D40  1E04               	comf	(___awmod@divisor+1)^0,f,c
  4601  001D42  B0D8               	btfsc	status,0,c
  4602  001D44  2A04               	incf	(___awmod@divisor+1)^0,f,c
  4603  001D46                     i2l2135:
  4604  001D46  5003               	movf	___awmod@divisor^0,w,c
  4605  001D48  1004               	iorwf	(___awmod@divisor+1)^0,w,c
  4606  001D4A  B4D8               	btfsc	status,2,c
  4607  001D4C  EFAA  F00E         	goto	i2u143_41
  4608  001D50  EFAC  F00E         	goto	i2u143_40
  4609  001D54                     i2u143_41:
  4610  001D54  EFD0  F00E         	goto	i2l2151
  4611  001D58                     i2u143_40:
  4612  001D58  0E01               	movlw	1
  4613  001D5A  6E05               	movwf	___awmod@counter^0,c
  4614  001D5C  EFB4  F00E         	goto	i2l2141
  4615  001D60                     i2l2139:
  4616  001D60  90D8               	bcf	status,0,c
  4617  001D62  3603               	rlcf	___awmod@divisor^0,f,c
  4618  001D64  3604               	rlcf	(___awmod@divisor+1)^0,f,c
  4619  001D66  2A05               	incf	___awmod@counter^0,f,c
  4620  001D68                     i2l2141:
  4621  001D68  AE04               	btfss	(___awmod@divisor+1)^0,7,c
  4622  001D6A  EFB9  F00E         	goto	i2u144_41
  4623  001D6E  EFBB  F00E         	goto	i2u144_40
  4624  001D72                     i2u144_41:
  4625  001D72  EFB0  F00E         	goto	i2l2139
  4626  001D76                     i2u144_40:
  4627  001D76                     i2l2143:
  4628  001D76  5003               	movf	___awmod@divisor^0,w,c
  4629  001D78  5C01               	subwf	___awmod@dividend^0,w,c
  4630  001D7A  5004               	movf	(___awmod@divisor+1)^0,w,c
  4631  001D7C  5802               	subwfb	(___awmod@dividend+1)^0,w,c
  4632  001D7E  A0D8               	btfss	status,0,c
  4633  001D80  EFC4  F00E         	goto	i2u145_41
  4634  001D84  EFC6  F00E         	goto	i2u145_40
  4635  001D88                     i2u145_41:
  4636  001D88  EFCA  F00E         	goto	i2l2147
  4637  001D8C                     i2u145_40:
  4638  001D8C  5003               	movf	___awmod@divisor^0,w,c
  4639  001D8E  5E01               	subwf	___awmod@dividend^0,f,c
  4640  001D90  5004               	movf	(___awmod@divisor+1)^0,w,c
  4641  001D92  5A02               	subwfb	(___awmod@dividend+1)^0,f,c
  4642  001D94                     i2l2147:
  4643  001D94  90D8               	bcf	status,0,c
  4644  001D96  3204               	rrcf	(___awmod@divisor+1)^0,f,c
  4645  001D98  3203               	rrcf	___awmod@divisor^0,f,c
  4646  001D9A  2E05               	decfsz	___awmod@counter^0,f,c
  4647  001D9C  EFBB  F00E         	goto	i2l2143
  4648  001DA0                     i2l2151:
  4649  001DA0  5006               	movf	___awmod@sign^0,w,c
  4650  001DA2  B4D8               	btfsc	status,2,c
  4651  001DA4  EFD6  F00E         	goto	i2u146_41
  4652  001DA8  EFD8  F00E         	goto	i2u146_40
  4653  001DAC                     i2u146_41:
  4654  001DAC  EFDC  F00E         	goto	i2l2155
  4655  001DB0                     i2u146_40:
  4656  001DB0  6C01               	negf	___awmod@dividend^0,c
  4657  001DB2  1E02               	comf	(___awmod@dividend+1)^0,f,c
  4658  001DB4  B0D8               	btfsc	status,0,c
  4659  001DB6  2A02               	incf	(___awmod@dividend+1)^0,f,c
  4660  001DB8                     i2l2155:
  4661  001DB8  C001  F001         	movff	___awmod@dividend,?___awmod
  4662  001DBC  C002  F002         	movff	___awmod@dividend+1,?___awmod+1
  4663  001DC0  0012               	return		;funcret
  4664  001DC2                     __end_of___awmod:
  4665                           	callstack 0
  4666                           
  4667                           	psect	rparam
  4668  0000                     
  4669                           	psect	temp
  4670  00007F                     btemp:
  4671                           	callstack 0
  4672  00007F                     	ds	1
  4673  0000                     int$flags	set	btemp
  4674  0000                     wtemp8	set	btemp+1
  4675  0000                     ttemp5	set	btemp+1
  4676  0000                     ttemp6	set	btemp+4
  4677  0000                     ttemp7	set	btemp+8
  4678                           
  4679                           	psect	idloc
  4680                           
  4681                           ;Config register IDLOC0 @ 0x200000
  4682                           ;	unspecified, using default values
  4683  200000                     	org	2097152
  4684  200000  FF                 	db	255
  4685                           
  4686                           ;Config register IDLOC1 @ 0x200001
  4687                           ;	unspecified, using default values
  4688  200001                     	org	2097153
  4689  200001  FF                 	db	255
  4690                           
  4691                           ;Config register IDLOC2 @ 0x200002
  4692                           ;	unspecified, using default values
  4693  200002                     	org	2097154
  4694  200002  FF                 	db	255
  4695                           
  4696                           ;Config register IDLOC3 @ 0x200003
  4697                           ;	unspecified, using default values
  4698  200003                     	org	2097155
  4699  200003  FF                 	db	255
  4700                           
  4701                           ;Config register IDLOC4 @ 0x200004
  4702                           ;	unspecified, using default values
  4703  200004                     	org	2097156
  4704  200004  FF                 	db	255
  4705                           
  4706                           ;Config register IDLOC5 @ 0x200005
  4707                           ;	unspecified, using default values
  4708  200005                     	org	2097157
  4709  200005  FF                 	db	255
  4710                           
  4711                           ;Config register IDLOC6 @ 0x200006
  4712                           ;	unspecified, using default values
  4713  200006                     	org	2097158
  4714  200006  FF                 	db	255
  4715                           
  4716                           ;Config register IDLOC7 @ 0x200007
  4717                           ;	unspecified, using default values
  4718  200007                     	org	2097159
  4719  200007  FF                 	db	255
  4720                           
  4721                           	psect	config
  4722                           
  4723                           ; Padding undefined space
  4724  300000                     	org	3145728
  4725  300000  FF                 	db	255
  4726                           
  4727                           ;Config register CONFIG1H @ 0x300001
  4728                           ;	Oscillator Selection bits
  4729                           ;	OSC = INTIO67, Internal oscillator block, port function on RA6 and RA7
  4730                           ;	Fail-Safe Clock Monitor Enable bit
  4731                           ;	FCMEN = OFF, Fail-Safe Clock Monitor disabled
  4732                           ;	Internal/External Oscillator Switchover bit
  4733                           ;	IESO = OFF, Oscillator Switchover mode disabled
  4734  300001                     	org	3145729
  4735  300001  08                 	db	8
  4736                           
  4737                           ;Config register CONFIG2L @ 0x300002
  4738                           ;	Power-up Timer Enable bit
  4739                           ;	PWRT = OFF, PWRT disabled
  4740                           ;	Brown-out Reset Enable bits
  4741                           ;	BOREN = SBORDIS, Brown-out Reset enabled in hardware only (SBOREN is disabled)
  4742                           ;	Brown Out Reset Voltage bits
  4743                           ;	BORV = 3, Minimum setting
  4744  300002                     	org	3145730
  4745  300002  1F                 	db	31
  4746                           
  4747                           ;Config register CONFIG2H @ 0x300003
  4748                           ;	Watchdog Timer Enable bit
  4749                           ;	WDT = OFF, WDT disabled (control is placed on the SWDTEN bit)
  4750                           ;	Watchdog Timer Postscale Select bits
  4751                           ;	WDTPS = 32768, 1:32768
  4752  300003                     	org	3145731
  4753  300003  1E                 	db	30
  4754                           
  4755                           ; Padding undefined space
  4756  300004                     	org	3145732
  4757  300004  FF                 	db	255
  4758                           
  4759                           ;Config register CONFIG3H @ 0x300005
  4760                           ;	CCP2 MUX bit
  4761                           ;	CCP2MX = PORTC, CCP2 input/output is multiplexed with RC1
  4762                           ;	PORTB A/D Enable bit
  4763                           ;	PBADEN = ON, PORTB<4:0> pins are configured as analog input channels on Reset
  4764                           ;	Low-Power Timer1 Oscillator Enable bit
  4765                           ;	LPT1OSC = OFF, Timer1 configured for higher power operation
  4766                           ;	MCLR Pin Enable bit
  4767                           ;	MCLRE = ON, MCLR pin enabled; RE3 input pin disabled
  4768  300005                     	org	3145733
  4769  300005  83                 	db	131
  4770                           
  4771                           ;Config register CONFIG4L @ 0x300006
  4772                           ;	Stack Full/Underflow Reset Enable bit
  4773                           ;	STVREN = ON, Stack full/underflow will cause Reset
  4774                           ;	Single-Supply ICSP Enable bit
  4775                           ;	LVP = OFF, Single-Supply ICSP disabled
  4776                           ;	Extended Instruction Set Enable bit
  4777                           ;	XINST = OFF, Instruction set extension and Indexed Addressing mode disabled (Legacy mo
      +                          de)
  4778                           ;	Background Debugger Enable bit
  4779                           ;	DEBUG = 0x1, unprogrammed default
  4780  300006                     	org	3145734
  4781  300006  81                 	db	129
  4782                           
  4783                           ; Padding undefined space
  4784  300007                     	org	3145735
  4785  300007  FF                 	db	255
  4786                           
  4787                           ;Config register CONFIG5L @ 0x300008
  4788                           ;	Code Protection bit
  4789                           ;	CP0 = OFF, Block 0 (000800-003FFFh) not code-protected
  4790                           ;	Code Protection bit
  4791                           ;	CP1 = OFF, Block 1 (004000-007FFFh) not code-protected
  4792                           ;	Code Protection bit
  4793                           ;	CP2 = OFF, Block 2 (008000-00BFFFh) not code-protected
  4794                           ;	Code Protection bit
  4795                           ;	CP3 = OFF, Block 3 (00C000-00FFFFh) not code-protected
  4796  300008                     	org	3145736
  4797  300008  0F                 	db	15
  4798                           
  4799                           ;Config register CONFIG5H @ 0x300009
  4800                           ;	Boot Block Code Protection bit
  4801                           ;	CPB = OFF, Boot block (000000-0007FFh) not code-protected
  4802                           ;	Data EEPROM Code Protection bit
  4803                           ;	CPD = OFF, Data EEPROM not code-protected
  4804  300009                     	org	3145737
  4805  300009  C0                 	db	192
  4806                           
  4807                           ;Config register CONFIG6L @ 0x30000A
  4808                           ;	Write Protection bit
  4809                           ;	WRT0 = OFF, Block 0 (000800-003FFFh) not write-protected
  4810                           ;	Write Protection bit
  4811                           ;	WRT1 = OFF, Block 1 (004000-007FFFh) not write-protected
  4812                           ;	Write Protection bit
  4813                           ;	WRT2 = OFF, Block 2 (008000-00BFFFh) not write-protected
  4814                           ;	Write Protection bit
  4815                           ;	WRT3 = OFF, Block 3 (00C000-00FFFFh) not write-protected
  4816  30000A                     	org	3145738
  4817  30000A  0F                 	db	15
  4818                           
  4819                           ;Config register CONFIG6H @ 0x30000B
  4820                           ;	Configuration Register Write Protection bit
  4821                           ;	WRTC = OFF, Configuration registers (300000-3000FFh) not write-protected
  4822                           ;	Boot Block Write Protection bit
  4823                           ;	WRTB = OFF, Boot Block (000000-0007FFh) not write-protected
  4824                           ;	Data EEPROM Write Protection bit
  4825                           ;	WRTD = OFF, Data EEPROM not write-protected
  4826  30000B                     	org	3145739
  4827  30000B  E0                 	db	224
  4828                           
  4829                           ;Config register CONFIG7L @ 0x30000C
  4830                           ;	Table Read Protection bit
  4831                           ;	EBTR0 = OFF, Block 0 (000800-003FFFh) not protected from table reads executed in other
      +                           blocks
  4832                           ;	Table Read Protection bit
  4833                           ;	EBTR1 = OFF, Block 1 (004000-007FFFh) not protected from table reads executed in other
      +                           blocks
  4834                           ;	Table Read Protection bit
  4835                           ;	EBTR2 = OFF, Block 2 (008000-00BFFFh) not protected from table reads executed in other
      +                           blocks
  4836                           ;	Table Read Protection bit
  4837                           ;	EBTR3 = OFF, Block 3 (00C000-00FFFFh) not protected from table reads executed in other
      +                           blocks
  4838  30000C                     	org	3145740
  4839  30000C  0F                 	db	15
  4840                           
  4841                           ;Config register CONFIG7H @ 0x30000D
  4842                           ;	Boot Block Table Read Protection bit
  4843                           ;	EBTRB = OFF, Boot Block (000000-0007FFh) not protected from table reads executed in ot
      +                          her blocks
  4844  30000D                     	org	3145741
  4845  30000D  40                 	db	64
  4846                           tosu	equ	0xFFF
  4847                           tosh	equ	0xFFE
  4848                           tosl	equ	0xFFD
  4849                           stkptr	equ	0xFFC
  4850                           pclatu	equ	0xFFB
  4851                           pclath	equ	0xFFA
  4852                           pcl	equ	0xFF9
  4853                           tblptru	equ	0xFF8
  4854                           tblptrh	equ	0xFF7
  4855                           tblptrl	equ	0xFF6
  4856                           tablat	equ	0xFF5
  4857                           prodh	equ	0xFF4
  4858                           prodl	equ	0xFF3
  4859                           indf0	equ	0xFEF
  4860                           postinc0	equ	0xFEE
  4861                           postdec0	equ	0xFED
  4862                           preinc0	equ	0xFEC
  4863                           plusw0	equ	0xFEB
  4864                           fsr0h	equ	0xFEA
  4865                           fsr0l	equ	0xFE9
  4866                           wreg	equ	0xFE8
  4867                           indf1	equ	0xFE7
  4868                           postinc1	equ	0xFE6
  4869                           postdec1	equ	0xFE5
  4870                           preinc1	equ	0xFE4
  4871                           plusw1	equ	0xFE3
  4872                           fsr1h	equ	0xFE2
  4873                           fsr1l	equ	0xFE1
  4874                           bsr	equ	0xFE0
  4875                           indf2	equ	0xFDF
  4876                           postinc2	equ	0xFDE
  4877                           postdec2	equ	0xFDD
  4878                           preinc2	equ	0xFDC
  4879                           plusw2	equ	0xFDB
  4880                           fsr2h	equ	0xFDA
  4881                           fsr2l	equ	0xFD9
  4882                           status	equ	0xFD8

Data Sizes:
    Strings     52
    Constant    0
    Data        105
    BSS         125
    Persistent  0
    Stack       0

Auto Spaces:
    Space          Size  Autos    Used
    COMRAM          126    121     126
    BANK0           128     21     110
    BANK1           256     16     152
    BANK2           256      0       0
    BANK3           256      0       0
    BANK4           256      0       0
    BANK5           256      0       0
    BANK6           256      0       0
    BANK7           256      0       0
    BANK8           256      0       0
    BANK9           256      0       0
    BANK10          256      0       0
    BANK11          256      0       0
    BANK12          256      0       0
    BANK13          256      0       0
    BANK14          256      0       0
    BANK15          128      0       0

Pointer List with Targets:

    strlen@s	PTR const unsigned char  size(2) Largest target is 32
		 -> dbuf(BANK1[32]), 

    strlen@a	PTR const unsigned char  size(2) Largest target is 32
		 -> dbuf(BANK1[32]), 

    fputs@s	PTR const unsigned char  size(2) Largest target is 32
		 -> dbuf(BANK1[32]), 

    fputs@fp	PTR struct _IO_FILE size(2) Largest target is 0
		 -> NULL(NULL[0]), 

    S1169_IO_FILE$buffer	PTR unsigned char  size(2) Largest target is 0

    fputc@fp.buffer	PTR unsigned char  size(2) Largest target is 0

    fputc@fp	PTR struct _IO_FILE size(2) Largest target is 0
		 -> NULL(NULL[0]), 

    vfprintf@ap	PTR PTR void  size(2) Largest target is 2
		 -> printf@ap(COMRAM[2]), 

    vfprintf@fp	PTR struct _IO_FILE size(2) Largest target is 0
		 -> NULL(NULL[0]), 

    vfprintf@fmt	PTR const unsigned char  size(2) Largest target is 52
		 -> STR_1(CODE[52]), 

    vfprintf@cfmt	PTR unsigned char  size(2) Largest target is 52
		 -> STR_1(CODE[52]), 

    vfpfcnvrt@fp	PTR struct _IO_FILE size(2) Largest target is 0
		 -> NULL(NULL[0]), 

    vfpfcnvrt@ap	PTR PTR void  size(2) Largest target is 2
		 -> printf@ap(COMRAM[2]), 

    vfpfcnvrt@fmt	PTR PTR unsigned char  size(2) Largest target is 2
		 -> vfprintf@cfmt(COMRAM[2]), 

    dtoa@fp	PTR struct _IO_FILE size(2) Largest target is 0
		 -> NULL(NULL[0]), 

    pad@fp	PTR struct _IO_FILE size(2) Largest target is 0
		 -> NULL(NULL[0]), 

    pad@buf	PTR unsigned char  size(2) Largest target is 32
		 -> dbuf(BANK1[32]), 

    printf@fmt	PTR const unsigned char  size(2) Largest target is 52
		 -> STR_1(CODE[52]), 

    printf@ap	PTR void [1] size(2) Largest target is 2
		 -> ?_printf(COMRAM[2]), 

    updatePlayerPositionOnLCD$674	PTR unsigned char  size(2) Largest target is 8
		 -> selected_teamB_player(BANK0[8]), selected_teamA_player(BANK0[8]), 

    LCDAddSpecialCharacter@data	PTR unsigned char  size(2) Largest target is 8
		 -> frisbee(BANK0[8]), teamB_player(BANK0[8]), teamA_player(BANK0[8]), selected_teamB_player(BANK0[8]), 
		 -> selected_teamA_player(BANK0[8]), empty(BANK0[8]), 


Critical Paths under _main in COMRAM

    None.

Critical Paths under _FNC in COMRAM

    _FNC->_updatePlayerPositionOnLCD
    _updatePlayerPositionOnLCD->_printf
    i2_LCDGoto->i2_LCDCmd
    i2_LCDAddSpecialCharacter->i2_LCDCmd
    i2_LCDAddSpecialCharacter->i2_LCDDat
    _printf->_vfprintf
    _vfprintf->_vfpfcnvrt
    _vfpfcnvrt->_dtoa
    _dtoa->_pad
    _pad->_fputs
    _fputs->_fputc
    _abs->___aomod

Critical Paths under _main in BANK0

    _main->_LCDGoto
    _main->_readADCChannel
    _LCDGoto->_LCDCmd
    _LCDAddSpecialCharacter->_LCDCmd
    _LCDAddSpecialCharacter->_LCDDat
    _InitLCD->_LCDCmd

Critical Paths under _FNC in BANK0

    None.

Critical Paths under _main in BANK1

    _main->_LCDAddSpecialCharacter

Critical Paths under _FNC in BANK1

    None.

Critical Paths under _main in BANK2

    None.

Critical Paths under _FNC in BANK2

    None.

Critical Paths under _main in BANK3

    None.

Critical Paths under _FNC in BANK3

    None.

Critical Paths under _main in BANK4

    None.

Critical Paths under _FNC in BANK4

    None.

Critical Paths under _main in BANK5

    None.

Critical Paths under _FNC in BANK5

    None.

Critical Paths under _main in BANK6

    None.

Critical Paths under _FNC in BANK6

    None.

Critical Paths under _main in BANK7

    None.

Critical Paths under _FNC in BANK7

    None.

Critical Paths under _main in BANK8

    None.

Critical Paths under _FNC in BANK8

    None.

Critical Paths under _main in BANK9

    None.

Critical Paths under _FNC in BANK9

    None.

Critical Paths under _main in BANK10

    None.

Critical Paths under _FNC in BANK10

    None.

Critical Paths under _main in BANK11

    None.

Critical Paths under _FNC in BANK11

    None.

Critical Paths under _main in BANK12

    None.

Critical Paths under _FNC in BANK12

    None.

Critical Paths under _main in BANK13

    None.

Critical Paths under _FNC in BANK13

    None.

Critical Paths under _main in BANK14

    None.

Critical Paths under _FNC in BANK14

    None.

Critical Paths under _main in BANK15

    None.

Critical Paths under _FNC in BANK15

    None.

Call Graph Tables:

 ---------------------------------------------------------------------------------
 (Depth) Function   	        Calls       Base Space   Used Autos Params    Refs
 ---------------------------------------------------------------------------------
 (0) _main                                                12    12      0    1848
                                              4 BANK1     12    12      0
                            _InitLCD
             _LCDAddSpecialCharacter
                             _LCDDat
                            _LCDGoto
                            _initADC
                     _readADCChannel
 ---------------------------------------------------------------------------------
 (1) _readADCChannel                                       5     3      2     124
                                             18 BANK0      3     1      2
                                              0 BANK1      2     2      0
 ---------------------------------------------------------------------------------
 (1) _initADC                                              0     0      0       0
 ---------------------------------------------------------------------------------
 (1) _LCDGoto                                              2     1      1     870
                                             20 BANK0      1     0      1
                                              0 BANK1      1     1      0
                             _LCDCmd
 ---------------------------------------------------------------------------------
 (1) _LCDAddSpecialCharacter                               4     2      2     783
                                              0 BANK1      4     2      2
                             _LCDCmd
                             _LCDDat
 ---------------------------------------------------------------------------------
 (1) _LCDDat                                               2     2      0      31
                                             18 BANK0      2     2      0
 ---------------------------------------------------------------------------------
 (1) _InitLCD                                              0     0      0      31
                             _LCDCmd
 ---------------------------------------------------------------------------------
 (2) _LCDCmd                                               2     2      0      31
                                             18 BANK0      2     2      0
 ---------------------------------------------------------------------------------
 Estimated maximum stack depth 2
 ---------------------------------------------------------------------------------
 (Depth) Function   	        Calls       Base Space   Used Autos Params    Refs
 ---------------------------------------------------------------------------------
 (3) _FNC                                                 26    26      0    7920
                                            113 COMRAM     8     8      0
                                              0 BANK0     18    18      0
                            ___awmod
                             _millis
          _updatePlayerPositionOnLCD
 ---------------------------------------------------------------------------------
 (4) _updatePlayerPositionOnLCD                           12     2     10    7229
                                            101 COMRAM    12     2     10
                             _printf
           i2_LCDAddSpecialCharacter
                           i2_LCDDat
                          i2_LCDGoto
 ---------------------------------------------------------------------------------
 (5) i2_LCDGoto                                            2     1      1     272
                                              2 COMRAM     2     1      1
                           i2_LCDCmd
 ---------------------------------------------------------------------------------
 (5) i2_LCDAddSpecialCharacter                             4     2      2     208
                                              2 COMRAM     4     2      2
                           i2_LCDCmd
                           i2_LCDDat
 ---------------------------------------------------------------------------------
 (5) i2_LCDDat                                             2     2      0      22
                                              0 COMRAM     2     2      0
 ---------------------------------------------------------------------------------
 (6) i2_LCDCmd                                             2     2      0      22
                                              0 COMRAM     2     2      0
 ---------------------------------------------------------------------------------
 (5) _printf                                              14     4     10    6037
                                             87 COMRAM    14     4     10
                           _vfprintf
 ---------------------------------------------------------------------------------
 (6) _vfprintf                                             8     2      6    5907
                                             79 COMRAM     8     2      6
                          _vfpfcnvrt
 ---------------------------------------------------------------------------------
 (7) _vfpfcnvrt                                           42    36      6    5553
                                             63 COMRAM    16    10      6
                               _dtoa
                              _fputc
 ---------------------------------------------------------------------------------
 (8) _dtoa                                                36    26     10    4226
                                             27 COMRAM    36    26     10
                            ___aodiv
                            ___aomod
                                _abs
                                _pad
 ---------------------------------------------------------------------------------
 (9) _pad                                                 11     5      6    2577
                                             16 COMRAM    11     5      6
                              _fputc
                              _fputs
                             _strlen
 ---------------------------------------------------------------------------------
 (10) _strlen                                              4     2      2     166
                                              0 COMRAM     4     2      2
 ---------------------------------------------------------------------------------
 (10) _fputs                                               7     3      4    1169
                                              9 COMRAM     7     3      4
                              _fputc
 ---------------------------------------------------------------------------------
 (8) _fputc                                                9     5      4     768
                                              0 COMRAM     9     5      4
                              _putch
 ---------------------------------------------------------------------------------
 (9) _putch                                                1     1      0       0
 ---------------------------------------------------------------------------------
 (9) _abs                                                  4     2      2     142
                                             18 COMRAM     4     2      2
                            ___aomod (ARG)
 ---------------------------------------------------------------------------------
 (9) ___aomod                                             18     2     16     448
                                              0 COMRAM    18     2     16
 ---------------------------------------------------------------------------------
 (9) ___aodiv                                             26    10     16     452
                                              0 COMRAM    26    10     16
 ---------------------------------------------------------------------------------
 (4) _millis                                               0     0      0       0
 ---------------------------------------------------------------------------------
 (4) ___awmod                                              6     2      4     600
                                              0 COMRAM     6     2      4
 ---------------------------------------------------------------------------------
 Estimated maximum stack depth 10
 ---------------------------------------------------------------------------------

 Call Graph Graphs:

 _main (ROOT)
   _InitLCD
     _LCDCmd
   _LCDAddSpecialCharacter
     _LCDCmd
     _LCDDat
   _LCDDat
   _LCDGoto
     _LCDCmd
   _initADC
   _readADCChannel

 _FNC (ROOT)
   ___awmod
   _millis
   _updatePlayerPositionOnLCD
     _printf
       _vfprintf
         _vfpfcnvrt
           _dtoa
             ___aodiv
             ___aomod
             _abs
               ___aomod (ARG)
             _pad
               _fputc
                 _putch
               _fputs
                 _fputc
                   _putch
               _strlen
           _fputc
             _putch
     i2_LCDAddSpecialCharacter
       i2_LCDCmd
       i2_LCDDat
     i2_LCDDat
     i2_LCDGoto
       i2_LCDCmd

 Address spaces:
Name               Size   Autos  Total    Cost      Usage
BIGRAM             F7F      0       0      37        0.0%
EEDATA             400      0       0       0        0.0%
BITBANK14          100      0       0      32        0.0%
BANK14             100      0       0      33        0.0%
BITBANK13          100      0       0      30        0.0%
BANK13             100      0       0      31        0.0%
BITBANK12          100      0       0      28        0.0%
BANK12             100      0       0      29        0.0%
BITBANK11          100      0       0      26        0.0%
BANK11             100      0       0      27        0.0%
BITBANK10          100      0       0      24        0.0%
BANK10             100      0       0      25        0.0%
BITBANK9           100      0       0      22        0.0%
BANK9              100      0       0      23        0.0%
BITBANK8           100      0       0      20        0.0%
BANK8              100      0       0      21        0.0%
BITBANK7           100      0       0      18        0.0%
BANK7              100      0       0      19        0.0%
BITBANK6           100      0       0      16        0.0%
BANK6              100      0       0      17        0.0%
BITBANK5           100      0       0      14        0.0%
BANK5              100      0       0      15        0.0%
BITBANK4           100      0       0      12        0.0%
BANK4              100      0       0      13        0.0%
BITBANK3           100      0       0      10        0.0%
BANK3              100      0       0      11        0.0%
BITBANK2           100      0       0       8        0.0%
BANK2              100      0       0       9        0.0%
BITBANK1           100      0       0       6        0.0%
BANK1              100     10      98       7       59.4%
BITBANK15           80      0       0      35        0.0%
BANK15              80      0       0      36        0.0%
BITBANK0            80      0       0       4        0.0%
BANK0               80     15      6E       5       85.9%
BITCOMRAM           7E      0       0       0        0.0%
COMRAM              7E     79      7E       1      100.0%
BITSFR               0      0       0     200        0.0%
SFR                  0      0       0     200        0.0%
STACK                0      0       0       2        0.0%
NULL                 0      0       0       0        0.0%
ABS                  0      0     184      34        0.0%
DATA                 0      0     184       3        0.0%
CODE                 0      0       0       0        0.0%


Microchip Technology PIC18 Macro Assembler V2.30 build 20200825195618 
Symbol Table                                                                                   Sat May 27 08:19:30 2023

                                     l53 1E3A                                       l55 1E48  
                                     l56 1E64                                       l66 231A  
                                     l59 242E                                       l69 22AC  
                                     l94 2234                                       l78 2094  
                                     l89 2382               LCDAddSpecialCharacter@data 0188  
i2LCDAddSpecialCharacter@character_index 0005    LCDAddSpecialCharacter@character_index 018A  
                                    _FNC 0000                                      _abs 2236  
                                    _pad 1C50                             ___awmod@sign 0006  
                                    wreg 000FE8                        FNC@interrupt_time 0076  
                        __end_of_LCDGoto 2096                                     ?_FNC 0001  
                                   ?_abs 0013                                     l2421 22EA  
                                   l2431 2308                                     l2423 22EE  
                                   l2503 220E                                     l2425 22F2  
                                   l2441 2296                                     l2433 227A  
                                   l2505 2220                                     l2427 22F4  
                                   l2443 2298                                     l2435 227E  
                                   l2507 2224                                     l2451 1E4A  
                                   l2531 1B50                                     l2429 2306  
                                   l2445 22AA                                     l2437 2282  
                                   l2461 203C                                     l2541 1B98  
                                   l2533 1B58                                     l2439 2284  
                                   l2463 204E                                     l2471 208C  
                                   l2455 240C                                     l2447 1DC6  
                                   l2551 1BCC                                     l2543 1BA8  
                                   l2535 1B68                                     l2481 235C  
                                   l2473 2090                                     l2465 205E  
                                   l2457 201A                                     l2449 1E38  
                                   l2561 1BFC                                     l2553 1BD8  
                                   l2545 1BB4                                     l2537 1B78  
                                   l2529 1B4C                                     l2491 2376  
                                   l2483 235E                                     l2475 2352  
                                   l2467 2070                                     l2459 202C  
                                   l2571 1C12                                     l2563 1C02  
                                   l2555 1BDE                                     l2547 1BBA  
                                   l2539 1B88                                     l2493 237C  
                                   l2485 2364                                     l2477 2356  
                                   l2469 2080                                     l2581 1C1C  
                                   l2573 1C14                                     l2565 1C0E  
                                   l2557 1BEA                                     l2549 1BC6  
                                   l2487 236A                                     l2479 235A  
                                   l2495 21FA                                     l2591 1C26  
                                   l2583 1C1E                                     l2575 1C16  
                                   l2567 1C0E                                     l2559 1BF0  
                                   l2489 2370                                     l2497 2208  
                                   l2593 1C2A                                     l2585 1C20  
                                   l2577 1C18                                     l2569 1C10  
                                   l2595 1C3C                                     l2587 1C22  
                                   l2579 1C1A                                     l2597 1C42  
                                   l2589 1C24                                     ?_pad 0011  
                                   STR_1 1001                                     _LATA 000F89  
                                   u1730 1E48                                     u1731 1E44  
                                   u1811 1C08                                     u1740 202C  
                                   u1820 1C3C                                     u1741 2028  
                                   u1821 1C38                                     u1750 204E  
                                   u1751 204A                                     u1760 2070  
                                   u1761 206C                                     u1770 2234  
                                   u1771 2230                                     u1837 228C  
                                   u1847 22A0                                     u1857 22FC  
                                   u1867 2310                                     i2l66 23E4  
                                   i2l69 23B4                                     i2l94 22E4  
                                   i2l78 2108                                     _TMR0 000FD6  
                                   abs@a 0013                                     _dash 009C  
                                   _dbuf 0146                                     _main 1B4C  
                                   _dtoa 13CC                                     _prec 00E3  
                                   _nout 00DF                                     pad@i 0018  
                                   pad@p 0015                                     fsr0h 000FEA  
                                   fsr1h 000FE2                                     fsr2h 000FDA  
                                   fsr0l 000FE9                                     indf2 000FDF  
                                   fsr1l 000FE1                                     pad@w 001A  
                                   fsr2l 000FD9                                     btemp 007F  
                                   prodh 000FF4                                     prodl 000FF3  
                                   start 0006                             ___param_bank 000000  
                        __end_of_InitLCD 2384                                    ??_FNC 00C6  
                                  ??_abs 0015                                    ??_pad 0017  
                     __size_ofi2_LCDGoto 0074                          __end_of___aodiv 19E8  
                                  ?_main 0001                                    ?_dtoa 001C  
                        __end_of___aomod 1B4C                          __end_of___awmod 1DC2  
                                  _T0CON 000FD5                         __end_ofi2_LCDDat 23B6  
                       __end_ofi2_LCDCmd 23E6                                    i2l332 1B4A  
                                  i2l180 1238                                    i2l181 11FE  
                                  i2l319 19E6                                    i2l191 1390  
                                  i2l169 1EFE                                    i2l177 1182  
                                  i2l179 11C4                                    i2l449 1DC0  
                                  i2l910 1C94                                    i2l913 1CD6  
                                  i2l921 146C                                    i2l915 1D10  
                                  i2l923 1474                                    i2l941 16AA  
                                  i2l962 2274                                    i2l954 2162  
                                  i2l955 216A                                    i2l883 240A  
                                  i2l948 185E                                    i2l974 1F94  
                                  i2l982 21F4                                    i2l959 226C  
                                  i2l991 2350                                    i2l985 2452  
                           vfpfcnvrt@fmt 0042                                    _PORTA 000F80  
                                  _PORTD 000F83                                    _TRISA 000F92  
                                  _TRISB 000F93                                    _TRISD 000F95  
                        __end_of_initADC 2430                                    _flags 007A  
                                  _lcd_x 007E                                    _lcd_y 009D  
                                  _empty 00E6                                    _fputc 1F00  
                                  _fputs 21B2                                    pad@fp 0011  
                                  _width 00E1                                    _putch 2452  
                                  dtoa@d 001E                                    dtoa@i 003E  
                                  dtoa@n 0036                                    dtoa@p 0030  
                                  dtoa@s 0034                                    dtoa@w 0032  
                                  pclath 000FFA                                    tablat 000FF5  
                                  ttemp5 0080                                    ttemp6 0083  
                                  ttemp7 0087                                    status 000FD8  
                                  wtemp8 0080            updatePlayerPositionOnLCD@oldX 0066  
          updatePlayerPositionOnLCD@oldY 0068            updatePlayerPositionOnLCD@newX 006A  
          updatePlayerPositionOnLCD@newY 006C                          __initialization 1F96  
                           __end_of_main 1C50                             __end_of_dtoa 16AC  
                         _readADCChannel 1DC2               ??i2_LCDAddSpecialCharacter 0005  
                                 ??_main 00DB                                   ??_dtoa 0026  
                          __activetblptr 000002                                ??_LCDGoto 00DB  
                                 ?_fputc 0001                                   ?_fputs 000A  
                                 _ADRESH 000FC4                                   _ADRESL 000FC3  
                                 ?_putch 0001                   FNC@last_interrupt_time 00DB  
                                 _LCDDat 2276                                   _LCDCmd 22E6  
                      __end_ofi2_LCDGoto 210A                                   i2l2003 23E6  
                                 i2l2011 20A8                                   i2l2005 23EE  
                                 i2l2021 20F6                                   i2l2013 20B6  
                                 i2l2015 20C8                                   i2l2023 2100  
                                 i2l2111 1EB0                                   i2l2103 1E66  
                                 i2l2025 2104                                   i2l2017 20D6  
                                 i2l2009 2098                                   i2l2121 1EF8  
                                 i2l2113 1ECC                                   i2l2105 1E92  
                                 i2l2131 1D30                                   i2l2123 1D12  
                                 i2l2035 22C0                                   i2l2027 22B0  
                                 i2l2019 20E8                                   i2l2115 1ED8  
                                 i2l2107 1EA0                                   i2l2141 1D68  
                                 i2l2133 1D3E                                   i2l2125 1D16  
                                 i2l2037 22D2                                   i2l2029 22BC  
                                 i2l2117 1EE0                                   i2l2109 1EAA  
                                 i2l2143 1D76                                   i2l2151 1DA0  
                                 i2l2135 1D46                                   i2l2127 1D24  
                                 i2l2039 22D4                                   i2l2119 1EEE  
                                 i2l2311 137E                                   i2l2303 1314  
                                 i2l2153 1DB0                                   i2l2145 1D8C  
                                 i2l2137 1D58                                   i2l2129 1D2C  
                                 i2l2313 1380                                   i2l2305 134A  
                                 i2l2155 1DB8                                   i2l2147 1D94  
                                 i2l2139 1D60                                   i2l2307 136A  
                                 i2l2149 1D9A                                   i2l1701 1F00  
                                 i2l2309 1378                                   i2l2261 10C8  
                                 i2l1711 1F82                                   i2l1703 1F12  
                                 i2l2271 11D2                                   i2l2263 1120  
                                 i2l2255 1070                                   i2l1801 1AE2  
                                 i2l1705 1F24                                   i2l1721 21D4  
                                 i2l2281 12BE                                   i2l2273 120C  
                                 i2l2265 1140                                   i2l2257 1086  
                                 i2l1803 1AF4                                   i2l1707 1F2E  
                                 i2l1715 21B2                                   i2l1723 231C  
                                 i2l2291 12E8                                   i2l2283 12C0  
                                 i2l2275 1238                                   i2l2267 114E  
                                 i2l2259 10BA                                   i2l1741 1896  
                                 i2l1733 1860                                   i2l1805 1AFA  
                                 i2l1709 1F4C                                   i2l1717 21BE  
                                 i2l1725 2328                                   i2l1821 1C8C  
                                 i2l1813 1C50                                   i2l1901 16AC  
                                 i2l2293 12EC                                   i2l2285 12CC  
                                 i2l2277 12AE                                   i2l2269 1190  
                                 i2l1751 18F2                                   i2l1743 18A4  
                                 i2l1735 1864                                   i2l1807 1B0A  
                                 i2l1719 21D0                                   i2l1727 232C  
                                 i2l1831 1CF8                                   i2l1823 1CA0  
                                 i2l1815 1C5E                                   i2l1911 1718  
                                 i2l1903 16D0                                   i2l2295 12F8  
                                 i2l2287 12D0                                   i2l2279 12B0  
                                 i2l1761 195C                                   i2l1753 18FA  
                                 i2l1745 18C4                                   i2l1737 1872  
                                 i2l1809 1B2A                                   i2l1729 2344  
                                 i2l1825 1CB4                                   i2l1817 1C72  
                                 i2l1841 13EC                                   i2l1921 17E0  
                                 i2l1913 173C                                   i2l1905 16DE  
                                 i2l2297 12FC                                   i2l2289 12E0  
                                 i2l1771 19A6                                   i2l1763 197C  
                                 i2l1755 190E                                   i2l1747 18C8  
                                 i2l1739 1892                                   i2l1835 2236  
                                 i2l1827 1CB8                                   i2l1819 1C80  
                                 i2l1851 1460                                   i2l1843 1414  
                                 i2l1931 181C                                   i2l1923 17EE  
                                 i2l1915 1784                                   i2l1907 16F0  
                                 i2l2299 130C                                   i2l1773 19C6  
                                 i2l1765 197E                                   i2l1757 191C  
                                 i2l1749 18D4                                   i2l1781 19FA  
                                 i2l1837 2250                                   i2l1829 1CE4  
                                 i2l1861 14AA                                   i2l1853 147C  
                                 i2l1845 1434                                   i2l1925 1802  
                                 i2l1909 16F4                                   i2l2629 132C  
                                 i2l1767 1990                                   i2l1759 192E  
                                 i2l1791 1A6A                                   i2l1783 1A1A  
                                 i2l1871 1548                                   i2l1863 14B4  
                                 i2l1855 148E                                   i2l1847 1444  
                                 i2l1839 13CC                                   i2l1919 17BC  
                                 i2l1935 1828                                   i2l1943 210A  
                                 i2l1951 23B8                                   i2l1769 1996  
                                 i2l1793 1A72                                   i2l1785 1A1E  
                                 i2l1777 19E8                                   i2l1881 1618  
                                 i2l1865 14BA                                   i2l1873 15AC  
                                 i2l1857 149C                                   i2l1849 1446  
                                 i2l1937 184C                                   i2l1929 180E  
                                 i2l1945 2112                                   i2l1961 23D4  
                                 i2l1953 23BC                                   i2l1795 1A86  
                                 i2l1787 1A2C                                   i2l1779 19EC  
                                 i2l1891 165E                                   i2l1875 15C6  
                                 i2l1883 1626                                   i2l1867 153C  
                                 i2l1859 14A2                                   i2l1947 2120  
                                 i2l1955 23C0                                   i2l1971 23A0  
                                 i2l1963 2386                                   i2l1797 1A94  
                                 i2l1789 1A4C                                   i2l1893 166A  
                                 i2l1885 1638                                   i2l1877 15E4  
                                 i2l1869 1542                                   i2l1949 2146  
                                 i2l1957 23C2                                   i2l1973 23A2  
                                 i2l1965 238A                                   i2l1799 1AC2  
                                 i2l1895 1672                                   i2l1887 1646  
                                 i2l1879 15FE                                   i2l1959 23D2  
                                 i2l1975 23B2                                   i2l1967 238E  
                                 i2l1889 164C                                   i2l1897 1682  
                                 i2l1969 2390                                   _TMR0IF 007F92  
                              ??_InitLCD 00DA       __size_of_updatePlayerPositionOnLCD 009A  
                           vfprintf@cfmt 0056                   __end_of_readADCChannel 1E66  
                              ??___aodiv 0011                                ??___aomod 0011  
                              ??___awmod 0005                                   _digits 0166  
                                 _millis 0000                                   clear_0 1FEE  
                                 clear_1 1FFA                          ___awmod@divisor 0003  
                        ___awmod@counter 0005                                   _printf 23E6  
                                 pad@buf 0013                                   dtoa@fp 001C  
                                 _strlen 231C                                ??_initADC 00D8  
                                 fputc@c 0001                                   fputs@c 000E  
                                 fputs@i 000F                             __pdataCOMRAM 007E  
                                 fputs@s 000A                            _frisbee_steps 0100  
                           __mediumconst 0000                                   tblptrh 000FF7  
                                 tblptrl 000FF6                                   tblptru 000FF8  
                                 putch@c 0001                         __end_of_vfprintf 216C  
                              LCDDat@dat 00D9                                LCDCmd@cmd 00D9  
                             __accesstop 0080                  __end_of__initialization 2008  
                          ___rparam_used 000001                                ?i2_LCDDat 0001  
                              ?i2_LCDCmd 0001        __end_of_updatePlayerPositionOnLCD 1F00  
                         __pcstackCOMRAM 0001                          ?_readADCChannel 00D8  
                           __pidataBANK0 216C                             __pidataBANK1 2430  
                          __end_of_fputc 1F96                 ??_LCDAddSpecialCharacter 00DA  
                          __end_of_fputs 21F6                            __end_of_putch 2454  
                                ??_fputc 0005                                  ??_fputs 000E  
                                ??_putch 0001                                  FNC@oldX 0072  
                                FNC@oldY 0074                                  ?_LCDDat 0001  
                                ?_LCDCmd 0001                               __pbssBANK0 00DB  
                             __pbssBANK1 0100                             i2LCDGoto@p_1 0003  
                           i2LCDGoto@p_2 0004                               ??i2_LCDDat 0001  
                             ??i2_LCDCmd 0001                                  ?_millis 0001  
                                ?_printf 0058                                  ?_strlen 0001  
                                _CONVERT 00E5                                  _LCDGoto 2016  
                     __size_of_vfpfcnvrt 01B4                                  i2u90_40 1F82  
                                i2u90_41 1F7E                                  i2u91_40 21F4  
                                i2u91_41 21F0                                  i2u92_40 2344  
                                i2u92_41 2340                                  i2u93_40 1872  
                                i2u93_41 186E                                  i2u94_40 18A4  
                                i2u94_41 18A0                                  i2u87_40 1F12  
                                i2u95_41 18CE                                  i2u87_41 1F0E  
                                i2u96_40 18F2                                  i2u88_40 1F24  
                                i2u96_41 18EE                                  i2u88_41 1F20  
                                i2u97_40 191C                                  i2u89_40 1F4C  
                                i2u97_41 1918                                  i2u89_41 1F48  
                                i2u98_40 195C                                  i2u98_41 1958  
                                i2u99_40 19A6                                  i2u99_41 19A2  
                        __size_of_LCDDat 0038                          __size_of_LCDCmd 0036  
                                _InitLCD 2352                                  __Hparam 0000  
                                __Lparam 0000                                  ___aodiv 1860  
                                ___aomod 19E8                                  ___awmod 1D12  
                              ?_vfprintf 0050                             __psmallconst 1000  
        __size_of_LCDAddSpecialCharacter 0040                                  __pcinit 1F96  
                                __ramtop 1000                                  __ptext0 1B4C  
                                __ptext1 1DC2                                  __ptext2 240C  
                                __ptext3 2016                                  __ptext4 21F6  
                                __ptext5 2276                                  __ptext6 2352  
                                __ptext7 22E6                                  __ptext9 1E66  
                        __size_of_printf 0026                                  _initADC 240C  
                           __size_of_FNC 13CC                          __size_of_strlen 0036  
                                _frisbee 009E                             __size_of_abs 0040  
                           __size_of_pad 00C2                         ___awmod@dividend 0001  
                         __pintcode_body 1036                     end_of_initialization 2008  
                         _frisbee_target 0170                                  fputc@fp 0003  
                          __Lmediumconst 0000                                  int_func 1036  
                                fputs@fp 000C                                i2_LCDGoto 2096  
                      __end_of_vfpfcnvrt 1860                                  postdec1 000FE5  
                                postdec2 000FDD                                  postinc0 000FEE  
                                postinc1 000FE6                                  postinc2 000FDE  
                             ??_vfprintf 0056                                  strlen@a 0003  
                                strlen@s 0001                                _PORTBbits 000F81  
                              _PORTEbits 000F84                                _TRISAbits 000F92  
                              _TRISBbits 000F93                                _TRISEbits 000F96  
      __size_ofi2_LCDAddSpecialCharacter 0038                ?i2_LCDAddSpecialCharacter 0003  
                 _LCDAddSpecialCharacter 21F6                           __end_of_LCDDat 22AE  
                         __end_of_LCDCmd 231C                         ??_readADCChannel 0188  
                             LCDGoto@p_1 00DA                               LCDGoto@p_2 0188  
                             ?i2_LCDGoto 0003                               main@values 018C  
     _selected_teamA_player_with_frisbee 0180                        __size_ofi2_LCDDat 0032  
                      __size_ofi2_LCDCmd 0030                              vfpfcnvrt@ap 0044  
                            vfpfcnvrt@fp 0040                              vfpfcnvrt@ll 0048  
                          __pidataCOMRAM 2454                           __end_of_printf 240C  
                         __end_of_strlen 2352                      start_initialization 1F96  
                            __end_of_FNC 13CC                              __end_of_abs 2276  
                            __end_of_pad 1D12                                 ??_LCDDat 00D8  
                               ??_LCDCmd 00D8                              vfprintf@fmt 0052  
                LCDAddSpecialCharacter@i 018B               ?_updatePlayerPositionOnLCD 0066  
                            __pdataBANK0 0080                              __pdataBANK1 0166  
                               ??_millis 0001                                 ??_printf 0062  
                               ??_strlen 0003                                 ?_LCDGoto 00DA  
                            __pbssCOMRAM 007A                            __pcstackBANK0 00C6  
                          __pcstackBANK1 0188                         ___aodiv@dividend 0001  
                            i2LCDDat@dat 0002                              i2LCDCmd@cmd 0002  
                               ?_InitLCD 0001                              ??i2_LCDGoto 0004  
                              _gameState 0080                                _dtoa$1233 002E  
                              __pintcode 0000                                 ?___aodiv 0001  
                               ?___aomod 0001                         ___aodiv@quotient 0013  
                               ?___awmod 0001                        __size_of_vfprintf 0062  
                               ?_initADC 0001                              __smallconst 1000  
                           _teamA_player 00BE                             _teamB_player 00B6  
                         __size_of_fputc 0096                           __size_of_fputs 0044  
                         __size_of_putch 0002                    readADCChannel@channel 00DA  
                  _selected_teamA_player 00AE                    _selected_teamB_player 00A6  
                               i2_LCDDat 2384                                 i2_LCDCmd 23B6  
                               i2u100_40 19FA                                 i2u100_41 19F6  
                               i2u101_40 1A2C                                 i2u101_41 1A28  
                               i2u102_40 1A6A                                 i2u110_40 2250  
                               i2u102_41 1A66                                 i2u110_41 224C  
                               i2u103_40 1A94                                 i2u111_40 13FC  
                               i2u103_41 1A90                                 i2u111_41 13F6  
                               i2u104_40 1AC2                                 i2u120_40 15FE  
                               i2u112_40 13FE                                 i2u104_41 1ABE  
                               i2u120_41 15FA                                 i2u105_40 1B0A  
                               i2u121_40 1618                                 i2u113_40 1414  
                               i2u105_41 1B06                                 i2u121_41 1614  
                               i2u113_41 1410                                 i2u106_40 1C5E  
                               i2u122_40 1626                                 i2u114_40 1444  
                               i2u130_40 2162                                 i2u106_41 1C5A  
                               i2u122_41 1622                                 i2u114_41 1440  
                               i2u130_41 215E                                 i2u107_40 1C80  
                               i2u123_40 1638                                 i2u115_40 1460  
                               i2u131_40 20A8                                 i2u107_41 1C7C  
                               i2u123_41 1634                                 i2u115_41 145C  
                               i2u131_41 20A4                                 i2u108_40 1CD6  
                               i2u124_40 1646                                 i2u116_40 148E  
                               i2u132_40 20C8                                 i2u140_40 1ECC  
                               i2u108_41 1CD2                                 i2u124_41 1642  
                               i2u116_41 148A                                 i2u132_41 20C4  
                               i2u140_41 1EC8                                 i2u141_40 1D24  
                               i2u109_40 1CE4                                 i2u125_40 165E  
                               i2u117_40 149C                                 i2u133_40 20E8  
                               i2u141_41 1D20                                 i2u109_41 1CE0  
                               i2u125_41 165A                                 i2u117_41 1498  
                               i2u133_41 20E4                                 i2u142_40 1D3E  
                               i2u118_40 15C6                                 i2u126_40 16D0  
                               i2u134_40 22E4                                 i2u142_41 1D3A  
                               i2u118_41 15C2                                 i2u126_41 16CC  
                               i2u134_41 22E0                                 i2u143_40 1D58  
                               i2u119_40 15E4                                 i2u127_40 1718  
                               i2u143_41 1D54                                 i2u119_41 15E0  
                               i2u127_41 1714                                 i2u144_40 1D76  
                               i2u128_40 173C                                 i2u144_41 1D72  
                               i2u128_41 1738                                 i2u145_40 1D8C  
                               i2u129_40 17E0                                 i2u145_41 1D88  
                               i2u129_41 17DC                                 i2u146_40 1DB0  
                               i2u170_40 1378                                 i2u146_41 1DAC  
                               i2u170_41 1374                                 i2u163_40 10BA  
                               i2u163_41 10B6                                 i2u164_40 10C8  
                               i2u164_41 10C4                                 i2u165_40 114E  
                               i2u165_41 114A                                 i2u166_40 1190  
                               i2u166_41 118C                                 i2u190_47 23DA  
                               i2u167_40 11D2                                 i2u167_41 11CE  
                               i2u168_40 120C                                 i2u168_41 1208  
                               i2u169_40 12BE                                 i2u169_41 12BA  
                               _PIR1bits 000F9E                                 i2u187_47 2396  
                               i2u188_47 23A8                                 i2u189_47 23C8  
                              main@F3020 013C                                _vfpfcnvrt 16AC  
       __end_ofi2_LCDAddSpecialCharacter 22E6                               _ADCON0bits 000FC2  
                             _ADCON1bits 000FC1                               _ADCON2bits 000FC0  
                       __size_of_LCDGoto 0080                  ?_LCDAddSpecialCharacter 0188  
                              copy_data0 1FAA                                copy_data1 1FCA  
                       __size_of_InitLCD 0032                                 __Hrparam 0000  
                             vfprintf@ap 0054                                 __Lrparam 0000  
                             vfprintf@fp 0050                         __size_of___aodiv 0188  
                       __size_of___aomod 0164                         __size_of___awmod 00B0  
                             ?_vfpfcnvrt 0040                          ___aodiv@divisor 0009  
                        ___aodiv@counter 0011           __end_of_LCDAddSpecialCharacter 2236  
                       __size_of_initADC 0024            _updatePlayerPositionOnLCD$674 0070  
                               __ptext10 2096                                 __ptext11 22AE  
                               __ptext20 21B2                                 __ptext12 2384  
                               __ptext21 1F00                                 __ptext13 23B6  
                               __ptext22 2452                                 __ptext14 23E6  
                               __ptext23 2236                                 __ptext15 210A  
                               __ptext24 19E8                                 __ptext16 16AC  
                               __ptext25 1860                                 __ptext17 13CC  
                               __ptext26 1D12                                 __ptext18 1C50  
                               __ptext19 231C                            __size_of_main 0104  
                          __size_of_dtoa 02E0       _selected_teamB_player_with_frisbee 0178  
                               int$flags 007F              ??_updatePlayerPositionOnLCD 0070  
                               _vfprintf 210A                                printf@fmt 0058  
                       ___aomod@dividend 0001                               _INTCONbits 000FF2  
               i2_LCDAddSpecialCharacter 22AE                                 intlevel2 0000  
updatePlayerPositionOnLCD@selectedPlayer 006E                                 printf@ap 0064  
           i2LCDAddSpecialCharacter@data 0003                          ___aomod@divisor 0009  
                __size_of_readADCChannel 00A4                              ??_vfpfcnvrt 0046  
                        ___aomod@counter 0011                i2LCDAddSpecialCharacter@i 0006  
              _updatePlayerPositionOnLCD 1E66                             ___aodiv@sign 0012  
                          _display_state 007C                             ___aomod@sign 0012  
