

Microchip MPLAB XC8 Assembler V2.30 build 20200825195618 
                                                                                               Thu Jun  1 01:46:13 2023

Microchip MPLAB XC8 C Compiler v2.30 (Free license) build 20200825195618 Og1 
     1                           	processor	18F4620
     2                           	fnconf	rparam,??,?,0
     3                           	pagewidth 120
     4                           	opt	flic
     5                           	psect	idataCOMRAM,global,class=CODE,delta=1,noexec
     6                           	psect	idataBANK0,global,class=CODE,delta=1,noexec
     7                           	psect	smallconst,global,reloc=2,class=SMALLCONST,delta=1,noexec
     8                           	psect	cinit,global,reloc=2,class=CODE,delta=1
     9                           	psect	bssCOMRAM,global,class=COMRAM,space=1,delta=1,lowdata,noexec
    10                           	psect	dataCOMRAM,global,class=COMRAM,space=1,delta=1,lowdata,noexec
    11                           	psect	bssBANK0,global,class=BANK0,space=1,delta=1,lowdata,noexec
    12                           	psect	dataBANK0,global,class=BANK0,space=1,delta=1,lowdata,noexec
    13                           	psect	bssBANK1,global,class=BANK1,space=1,delta=1,lowdata,noexec
    14                           	psect	cstackBANK0,global,class=BANK0,space=1,delta=1,lowdata,noexec
    15                           	psect	cstackCOMRAM,global,class=COMRAM,space=1,delta=1,lowdata,noexec
    16                           	psect	text0,global,reloc=2,class=CODE,delta=1
    17                           	psect	text1,global,reloc=2,class=CODE,delta=1
    18                           	psect	text2,global,reloc=2,class=CODE,delta=1
    19                           	psect	text3,global,reloc=2,class=CODE,delta=1
    20                           	psect	text4,global,reloc=2,class=CODE,delta=1
    21                           	psect	text5,global,reloc=2,class=CODE,delta=1
    22                           	psect	text6,global,reloc=2,class=CODE,delta=1
    23                           	psect	text7,global,reloc=2,class=CODE,delta=1
    24                           	psect	text8,global,reloc=2,class=CODE,delta=1
    25                           	psect	text9,global,reloc=2,class=CODE,delta=1
    26                           	psect	intcode,global,reloc=2,class=CODE,delta=1
    27                           	psect	intcode_body,global,reloc=2,class=CODE,delta=1
    28                           	psect	text11,global,reloc=2,class=CODE,delta=1
    29                           	psect	text12,global,reloc=2,class=CODE,delta=1
    30                           	psect	text13,global,reloc=2,class=CODE,delta=1
    31                           	psect	text14,global,reloc=2,class=CODE,delta=1,group=1
    32                           	psect	text15,global,reloc=2,class=CODE,delta=1
    33                           	psect	text16,global,reloc=2,class=CODE,delta=1
    34                           	psect	text17,global,reloc=2,class=CODE,delta=1
    35                           	psect	text18,global,reloc=2,class=CODE,delta=1
    36                           	psect	text19,global,reloc=2,class=CODE,delta=1
    37                           	psect	text20,global,reloc=2,class=CODE,delta=1
    38                           	psect	text21,global,reloc=2,class=CODE,delta=1
    39                           	psect	text22,global,reloc=2,class=CODE,delta=1
    40                           	psect	text23,global,reloc=2,class=CODE,delta=1
    41                           	psect	text24,global,reloc=2,class=CODE,delta=1
    42                           	psect	text25,global,reloc=2,class=CODE,delta=1
    43                           	psect	text26,global,reloc=2,class=CODE,delta=1
    44                           	psect	text27,global,reloc=2,class=CODE,delta=1
    45                           	psect	text28,global,reloc=2,class=CODE,delta=1
    46                           	psect	text29,global,reloc=2,class=CODE,delta=1
    47                           	psect	text30,global,reloc=2,class=CODE,delta=1
    48                           	psect	intsave_regs,global,class=BIGRAM,space=1,delta=1,noexec
    49                           	psect	rparam,global,class=COMRAM,space=1,delta=1,noexec
    50                           	psect	temp,global,ovrld,common,class=COMRAM,space=1,delta=1
    51                           	psect	idloc,global,abs,ovrld,class=IDLOC,space=5,delta=1,noexec
    52                           	psect	config,global,abs,ovrld,class=CONFIG,space=4,delta=1,noexec
    53  0000                     
    54                           ; Version 2.20
    55                           ; Generated 12/02/2020 GMT
    56                           ; 
    57                           ; Copyright © 2020, Microchip Technology Inc. and its subsidiaries ("Microchip")
    58                           ; All rights reserved.
    59                           ; 
    60                           ; This software is developed by Microchip Technology Inc. and its subsidiaries ("Microch
      +                          ip").
    61                           ; 
    62                           ; Redistribution and use in source and binary forms, with or without modification, are
    63                           ; permitted provided that the following conditions are met:
    64                           ; 
    65                           ;     1. Redistributions of source code must retain the above copyright notice, this lis
      +                          t of
    66                           ;        conditions and the following disclaimer.
    67                           ; 
    68                           ;     2. Redistributions in binary form must reproduce the above copyright notice, this 
      +                          list
    69                           ;        of conditions and the following disclaimer in the documentation and/or other
    70                           ;        materials provided with the distribution.
    71                           ; 
    72                           ;     3. Microchip's name may not be used to endorse or promote products derived from th
      +                          is
    73                           ;        software without specific prior written permission.
    74                           ; 
    75                           ; THIS SOFTWARE IS PROVIDED BY MICROCHIP "AS IS" AND ANY EXPRESS OR IMPLIED WARRANTIES,
    76                           ; INCLUDING, BUT NOT LIMITED TO, THE IMPLIED WARRANTIES OF MERCHANTABILITY AND FITNESS F
      +                          OR
    77                           ; PURPOSE ARE DISCLAIMED.  IN NO EVENT SHALL MICROCHIP BE LIABLE FOR ANY DIRECT, INDIREC
      +                          T,
    78                           ; INCIDENTAL, SPECIAL, EXEMPLARY, OR CONSEQUENTIAL DAMAGES (INCLUDING BUT NOT LIMITED TO
    79                           ; PROCUREMENT OF SUBSTITUTE GOODS OR SERVICES; LOSS OF USE, DATA OR PROFITS; OR BUSINESS
    80                           ; INTERRUPTION) HOWSOEVER CAUSED AND ON ANY THEORY OF LIABILITY, WHETHER IN CONTRACT, ST
      +                          RICT
    81                           ; LIABILITY, OR TORT (INCLUDING NEGLIGENCE OR OTHERWISE) ARISING IN ANY WAY OUT OF THE U
      +                          SE OF
    82                           ; THIS SOFTWARE, EVEN IF ADVISED OF THE POSSIBILITY OF SUCH DAMAGE.
    83                           ; 
    84                           ; 
    85                           ; Code-generator required, PIC18F4620 Definitions
    86                           ; 
    87                           ; SFR Addresses
    88  0000                     
    89                           	psect	idataCOMRAM
    90  002714                     __pidataCOMRAM:
    91                           	callstack 0
    92                           
    93                           ;initializer for _gameState
    94  002714  0008               	dw	8
    95  002716  0002               	dw	2
    96  002718  0003               	dw	3
    97  00271A  0003               	dw	3
    98  00271C  000E               	dw	14
    99  00271E  0002               	dw	2
   100  002720  000E               	dw	14
   101  002722  0003               	dw	3
   102  002724  0009               	dw	9
   103  002726  0002               	dw	2
   104  002728  0000               	dw	0
   105  00272A  0000               	dw	0
   106  00272C  0000               	dw	0
   107  00272E  0001               	dw	1
   108                           
   109                           ;initializer for _digits
   110  002730  3F                 	db	63
   111  002731  06                 	db	6
   112  002732  5B                 	db	91
   113  002733  4F                 	db	79
   114  002734  66                 	db	102
   115  002735  6D                 	db	109
   116  002736  7D                 	db	125
   117  002737  07                 	db	7
   118  002738  7F                 	db	127
   119  002739  6F                 	db	111
   120                           
   121                           ;initializer for _dash
   122  00273A  40                 	db	64
   123                           
   124                           ;initializer for _lcd_y
   125  00273B  01                 	db	1
   126                           
   127                           ;initializer for _lcd_x
   128  00273C  01                 	db	1
   129                           
   130                           	psect	idataBANK0
   131  00262A                     __pidataBANK0:
   132                           	callstack 0
   133                           
   134                           ;initializer for _frisbee_target
   135  00262A  0E                 	db	14
   136  00262B  11                 	db	17
   137  00262C  11                 	db	17
   138  00262D  11                 	db	17
   139  00262E  0E                 	db	14
   140  00262F  00                 	db	0
   141  002630  00                 	db	0
   142  002631  00                 	db	0
   143                           
   144                           ;initializer for _frisbee
   145  002632  0E                 	db	14
   146  002633  1F                 	db	31
   147  002634  1F                 	db	31
   148  002635  1F                 	db	31
   149  002636  0E                 	db	14
   150  002637  00                 	db	0
   151  002638  00                 	db	0
   152  002639  00                 	db	0
   153                           
   154                           ;initializer for _selected_teamB_player_with_frisbee
   155  00263A  1F                 	db	31
   156  00263B  15                 	db	21
   157  00263C  0A                 	db	10
   158  00263D  04                 	db	4
   159  00263E  0E                 	db	14
   160  00263F  1F                 	db	31
   161  002640  0A                 	db	10
   162  002641  1F                 	db	31
   163                           
   164                           ;initializer for _selected_teamA_player_with_frisbee
   165  002642  1F                 	db	31
   166  002643  15                 	db	21
   167  002644  0A                 	db	10
   168  002645  04                 	db	4
   169  002646  04                 	db	4
   170  002647  04                 	db	4
   171  002648  0A                 	db	10
   172  002649  1F                 	db	31
   173                           
   174                           ;initializer for _selected_teamB_player
   175  00264A  11                 	db	17
   176  00264B  15                 	db	21
   177  00264C  0A                 	db	10
   178  00264D  04                 	db	4
   179  00264E  0E                 	db	14
   180  00264F  1F                 	db	31
   181  002650  0A                 	db	10
   182  002651  1F                 	db	31
   183                           
   184                           ;initializer for _selected_teamA_player
   185  002652  11                 	db	17
   186  002653  15                 	db	21
   187  002654  0A                 	db	10
   188  002655  04                 	db	4
   189  002656  04                 	db	4
   190  002657  04                 	db	4
   191  002658  0A                 	db	10
   192  002659  1F                 	db	31
   193                           
   194                           ;initializer for _teamB_player
   195  00265A  11                 	db	17
   196  00265B  15                 	db	21
   197  00265C  0A                 	db	10
   198  00265D  04                 	db	4
   199  00265E  0E                 	db	14
   200  00265F  1F                 	db	31
   201  002660  0A                 	db	10
   202  002661  0A                 	db	10
   203                           
   204                           ;initializer for _teamA_player
   205  002662  11                 	db	17
   206  002663  15                 	db	21
   207  002664  0A                 	db	10
   208  002665  04                 	db	4
   209  002666  04                 	db	4
   210  002667  04                 	db	4
   211  002668  0A                 	db	10
   212  002669  0A                 	db	10
   213  0000                     _TMR0	set	4054
   214  0000                     _TMR1	set	4046
   215  0000                     _T0CONbits	set	4053
   216  0000                     _T2CONbits	set	4042
   217  0000                     _TMR2	set	4044
   218  0000                     _T2CON	set	4042
   219  0000                     _T1CONbits	set	4045
   220  0000                     _T1CON	set	4045
   221  0000                     _T0CON	set	4053
   222  0000                     _INTCON3bits	set	4080
   223  0000                     _INTCONbits	set	4082
   224  0000                     _LATB	set	3978
   225  0000                     _TRISBbits	set	3987
   226  0000                     _TRISB	set	3987
   227  0000                     _PORTB	set	3969
   228  0000                     _LATD	set	3980
   229  0000                     _TRISA	set	3986
   230  0000                     _LATA	set	3977
   231  0000                     _TRISD	set	3989
   232  0000                     _TRISEbits	set	3990
   233  0000                     _PORTD	set	3971
   234  0000                     _PORTEbits	set	3972
   235  0000                     _ADCON2bits	set	4032
   236  0000                     _TRISAbits	set	3986
   237  0000                     _ADCON1bits	set	4033
   238  0000                     _ADRESL	set	4035
   239  0000                     _ADRESH	set	4036
   240  0000                     _PIR1bits	set	3998
   241  0000                     _ADCON0bits	set	4034
   242  0000                     _TMR0IF	set	32658
   243                           
   244                           	psect	smallconst
   245  001000                     __psmallconst:
   246                           	callstack 0
   247  001000  00                 	db	0
   248  001001                     STR_1:
   249  001001  20                 	db	32
   250  001002  00                 	db	0
   251  001003  00                 	db	0	; dummy byte at the end
   252  0000                     
   253                           ; #config settings
   254                           
   255                           	psect	cinit
   256  00229E                     __pcinit:
   257                           	callstack 0
   258  00229E                     start_initialization:
   259                           	callstack 0
   260  00229E                     __initialization:
   261                           	callstack 0
   262                           
   263                           ; Initialize objects allocated to BANK0 (64 bytes)
   264                           ; load TBLPTR registers with __pidataBANK0
   265  00229E  0E2A               	movlw	low __pidataBANK0
   266  0022A0  6EF6               	movwf	tblptrl,c
   267  0022A2  0E26               	movlw	high __pidataBANK0
   268  0022A4  6EF7               	movwf	tblptrh,c
   269  0022A6  0E00               	movlw	low (__pidataBANK0 shr (0+16))
   270  0022A8  6EF8               	movwf	tblptru,c
   271  0022AA  EE00  F080         	lfsr	0,__pdataBANK0
   272  0022AE  EE10 F040          	lfsr	1,64
   273  0022B2                     copy_data0:
   274  0022B2  0009               	tblrd		*+
   275  0022B4  CFF5 FFEE          	movff	tablat,postinc0
   276  0022B8  50E5               	movf	postdec1,w,c
   277  0022BA  50E1               	movf	fsr1l,w,c
   278  0022BC  E1FA               	bnz	copy_data0
   279                           
   280                           ; Initialize objects allocated to COMRAM (41 bytes)
   281                           ; load TBLPTR registers with __pidataCOMRAM
   282  0022BE  0E14               	movlw	low __pidataCOMRAM
   283  0022C0  6EF6               	movwf	tblptrl,c
   284  0022C2  0E27               	movlw	high __pidataCOMRAM
   285  0022C4  6EF7               	movwf	tblptrh,c
   286  0022C6  0E00               	movlw	low (__pidataCOMRAM shr (0+16))
   287  0022C8  6EF8               	movwf	tblptru,c
   288  0022CA  EE00  F040         	lfsr	0,__pdataCOMRAM
   289  0022CE  EE10 F029          	lfsr	1,41
   290  0022D2                     copy_data1:
   291  0022D2  0009               	tblrd		*+
   292  0022D4  CFF5 FFEE          	movff	tablat,postinc0
   293  0022D8  50E5               	movf	postdec1,w,c
   294  0022DA  50E1               	movf	fsr1l,w,c
   295  0022DC  E1FA               	bnz	copy_data1
   296                           
   297                           ; Clear objects allocated to BANK1 (60 bytes)
   298  0022DE  EE01  F000         	lfsr	0,__pbssBANK1
   299  0022E2  0E3C               	movlw	60
   300  0022E4                     clear_0:
   301  0022E4  6AEE               	clrf	postinc0,c
   302  0022E6  06E8               	decf	wreg,f,c
   303  0022E8  E1FD               	bnz	clear_0
   304                           
   305                           ; Clear objects allocated to BANK0 (8 bytes)
   306  0022EA  EE00  F0C0         	lfsr	0,__pbssBANK0
   307  0022EE  0E08               	movlw	8
   308  0022F0                     clear_1:
   309  0022F0  6AEE               	clrf	postinc0,c
   310  0022F2  06E8               	decf	wreg,f,c
   311  0022F4  E1FD               	bnz	clear_1
   312                           
   313                           ; Clear objects allocated to COMRAM (16 bytes)
   314  0022F6  EE00  F069         	lfsr	0,__pbssCOMRAM
   315  0022FA  0E10               	movlw	16
   316  0022FC                     clear_2:
   317  0022FC  6AEE               	clrf	postinc0,c
   318  0022FE  06E8               	decf	wreg,f,c
   319  002300  E1FD               	bnz	clear_2
   320  002302                     end_of_initialization:
   321                           	callstack 0
   322  002302                     __end_of__initialization:
   323                           	callstack 0
   324  002302  9079               	bcf	int$flags,0,c	;clear compiler interrupt flag (level 1)
   325  002304  9279               	bcf	int$flags,1,c	;clear compiler interrupt flag (level 2)
   326  002306  0E00               	movlw	low (__Lsmallconst shr (0+16))
   327  002308  6EF8               	movwf	tblptru,c
   328  00230A  0E10               	movlw	high __Lsmallconst
   329  00230C  6EF7               	movwf	tblptrh,c
   330  00230E  0100               	movlb	0
   331  002310  EFB1  F013         	goto	_main	;jump to C main() function
   332                           
   333                           	psect	bssCOMRAM
   334  000069                     __pbssCOMRAM:
   335                           	callstack 0
   336  000069                     _display_state:
   337                           	callstack 0
   338  000069                     	ds	2
   339  00006B                     _blink_flag:
   340                           	callstack 0
   341  00006B                     	ds	2
   342  00006D                     _current_step:
   343                           	callstack 0
   344  00006D                     	ds	2
   345  00006F                     _frisbee_held:
   346                           	callstack 0
   347  00006F                     	ds	2
   348  000071                     _target_y:
   349                           	callstack 0
   350  000071                     	ds	2
   351  000073                     _target_x:
   352                           	callstack 0
   353  000073                     	ds	2
   354  000075                     _debounce_flag:
   355                           	callstack 0
   356  000075                     	ds	1
   357  000076                     _previous_portb:
   358                           	callstack 0
   359  000076                     	ds	1
   360  000077                     _gamepad_button_pressed:
   361                           	callstack 0
   362  000077                     	ds	1
   363  000078                     _CONVERT:
   364                           	callstack 0
   365  000078                     	ds	1
   366                           
   367                           	psect	dataCOMRAM
   368  000040                     __pdataCOMRAM:
   369                           	callstack 0
   370  000040                     _gameState:
   371                           	callstack 0
   372  000040                     	ds	28
   373  00005C                     _digits:
   374                           	callstack 0
   375  00005C                     	ds	10
   376  000066                     _dash:
   377                           	callstack 0
   378  000066                     	ds	1
   379  000067                     _lcd_y:
   380                           	callstack 0
   381  000067                     	ds	1
   382  000068                     _lcd_x:
   383                           	callstack 0
   384  000068                     	ds	1
   385                           
   386                           	psect	bssBANK0
   387  0000C0                     __pbssBANK0:
   388                           	callstack 0
   389  0000C0                     _empty:
   390                           	callstack 0
   391  0000C0                     	ds	8
   392                           
   393                           	psect	dataBANK0
   394  000080                     __pdataBANK0:
   395                           	callstack 0
   396  000080                     _frisbee_target:
   397                           	callstack 0
   398  000080                     	ds	8
   399  000088                     _frisbee:
   400                           	callstack 0
   401  000088                     	ds	8
   402  000090                     _selected_teamB_player_with_frisbee:
   403                           	callstack 0
   404  000090                     	ds	8
   405  000098                     _selected_teamA_player_with_frisbee:
   406                           	callstack 0
   407  000098                     	ds	8
   408  0000A0                     _selected_teamB_player:
   409                           	callstack 0
   410  0000A0                     	ds	8
   411  0000A8                     _selected_teamA_player:
   412                           	callstack 0
   413  0000A8                     	ds	8
   414  0000B0                     _teamB_player:
   415                           	callstack 0
   416  0000B0                     	ds	8
   417  0000B8                     _teamA_player:
   418                           	callstack 0
   419  0000B8                     	ds	8
   420                           
   421                           	psect	bssBANK1
   422  000100                     __pbssBANK1:
   423                           	callstack 0
   424  000100                     _frisbee_steps:
   425                           	callstack 0
   426  000100                     	ds	60
   427                           
   428                           	psect	cstackBANK0
   429  0000C8                     __pcstackBANK0:
   430                           	callstack 0
   431  0000C8                     ??_display_7seg:
   432  0000C8                     LCDCmd@cmd:
   433                           	callstack 0
   434  0000C8                     LCDDat@dat:
   435                           	callstack 0
   436                           
   437                           ; 1 bytes @ 0x0
   438  0000C8                     	ds	1
   439  0000C9                     LCDGoto@p_1:
   440                           	callstack 0
   441  0000C9                     LCDAddSpecialCharacter@data:
   442                           	callstack 0
   443                           
   444                           ; 2 bytes @ 0x1
   445  0000C9                     	ds	1
   446  0000CA                     LCDGoto@p_2:
   447                           	callstack 0
   448                           
   449                           ; 1 bytes @ 0x2
   450  0000CA                     	ds	1
   451  0000CB                     LCDAddSpecialCharacter@character_index:
   452                           	callstack 0
   453                           
   454                           ; 1 bytes @ 0x3
   455  0000CB                     	ds	1
   456  0000CC                     LCDAddSpecialCharacter@i:
   457                           	callstack 0
   458                           
   459                           ; 1 bytes @ 0x4
   460  0000CC                     	ds	1
   461  0000CD                     
   462                           ; 1 bytes @ 0x5
   463                           
   464                           	psect	cstackCOMRAM
   465  000001                     __pcstackCOMRAM:
   466                           	callstack 0
   467  000001                     ?_isThereOtherPlayer:
   468                           	callstack 0
   469  000001                     ?_frisbeeHeld:
   470                           	callstack 0
   471  000001                     ?_hasPlayerLeftFrisbeeLocation:
   472                           	callstack 0
   473  000001                     ?_isThereAnyPlayer:
   474                           	callstack 0
   475  000001                     ?_ifSelectedPlayerHold:
   476                           	callstack 0
   477  000001                     ?___lwmod:
   478                           	callstack 0
   479  000001                     i2LCDCmd@cmd:
   480                           	callstack 0
   481  000001                     i2LCDDat@dat:
   482                           	callstack 0
   483  000001                     isThereOtherPlayer@oldX:
   484                           	callstack 0
   485  000001                     isThereAnyPlayer@x:
   486                           	callstack 0
   487  000001                     ___lwmod@dividend:
   488                           	callstack 0
   489                           
   490                           ; 2 bytes @ 0x0
   491  000001                     	ds	1
   492  000002                     i2LCDGoto@p_1:
   493                           	callstack 0
   494  000002                     LCDStr@str:
   495                           	callstack 0
   496                           
   497                           ; 2 bytes @ 0x1
   498  000002                     	ds	1
   499  000003                     ??_frisbeeHeld:
   500  000003                     ??_hasPlayerLeftFrisbeeLocation:
   501  000003                     ??_ifSelectedPlayerHold:
   502  000003                     i2LCDGoto@p_2:
   503                           	callstack 0
   504  000003                     isThereOtherPlayer@oldY:
   505                           	callstack 0
   506  000003                     isThereAnyPlayer@y:
   507                           	callstack 0
   508  000003                     ___lwmod@divisor:
   509                           	callstack 0
   510                           
   511                           ; 2 bytes @ 0x2
   512  000003                     	ds	1
   513  000004                     ??_LCDStr:
   514                           
   515                           ; 1 bytes @ 0x3
   516  000004                     	ds	1
   517  000005                     ??_isThereOtherPlayer:
   518  000005                     ??_isThereAnyPlayer:
   519  000005                     ___lwmod@counter:
   520                           	callstack 0
   521                           
   522                           ; 1 bytes @ 0x4
   523  000005                     	ds	1
   524  000006                     ?_random_generator:
   525                           	callstack 0
   526  000006                     LCDStr@i:
   527                           	callstack 0
   528  000006                     random_generator@modulo:
   529                           	callstack 0
   530                           
   531                           ; 2 bytes @ 0x5
   532  000006                     	ds	1
   533  000007                     ??_switchSelectedPlayer:
   534  000007                     _ifSelectedPlayerHold$874:
   535                           	callstack 0
   536  000007                     moveSelectedPlayerPositionOnLCD@oldX:
   537                           	callstack 0
   538  000007                     frisbeeHeld@selected_player:
   539                           	callstack 0
   540  000007                     hasPlayerLeftFrisbeeLocation@selected_player:
   541                           	callstack 0
   542  000007                     frisbeeHeldOnLCD@selected_player:
   543                           	callstack 0
   544                           
   545                           ; 2 bytes @ 0x6
   546  000007                     	ds	1
   547  000008                     ??_random_generator:
   548  000008                     ifSelectedPlayerHold@selected_player:
   549                           	callstack 0
   550                           
   551                           ; 2 bytes @ 0x7
   552  000008                     	ds	1
   553  000009                     moveSelectedPlayerPositionOnLCD@oldY:
   554                           	callstack 0
   555  000009                     isThereOtherPlayer@i:
   556                           	callstack 0
   557  000009                     _frisbeeHeldOnLCD$779:
   558                           	callstack 0
   559  000009                     frisbeeReleasedOnLCD@frisbeeX:
   560                           	callstack 0
   561  000009                     _switchSelectedPlayer$852:
   562                           	callstack 0
   563  000009                     isThereAnyPlayer@i:
   564                           	callstack 0
   565                           
   566                           ; 2 bytes @ 0x8
   567  000009                     	ds	2
   568  00000B                     ??_moveFrisbee:
   569  00000B                     moveSelectedPlayerPositionOnLCD@newX:
   570                           	callstack 0
   571  00000B                     frisbeeHeldOnLCD@frisbeeX:
   572                           	callstack 0
   573  00000B                     frisbeeReleasedOnLCD@frisbeeY:
   574                           	callstack 0
   575  00000B                     _switchSelectedPlayer$854:
   576                           	callstack 0
   577                           
   578                           ; 2 bytes @ 0xA
   579  00000B                     	ds	1
   580  00000C                     random_generator@pseudo_random:
   581                           	callstack 0
   582                           
   583                           ; 2 bytes @ 0xB
   584  00000C                     	ds	1
   585  00000D                     moveSelectedPlayerPositionOnLCD@newY:
   586                           	callstack 0
   587  00000D                     frisbeeHeldOnLCD@frisbeeY:
   588                           	callstack 0
   589  00000D                     switchSelectedPlayer@oldX:
   590                           	callstack 0
   591                           
   592                           ; 2 bytes @ 0xC
   593  00000D                     	ds	1
   594  00000E                     random_generator@rotated_value:
   595                           	callstack 0
   596                           
   597                           ; 2 bytes @ 0xD
   598  00000E                     	ds	1
   599  00000F                     moveSelectedPlayerPositionOnLCD@selectedPlayer:
   600                           	callstack 0
   601  00000F                     switchSelectedPlayer@oldY:
   602                           	callstack 0
   603  00000F                     _moveFrisbee$879:
   604                           	callstack 0
   605                           
   606                           ; 2 bytes @ 0xE
   607  00000F                     	ds	1
   608  000010                     random_generator@timer_value:
   609                           	callstack 0
   610                           
   611                           ; 2 bytes @ 0xF
   612  000010                     	ds	1
   613  000011                     _moveSelectedPlayerPositionOnLCD$762:
   614                           	callstack 0
   615  000011                     switchSelectedPlayer@newX:
   616                           	callstack 0
   617                           
   618                           ; 2 bytes @ 0x10
   619  000011                     	ds	1
   620  000012                     compute_frisbee_target_and_route@current_fisbee_x_position:
   621                           	callstack 0
   622                           
   623                           ; 2 bytes @ 0x11
   624  000012                     	ds	1
   625  000013                     ??_gamepadPressed:
   626  000013                     switchSelectedPlayer@newY:
   627                           	callstack 0
   628                           
   629                           ; 2 bytes @ 0x12
   630  000013                     	ds	1
   631  000014                     compute_frisbee_target_and_route@current_fisbee_y_position:
   632                           	callstack 0
   633                           
   634                           ; 2 bytes @ 0x13
   635  000014                     	ds	1
   636  000015                     switchSelectedPlayer@selected_player:
   637                           	callstack 0
   638                           
   639                           ; 2 bytes @ 0x14
   640  000015                     	ds	1
   641  000016                     ??_compute_frisbee_target_and_route:
   642                           
   643                           ; 1 bytes @ 0x15
   644  000016                     	ds	1
   645  000017                     gamepadPressed@oldX:
   646                           	callstack 0
   647                           
   648                           ; 2 bytes @ 0x16
   649  000017                     	ds	1
   650  000018                     compute_frisbee_target_and_route@i:
   651                           	callstack 0
   652                           
   653                           ; 2 bytes @ 0x17
   654  000018                     	ds	1
   655  000019                     gamepadPressed@oldY:
   656                           	callstack 0
   657                           
   658                           ; 2 bytes @ 0x18
   659  000019                     	ds	1
   660  00001A                     compute_frisbee_target_and_route@i_719:
   661                           	callstack 0
   662                           
   663                           ; 2 bytes @ 0x19
   664  00001A                     	ds	1
   665  00001B                     gamepadPressed@current_portb:
   666                           	callstack 0
   667                           
   668                           ; 1 bytes @ 0x1A
   669  00001B                     	ds	1
   670  00001C                     compute_frisbee_target_and_route@i_720:
   671                           	callstack 0
   672                           
   673                           ; 2 bytes @ 0x1B
   674  00001C                     	ds	2
   675  00001E                     compute_frisbee_target_and_route@i_722:
   676                           	callstack 0
   677                           
   678                           ; 2 bytes @ 0x1D
   679  00001E                     	ds	2
   680  000020                     compute_frisbee_target_and_route@i_723:
   681                           	callstack 0
   682                           
   683                           ; 2 bytes @ 0x1F
   684  000020                     	ds	2
   685  000022                     compute_frisbee_target_and_route@i_724:
   686                           	callstack 0
   687                           
   688                           ; 2 bytes @ 0x21
   689  000022                     	ds	2
   690  000024                     compute_frisbee_target_and_route@number_of_steps:
   691                           	callstack 0
   692                           
   693                           ; 2 bytes @ 0x23
   694  000024                     	ds	2
   695  000026                     compute_frisbee_target_and_route@x:
   696                           	callstack 0
   697                           
   698                           ; 2 bytes @ 0x25
   699  000026                     	ds	2
   700  000028                     compute_frisbee_target_and_route@y:
   701                           	callstack 0
   702                           
   703                           ; 2 bytes @ 0x27
   704  000028                     	ds	2
   705  00002A                     compute_frisbee_target_and_route@x_step_size:
   706                           	callstack 0
   707                           
   708                           ; 2 bytes @ 0x29
   709  00002A                     	ds	2
   710  00002C                     compute_frisbee_target_and_route@y_step_size:
   711                           	callstack 0
   712                           
   713                           ; 2 bytes @ 0x2B
   714  00002C                     	ds	2
   715  00002E                     ??_throwFrisbee:
   716                           
   717                           ; 1 bytes @ 0x2D
   718  00002E                     	ds	2
   719  000030                     _throwFrisbee$864:
   720                           	callstack 0
   721                           
   722                           ; 2 bytes @ 0x2F
   723  000030                     	ds	2
   724  000032                     throwFrisbee@selected_player_x:
   725                           	callstack 0
   726                           
   727                           ; 2 bytes @ 0x31
   728  000032                     	ds	2
   729  000034                     throwFrisbee@selected_player_y:
   730                           	callstack 0
   731                           
   732                           ; 2 bytes @ 0x33
   733  000034                     	ds	2
   734  000036                     throwFrisbee@selected_player:
   735                           	callstack 0
   736                           
   737                           ; 2 bytes @ 0x35
   738  000036                     	ds	2
   739  000038                     ??_FNC:
   740                           
   741                           ; 1 bytes @ 0x37
   742  000038                     	ds	8
   743                           
   744 ;;
   745 ;;Main: autosize = 0, tempsize = 0, incstack = 0, save=0
   746 ;;
   747 ;; *************** function _main *****************
   748 ;; Defined at:
   749 ;;		line 515 in file "newmain.c"
   750 ;; Parameters:    Size  Location     Type
   751 ;;		None
   752 ;; Auto vars:     Size  Location     Type
   753 ;;		None
   754 ;; Return value:  Size  Location     Type
   755 ;;                  1    wreg      void 
   756 ;; Registers used:
   757 ;;		wreg, fsr2l, fsr2h, status,2, status,0, prodl, prodh, cstack
   758 ;; Tracked objects:
   759 ;;		On entry : 0/0
   760 ;;		On exit  : 0/0
   761 ;;		Unchanged: 0/0
   762 ;; Data sizes:     COMRAM   BANK0   BANK1   BANK2   BANK3   BANK4   BANK5   BANK6   BANK7   BANK8   BANK9  BANK10  BANK1
      +1  BANK12  BANK13  BANK14  BANK15
   763 ;;      Params:         0       0       0       0       0       0       0       0       0       0       0       0       
      +0       0       0       0       0
   764 ;;      Locals:         0       0       0       0       0       0       0       0       0       0       0       0       
      +0       0       0       0       0
   765 ;;      Temps:          0       0       0       0       0       0       0       0       0       0       0       0       
      +0       0       0       0       0
   766 ;;      Totals:         0       0       0       0       0       0       0       0       0       0       0       0       
      +0       0       0       0       0
   767 ;;Total ram usage:        0 bytes
   768 ;; Hardware stack levels required when called:    8
   769 ;; This function calls:
   770 ;;		_InitLCD
   771 ;;		_display_7seg
   772 ;;		_initADC
   773 ;;		_initRegisters
   774 ;;		_setInitialState
   775 ;; This function is called by:
   776 ;;		Startup code after reset
   777 ;; This function uses a non-reentrant model
   778 ;;
   779                           
   780                           	psect	text0
   781  002762                     __ptext0:
   782                           	callstack 0
   783  002762                     _main:
   784                           	callstack 23
   785  002762                     
   786                           ;newmain.c: 517:     initADC();
   787  002762  EC9F  F013         	call	_initADC	;wreg free
   788  002766                     
   789                           ;newmain.c: 519:     InitLCD();
   790  002766  EC71  F013         	call	_InitLCD	;wreg free
   791  00276A                     
   792                           ;newmain.c: 521:     initRegisters();
   793  00276A  EC32  F012         	call	_initRegisters	;wreg free
   794  00276E                     
   795                           ;newmain.c: 523:     setInitialState();
   796  00276E  ECC0  F00E         	call	_setInitialState	;wreg free
   797  002772                     l2588:
   798                           
   799                           ;newmain.c: 526:     {;newmain.c: 527:         display_7seg();
   800  002772  ECFC  F011         	call	_display_7seg	;wreg free
   801  002776  EFB9  F013         	goto	l2588
   802  00277A  EF07  F000         	goto	start
   803  00277E                     __end_of_main:
   804                           	callstack 0
   805                           
   806 ;; *************** function _setInitialState *****************
   807 ;; Defined at:
   808 ;;		line 93 in file "newmain.c"
   809 ;; Parameters:    Size  Location     Type
   810 ;;		None
   811 ;; Auto vars:     Size  Location     Type
   812 ;;		None
   813 ;; Return value:  Size  Location     Type
   814 ;;                  1    wreg      void 
   815 ;; Registers used:
   816 ;;		wreg, fsr2l, fsr2h, status,2, status,0, prodl, prodh, cstack
   817 ;; Tracked objects:
   818 ;;		On entry : 0/0
   819 ;;		On exit  : 0/0
   820 ;;		Unchanged: 0/0
   821 ;; Data sizes:     COMRAM   BANK0   BANK1   BANK2   BANK3   BANK4   BANK5   BANK6   BANK7   BANK8   BANK9  BANK10  BANK1
      +1  BANK12  BANK13  BANK14  BANK15
   822 ;;      Params:         0       0       0       0       0       0       0       0       0       0       0       0       
      +0       0       0       0       0
   823 ;;      Locals:         0       0       0       0       0       0       0       0       0       0       0       0       
      +0       0       0       0       0
   824 ;;      Temps:          0       0       0       0       0       0       0       0       0       0       0       0       
      +0       0       0       0       0
   825 ;;      Totals:         0       0       0       0       0       0       0       0       0       0       0       0       
      +0       0       0       0       0
   826 ;;Total ram usage:        0 bytes
   827 ;; Hardware stack levels used:    1
   828 ;; Hardware stack levels required when called:    7
   829 ;; This function calls:
   830 ;;		_LCDAddSpecialCharacter
   831 ;;		_LCDDat
   832 ;;		_LCDGoto
   833 ;; This function is called by:
   834 ;;		_main
   835 ;; This function uses a non-reentrant model
   836 ;;
   837                           
   838                           	psect	text1
   839  001D80                     __ptext1:
   840                           	callstack 0
   841  001D80                     _setInitialState:
   842                           	callstack 23
   843  001D80                     
   844                           ;newmain.c: 95:     LCDAddSpecialCharacter(0, selected_teamA_player);
   845  001D80  0EA8               	movlw	low _selected_teamA_player
   846  001D82  0100               	movlb	0	; () banked
   847  001D84  6FC9               	movwf	LCDAddSpecialCharacter@data& (0+255),b
   848  001D86  0E00               	movlw	high _selected_teamA_player
   849  001D88  6FCA               	movwf	(LCDAddSpecialCharacter@data+1)& (0+255),b
   850  001D8A  0E00               	movlw	0
   851  001D8C  EC35  F013         	call	_LCDAddSpecialCharacter
   852                           
   853                           ;newmain.c: 96:     LCDAddSpecialCharacter(1, teamA_player);
   854  001D90  0EB8               	movlw	low _teamA_player
   855  001D92  0100               	movlb	0	; () banked
   856  001D94  6FC9               	movwf	LCDAddSpecialCharacter@data& (0+255),b
   857  001D96  0E00               	movlw	high _teamA_player
   858  001D98  6FCA               	movwf	(LCDAddSpecialCharacter@data+1)& (0+255),b
   859  001D9A  0E01               	movlw	1
   860  001D9C  EC35  F013         	call	_LCDAddSpecialCharacter
   861                           
   862                           ;newmain.c: 97:     LCDAddSpecialCharacter(2, selected_teamB_player);
   863  001DA0  0EA0               	movlw	low _selected_teamB_player
   864  001DA2  0100               	movlb	0	; () banked
   865  001DA4  6FC9               	movwf	LCDAddSpecialCharacter@data& (0+255),b
   866  001DA6  0E00               	movlw	high _selected_teamB_player
   867  001DA8  6FCA               	movwf	(LCDAddSpecialCharacter@data+1)& (0+255),b
   868  001DAA  0E02               	movlw	2
   869  001DAC  EC35  F013         	call	_LCDAddSpecialCharacter
   870                           
   871                           ;newmain.c: 98:     LCDAddSpecialCharacter(3, teamB_player);
   872  001DB0  0EB0               	movlw	low _teamB_player
   873  001DB2  0100               	movlb	0	; () banked
   874  001DB4  6FC9               	movwf	LCDAddSpecialCharacter@data& (0+255),b
   875  001DB6  0E00               	movlw	high _teamB_player
   876  001DB8  6FCA               	movwf	(LCDAddSpecialCharacter@data+1)& (0+255),b
   877  001DBA  0E03               	movlw	3
   878  001DBC  EC35  F013         	call	_LCDAddSpecialCharacter
   879                           
   880                           ;newmain.c: 99:     LCDAddSpecialCharacter(4, frisbee);
   881  001DC0  0E88               	movlw	low _frisbee
   882  001DC2  0100               	movlb	0	; () banked
   883  001DC4  6FC9               	movwf	LCDAddSpecialCharacter@data& (0+255),b
   884  001DC6  0E00               	movlw	high _frisbee
   885  001DC8  6FCA               	movwf	(LCDAddSpecialCharacter@data+1)& (0+255),b
   886  001DCA  0E04               	movlw	4
   887  001DCC  EC35  F013         	call	_LCDAddSpecialCharacter
   888                           
   889                           ;newmain.c: 100:     LCDAddSpecialCharacter(5, selected_teamA_player_with_frisbee);
   890  001DD0  0E98               	movlw	low _selected_teamA_player_with_frisbee
   891  001DD2  0100               	movlb	0	; () banked
   892  001DD4  6FC9               	movwf	LCDAddSpecialCharacter@data& (0+255),b
   893  001DD6  0E00               	movlw	high _selected_teamA_player_with_frisbee
   894  001DD8  6FCA               	movwf	(LCDAddSpecialCharacter@data+1)& (0+255),b
   895  001DDA  0E05               	movlw	5
   896  001DDC  EC35  F013         	call	_LCDAddSpecialCharacter
   897                           
   898                           ;newmain.c: 101:     LCDAddSpecialCharacter(6, selected_teamB_player_with_frisbee);
   899  001DE0  0E90               	movlw	low _selected_teamB_player_with_frisbee
   900  001DE2  0100               	movlb	0	; () banked
   901  001DE4  6FC9               	movwf	LCDAddSpecialCharacter@data& (0+255),b
   902  001DE6  0E00               	movlw	high _selected_teamB_player_with_frisbee
   903  001DE8  6FCA               	movwf	(LCDAddSpecialCharacter@data+1)& (0+255),b
   904  001DEA  0E06               	movlw	6
   905  001DEC  EC35  F013         	call	_LCDAddSpecialCharacter
   906                           
   907                           ;newmain.c: 102:     LCDAddSpecialCharacter(7,frisbee_target);
   908  001DF0  0E80               	movlw	low _frisbee_target
   909  001DF2  0100               	movlb	0	; () banked
   910  001DF4  6FC9               	movwf	LCDAddSpecialCharacter@data& (0+255),b
   911  001DF6  0E00               	movlw	high _frisbee_target
   912  001DF8  6FCA               	movwf	(LCDAddSpecialCharacter@data+1)& (0+255),b
   913  001DFA  0E07               	movlw	7
   914  001DFC  EC35  F013         	call	_LCDAddSpecialCharacter
   915  001E00                     
   916                           ;newmain.c: 104:     LCDGoto(8, 2);
   917  001E00  0E02               	movlw	2
   918  001E02  0100               	movlb	0	; () banked
   919  001E04  6FC9               	movwf	LCDGoto@p_1& (0+255),b
   920  001E06  0E08               	movlw	8
   921  001E08  EC13  F011         	call	_LCDGoto
   922  001E0C                     
   923                           ;newmain.c: 105:     LCDDat(0);
   924  001E0C  0E00               	movlw	0
   925  001E0E  ECBF  F013         	call	_LCDDat
   926  001E12                     
   927                           ;newmain.c: 107:     LCDGoto(3, 3);
   928  001E12  0E03               	movlw	3
   929  001E14  0100               	movlb	0	; () banked
   930  001E16  6FC9               	movwf	LCDGoto@p_1& (0+255),b
   931  001E18  0E03               	movlw	3
   932  001E1A  EC13  F011         	call	_LCDGoto
   933  001E1E                     
   934                           ;newmain.c: 108:     LCDDat(1);
   935  001E1E  0E01               	movlw	1
   936  001E20  ECBF  F013         	call	_LCDDat
   937  001E24                     
   938                           ;newmain.c: 110:     LCDGoto(14, 2);
   939  001E24  0E02               	movlw	2
   940  001E26  0100               	movlb	0	; () banked
   941  001E28  6FC9               	movwf	LCDGoto@p_1& (0+255),b
   942  001E2A  0E0E               	movlw	14
   943  001E2C  EC13  F011         	call	_LCDGoto
   944  001E30                     
   945                           ;newmain.c: 111:     LCDDat(3);
   946  001E30  0E03               	movlw	3
   947  001E32  ECBF  F013         	call	_LCDDat
   948  001E36                     
   949                           ;newmain.c: 113:     LCDGoto(14, 3);
   950  001E36  0E03               	movlw	3
   951  001E38  0100               	movlb	0	; () banked
   952  001E3A  6FC9               	movwf	LCDGoto@p_1& (0+255),b
   953  001E3C  0E0E               	movlw	14
   954  001E3E  EC13  F011         	call	_LCDGoto
   955  001E42                     
   956                           ;newmain.c: 114:     LCDDat(3);
   957  001E42  0E03               	movlw	3
   958  001E44  ECBF  F013         	call	_LCDDat
   959  001E48                     
   960                           ;newmain.c: 116:     LCDGoto(9, 2);
   961  001E48  0E02               	movlw	2
   962  001E4A  0100               	movlb	0	; () banked
   963  001E4C  6FC9               	movwf	LCDGoto@p_1& (0+255),b
   964  001E4E  0E09               	movlw	9
   965  001E50  EC13  F011         	call	_LCDGoto
   966  001E54                     
   967                           ;newmain.c: 117:     LCDDat(4);
   968  001E54  0E04               	movlw	4
   969  001E56  ECBF  F013         	call	_LCDDat
   970  001E5A  0012               	return		;funcret
   971  001E5C                     __end_of_setInitialState:
   972                           	callstack 0
   973                           
   974 ;; *************** function _LCDGoto *****************
   975 ;; Defined at:
   976 ;;		line 72 in file "./LCD.h"
   977 ;; Parameters:    Size  Location     Type
   978 ;;  p_2             1    wreg     unsigned char 
   979 ;;  p_1             1    1[BANK0 ] unsigned char 
   980 ;; Auto vars:     Size  Location     Type
   981 ;;  p_2             1    2[BANK0 ] unsigned char 
   982 ;; Return value:  Size  Location     Type
   983 ;;                  1    wreg      void 
   984 ;; Registers used:
   985 ;;		wreg, status,2, status,0, cstack
   986 ;; Tracked objects:
   987 ;;		On entry : 0/0
   988 ;;		On exit  : 0/0
   989 ;;		Unchanged: 0/0
   990 ;; Data sizes:     COMRAM   BANK0   BANK1   BANK2   BANK3   BANK4   BANK5   BANK6   BANK7   BANK8   BANK9  BANK10  BANK1
      +1  BANK12  BANK13  BANK14  BANK15
   991 ;;      Params:         0       1       0       0       0       0       0       0       0       0       0       0       
      +0       0       0       0       0
   992 ;;      Locals:         0       1       0       0       0       0       0       0       0       0       0       0       
      +0       0       0       0       0
   993 ;;      Temps:          0       0       0       0       0       0       0       0       0       0       0       0       
      +0       0       0       0       0
   994 ;;      Totals:         0       2       0       0       0       0       0       0       0       0       0       0       
      +0       0       0       0       0
   995 ;;Total ram usage:        2 bytes
   996 ;; Hardware stack levels used:    1
   997 ;; Hardware stack levels required when called:    6
   998 ;; This function calls:
   999 ;;		_LCDCmd
  1000 ;; This function is called by:
  1001 ;;		_setInitialState
  1002 ;; This function uses a non-reentrant model
  1003 ;;
  1004                           
  1005                           	psect	text2
  1006  002226                     __ptext2:
  1007                           	callstack 0
  1008  002226                     _LCDGoto:
  1009                           	callstack 23
  1010                           
  1011                           ;incstack = 0
  1012                           ;LCDGoto@p_2 stored from wreg
  1013  002226  0100               	movlb	0	; () banked
  1014  002228  6FCA               	movwf	LCDGoto@p_2& (0+255),b
  1015  00222A                     
  1016                           ;./LCD.h: 73:   if(p_1==1) {
  1017  00222A  0100               	movlb	0	; () banked
  1018  00222C  05C9               	decf	LCDGoto@p_1& (0+255),w,b
  1019  00222E  A4D8               	btfss	status,2,c
  1020  002230  EF1C  F011         	goto	u1741
  1021  002234  EF1E  F011         	goto	u1740
  1022  002238                     u1741:
  1023  002238  EF25  F011         	goto	l2462
  1024  00223C                     u1740:
  1025  00223C                     
  1026                           ; BSR set to: 0
  1027                           ;./LCD.h: 74:     LCDCmd(0x80 +((p_2-1)%16));
  1028  00223C  05CA               	decf	LCDGoto@p_2& (0+255),w,b
  1029  00223E  0B0F               	andlw	15
  1030  002240  0F80               	addlw	128
  1031  002242  ECC9  F013         	call	_LCDCmd
  1032                           
  1033                           ;./LCD.h: 75:   }
  1034  002246  EF4A  F011         	goto	l2472
  1035  00224A                     l2462:
  1036                           
  1037                           ; BSR set to: 0
  1038  00224A  0E02               	movlw	2
  1039  00224C  19C9               	xorwf	LCDGoto@p_1& (0+255),w,b
  1040  00224E  A4D8               	btfss	status,2,c
  1041  002250  EF2C  F011         	goto	u1751
  1042  002254  EF2E  F011         	goto	u1750
  1043  002258                     u1751:
  1044  002258  EF35  F011         	goto	l2466
  1045  00225C                     u1750:
  1046  00225C                     
  1047                           ; BSR set to: 0
  1048                           ;./LCD.h: 77:     LCDCmd(0xC0 +((p_2-1)%16));
  1049  00225C  05CA               	decf	LCDGoto@p_2& (0+255),w,b
  1050  00225E  0B0F               	andlw	15
  1051  002260  0FC0               	addlw	192
  1052  002262  ECC9  F013         	call	_LCDCmd
  1053                           
  1054                           ;./LCD.h: 78:   }
  1055  002266  EF4A  F011         	goto	l2472
  1056  00226A                     l2466:
  1057                           
  1058                           ; BSR set to: 0
  1059  00226A  0E03               	movlw	3
  1060  00226C  19C9               	xorwf	LCDGoto@p_1& (0+255),w,b
  1061  00226E  A4D8               	btfss	status,2,c
  1062  002270  EF3C  F011         	goto	u1761
  1063  002274  EF3E  F011         	goto	u1760
  1064  002278                     u1761:
  1065  002278  EF45  F011         	goto	l2470
  1066  00227C                     u1760:
  1067  00227C                     
  1068                           ; BSR set to: 0
  1069                           ;./LCD.h: 80:     LCDCmd(0x90 +((p_2-1)%16));
  1070  00227C  05CA               	decf	LCDGoto@p_2& (0+255),w,b
  1071  00227E  0B0F               	andlw	15
  1072  002280  0F90               	addlw	144
  1073  002282  ECC9  F013         	call	_LCDCmd
  1074                           
  1075                           ;./LCD.h: 81:   }
  1076  002286  EF4A  F011         	goto	l2472
  1077  00228A                     l2470:
  1078                           
  1079                           ; BSR set to: 0
  1080                           ;./LCD.h: 83:     LCDCmd(0xD0 +((p_2-1)%16));
  1081  00228A  05CA               	decf	LCDGoto@p_2& (0+255),w,b
  1082  00228C  0B0F               	andlw	15
  1083  00228E  0FD0               	addlw	208
  1084  002290  ECC9  F013         	call	_LCDCmd
  1085  002294                     l2472:
  1086                           
  1087                           ;./LCD.h: 85:   lcd_x = p_2;
  1088  002294  C0CA  F068         	movff	LCDGoto@p_2,_lcd_x
  1089  002298                     
  1090                           ;./LCD.h: 86:   lcd_y = p_1;
  1091  002298  C0C9  F067         	movff	LCDGoto@p_1,_lcd_y
  1092  00229C  0012               	return		;funcret
  1093  00229E                     __end_of_LCDGoto:
  1094                           	callstack 0
  1095                           
  1096 ;; *************** function _LCDAddSpecialCharacter *****************
  1097 ;; Defined at:
  1098 ;;		line 129 in file "./LCD.h"
  1099 ;; Parameters:    Size  Location     Type
  1100 ;;  character_in    1    wreg     unsigned char 
  1101 ;;  data            2    1[BANK0 ] PTR unsigned char 
  1102 ;;		 -> frisbee_target(8), selected_teamB_player_with_frisbee(8), selected_teamA_player_with_frisbee(8), frisbee(8), 
  1103 ;;		 -> teamB_player(8), selected_teamB_player(8), teamA_player(8), selected_teamA_player(8), 
  1104 ;; Auto vars:     Size  Location     Type
  1105 ;;  character_in    1    3[BANK0 ] unsigned char 
  1106 ;;  i               1    4[BANK0 ] unsigned char 
  1107 ;; Return value:  Size  Location     Type
  1108 ;;                  1    wreg      void 
  1109 ;; Registers used:
  1110 ;;		wreg, fsr2l, fsr2h, status,2, status,0, prodl, prodh, cstack
  1111 ;; Tracked objects:
  1112 ;;		On entry : 0/0
  1113 ;;		On exit  : 0/0
  1114 ;;		Unchanged: 0/0
  1115 ;; Data sizes:     COMRAM   BANK0   BANK1   BANK2   BANK3   BANK4   BANK5   BANK6   BANK7   BANK8   BANK9  BANK10  BANK1
      +1  BANK12  BANK13  BANK14  BANK15
  1116 ;;      Params:         0       2       0       0       0       0       0       0       0       0       0       0       
      +0       0       0       0       0
  1117 ;;      Locals:         0       2       0       0       0       0       0       0       0       0       0       0       
      +0       0       0       0       0
  1118 ;;      Temps:          0       0       0       0       0       0       0       0       0       0       0       0       
      +0       0       0       0       0
  1119 ;;      Totals:         0       4       0       0       0       0       0       0       0       0       0       0       
      +0       0       0       0       0
  1120 ;;Total ram usage:        4 bytes
  1121 ;; Hardware stack levels used:    1
  1122 ;; Hardware stack levels required when called:    6
  1123 ;; This function calls:
  1124 ;;		_LCDCmd
  1125 ;;		_LCDDat
  1126 ;; This function is called by:
  1127 ;;		_setInitialState
  1128 ;; This function uses a non-reentrant model
  1129 ;;
  1130                           
  1131                           	psect	text3
  1132  00266A                     __ptext3:
  1133                           	callstack 0
  1134  00266A                     _LCDAddSpecialCharacter:
  1135                           	callstack 23
  1136                           
  1137                           ;incstack = 0
  1138                           ;LCDAddSpecialCharacter@character_index stored from wreg
  1139  00266A  0100               	movlb	0	; () banked
  1140  00266C  6FCB               	movwf	LCDAddSpecialCharacter@character_index& (0+255),b
  1141  00266E                     
  1142                           ;./LCD.h: 135:     LCDCmd(0b01000000+(character_index*8));
  1143  00266E  0100               	movlb	0	; () banked
  1144  002670  51CB               	movf	LCDAddSpecialCharacter@character_index& (0+255),w,b
  1145  002672  0D08               	mullw	8
  1146  002674  50F3               	movf	243,w,c
  1147  002676  0F40               	addlw	64
  1148  002678  ECC9  F013         	call	_LCDCmd
  1149  00267C                     
  1150                           ;./LCD.h: 136:     for(byte i=0; i < 8; i++) {
  1151  00267C  0E00               	movlw	0
  1152  00267E  0100               	movlb	0	; () banked
  1153  002680  6FCC               	movwf	LCDAddSpecialCharacter@i& (0+255),b
  1154  002682                     l2484:
  1155                           
  1156                           ; BSR set to: 0
  1157                           ;./LCD.h: 137:         LCDDat(data[i]);
  1158  002682  51CC               	movf	LCDAddSpecialCharacter@i& (0+255),w,b
  1159  002684  25C9               	addwf	LCDAddSpecialCharacter@data& (0+255),w,b
  1160  002686  6ED9               	movwf	fsr2l,c
  1161  002688  0E00               	movlw	0
  1162  00268A  21CA               	addwfc	(LCDAddSpecialCharacter@data+1)& (0+255),w,b
  1163  00268C  6EDA               	movwf	fsr2h,c
  1164  00268E  50DF               	movf	indf2,w,c
  1165  002690  ECBF  F013         	call	_LCDDat
  1166  002694                     
  1167                           ;./LCD.h: 138:     }
  1168  002694  0100               	movlb	0	; () banked
  1169  002696  2BCC               	incf	LCDAddSpecialCharacter@i& (0+255),f,b
  1170  002698                     
  1171                           ; BSR set to: 0
  1172  002698  0E07               	movlw	7
  1173  00269A  65CC               	cpfsgt	LCDAddSpecialCharacter@i& (0+255),b
  1174  00269C  EF52  F013         	goto	u1771
  1175  0026A0  EF54  F013         	goto	u1770
  1176  0026A4                     u1771:
  1177  0026A4  EF41  F013         	goto	l2484
  1178  0026A8                     u1770:
  1179  0026A8                     
  1180                           ; BSR set to: 0
  1181  0026A8  0012               	return		;funcret
  1182  0026AA                     __end_of_LCDAddSpecialCharacter:
  1183                           	callstack 0
  1184                           
  1185 ;; *************** function _LCDDat *****************
  1186 ;; Defined at:
  1187 ;;		line 58 in file "./LCD.h"
  1188 ;; Parameters:    Size  Location     Type
  1189 ;;  dat             1    wreg     unsigned char 
  1190 ;; Auto vars:     Size  Location     Type
  1191 ;;  dat             1    0[BANK0 ] unsigned char 
  1192 ;; Return value:  Size  Location     Type
  1193 ;;                  1    wreg      void 
  1194 ;; Registers used:
  1195 ;;		wreg
  1196 ;; Tracked objects:
  1197 ;;		On entry : 0/0
  1198 ;;		On exit  : 0/0
  1199 ;;		Unchanged: 0/0
  1200 ;; Data sizes:     COMRAM   BANK0   BANK1   BANK2   BANK3   BANK4   BANK5   BANK6   BANK7   BANK8   BANK9  BANK10  BANK1
      +1  BANK12  BANK13  BANK14  BANK15
  1201 ;;      Params:         0       0       0       0       0       0       0       0       0       0       0       0       
      +0       0       0       0       0
  1202 ;;      Locals:         0       1       0       0       0       0       0       0       0       0       0       0       
      +0       0       0       0       0
  1203 ;;      Temps:          0       0       0       0       0       0       0       0       0       0       0       0       
      +0       0       0       0       0
  1204 ;;      Totals:         0       1       0       0       0       0       0       0       0       0       0       0       
      +0       0       0       0       0
  1205 ;;Total ram usage:        1 bytes
  1206 ;; Hardware stack levels used:    1
  1207 ;; Hardware stack levels required when called:    5
  1208 ;; This function calls:
  1209 ;;		Nothing
  1210 ;; This function is called by:
  1211 ;;		_LCDAddSpecialCharacter
  1212 ;;		_setInitialState
  1213 ;; This function uses a non-reentrant model
  1214 ;;
  1215                           
  1216                           	psect	text4
  1217  00277E                     __ptext4:
  1218                           	callstack 0
  1219  00277E                     _LCDDat:
  1220                           	callstack 24
  1221                           
  1222                           ; BSR set to: 0
  1223                           ;incstack = 0
  1224                           ;LCDDat@dat stored from wreg
  1225  00277E  0100               	movlb	0	; () banked
  1226  002780  6FC8               	movwf	LCDDat@dat& (0+255),b
  1227  002782                     
  1228                           ;./LCD.h: 59:   PORTEbits.RE1 = 0;
  1229  002782  9284               	bcf	132,1,c	;volatile
  1230                           
  1231                           ;./LCD.h: 60:   PORTEbits.RE2 = 1;
  1232  002784  8484               	bsf	132,2,c	;volatile
  1233  002786                     
  1234                           ;./LCD.h: 61:   PORTD = dat;
  1235  002786  C0C8  FF83         	movff	LCDDat@dat,3971	;volatile
  1236  00278A                     
  1237                           ;./LCD.h: 62:   PORTEbits.RE1 = 1;
  1238  00278A  8284               	bsf	132,1,c	;volatile
  1239  00278C                     
  1240                           ;./LCD.h: 64:   PORTEbits.RE1 = 0;
  1241  00278C  9284               	bcf	132,1,c	;volatile
  1242  00278E                     
  1243                           ;./LCD.h: 66:   PORTEbits.RE2 = 0;
  1244  00278E  9484               	bcf	132,2,c	;volatile
  1245  002790  0012               	return		;funcret
  1246  002792                     __end_of_LCDDat:
  1247                           	callstack 0
  1248                           
  1249 ;; *************** function _initRegisters *****************
  1250 ;; Defined at:
  1251 ;;		line 267 in file "newmain.c"
  1252 ;; Parameters:    Size  Location     Type
  1253 ;;		None
  1254 ;; Auto vars:     Size  Location     Type
  1255 ;;		None
  1256 ;; Return value:  Size  Location     Type
  1257 ;;                  1    wreg      void 
  1258 ;; Registers used:
  1259 ;;		wreg, status,2
  1260 ;; Tracked objects:
  1261 ;;		On entry : 0/0
  1262 ;;		On exit  : 0/0
  1263 ;;		Unchanged: 0/0
  1264 ;; Data sizes:     COMRAM   BANK0   BANK1   BANK2   BANK3   BANK4   BANK5   BANK6   BANK7   BANK8   BANK9  BANK10  BANK1
      +1  BANK12  BANK13  BANK14  BANK15
  1265 ;;      Params:         0       0       0       0       0       0       0       0       0       0       0       0       
      +0       0       0       0       0
  1266 ;;      Locals:         0       0       0       0       0       0       0       0       0       0       0       0       
      +0       0       0       0       0
  1267 ;;      Temps:          0       0       0       0       0       0       0       0       0       0       0       0       
      +0       0       0       0       0
  1268 ;;      Totals:         0       0       0       0       0       0       0       0       0       0       0       0       
      +0       0       0       0       0
  1269 ;;Total ram usage:        0 bytes
  1270 ;; Hardware stack levels used:    1
  1271 ;; Hardware stack levels required when called:    5
  1272 ;; This function calls:
  1273 ;;		Nothing
  1274 ;; This function is called by:
  1275 ;;		_main
  1276 ;; This function uses a non-reentrant model
  1277 ;;
  1278                           
  1279                           	psect	text5
  1280  002464                     __ptext5:
  1281                           	callstack 0
  1282  002464                     _initRegisters:
  1283                           	callstack 25
  1284  002464                     
  1285                           ;newmain.c: 270:     TRISB = 0;
  1286  002464  0E00               	movlw	0
  1287  002466  6E93               	movwf	147,c	;volatile
  1288  002468                     
  1289                           ;newmain.c: 271:     TRISBbits.RB0 = 1;
  1290  002468  8093               	bsf	147,0,c	;volatile
  1291  00246A                     
  1292                           ;newmain.c: 272:     TRISBbits.RB1 = 1;
  1293  00246A  8293               	bsf	147,1,c	;volatile
  1294  00246C                     
  1295                           ;newmain.c: 273:     TRISBbits.RB4 = 1;
  1296  00246C  8893               	bsf	147,4,c	;volatile
  1297  00246E                     
  1298                           ;newmain.c: 274:     TRISBbits.RB5 = 1;
  1299  00246E  8A93               	bsf	147,5,c	;volatile
  1300  002470                     
  1301                           ;newmain.c: 275:     TRISBbits.RB6 = 1;
  1302  002470  8C93               	bsf	147,6,c	;volatile
  1303  002472                     
  1304                           ;newmain.c: 276:     TRISBbits.RB7 = 1;
  1305  002472  8E93               	bsf	147,7,c	;volatile
  1306                           
  1307                           ;newmain.c: 277:     LATB = 0;
  1308  002474  0E00               	movlw	0
  1309  002476  6E8A               	movwf	138,c	;volatile
  1310  002478                     
  1311                           ;newmain.c: 279:     INTCONbits.RBIF = 0;
  1312  002478  90F2               	bcf	242,0,c	;volatile
  1313  00247A                     
  1314                           ;newmain.c: 280:     INTCONbits.RBIE = 1;
  1315  00247A  86F2               	bsf	242,3,c	;volatile
  1316                           
  1317                           ;newmain.c: 281:     LATB = 0;
  1318  00247C  0E00               	movlw	0
  1319  00247E  6E8A               	movwf	138,c	;volatile
  1320  002480                     
  1321                           ;newmain.c: 283:     INTCONbits.INT0IE = 1;
  1322  002480  88F2               	bsf	242,4,c	;volatile
  1323  002482                     
  1324                           ;newmain.c: 284:     INTCONbits.INT0IF = 0;
  1325  002482  92F2               	bcf	242,1,c	;volatile
  1326                           
  1327                           ;newmain.c: 285:     LATB = 0;
  1328  002484  0E00               	movlw	0
  1329  002486  6E8A               	movwf	138,c	;volatile
  1330  002488                     
  1331                           ;newmain.c: 287:     INTCON3bits.INT1IE = 1;
  1332  002488  86F0               	bsf	240,3,c	;volatile
  1333  00248A                     
  1334                           ;newmain.c: 288:     INTCON3bits.INT1IF = 0;
  1335  00248A  90F0               	bcf	240,0,c	;volatile
  1336  00248C                     
  1337                           ;newmain.c: 291:     INTCONbits.GIE = 1;
  1338  00248C  8EF2               	bsf	242,7,c	;volatile
  1339  00248E                     
  1340                           ;newmain.c: 292:     INTCONbits.PEIE = 1;
  1341  00248E  8CF2               	bsf	242,6,c	;volatile
  1342  002490                     
  1343                           ;newmain.c: 294:     INTCONbits.TMR0IE = 1;
  1344  002490  8AF2               	bsf	242,5,c	;volatile
  1345                           
  1346                           ;newmain.c: 296:     T0CON = 0b10000111;
  1347  002492  0E87               	movlw	135
  1348  002494  6ED5               	movwf	213,c	;volatile
  1349                           
  1350                           ;newmain.c: 297:     TMR0 = 59625;
  1351  002496  0EE8               	movlw	232
  1352  002498  6ED7               	movwf	215,c	;volatile
  1353  00249A  0EE9               	movlw	233
  1354  00249C  6ED6               	movwf	214,c	;volatile
  1355                           
  1356                           ;newmain.c: 301:     T1CON = 0;
  1357  00249E  0E00               	movlw	0
  1358  0024A0  6ECD               	movwf	205,c	;volatile
  1359                           
  1360                           ;newmain.c: 302:     TMR1 = 0;
  1361  0024A2  0E00               	movlw	0
  1362  0024A4  6ECF               	movwf	207,c	;volatile
  1363  0024A6  0E00               	movlw	0
  1364  0024A8  6ECE               	movwf	206,c	;volatile
  1365  0024AA                     
  1366                           ;newmain.c: 303:     T1CONbits.TMR1ON = 1;
  1367  0024AA  80CD               	bsf	205,0,c	;volatile
  1368                           
  1369                           ;newmain.c: 306:     T2CON = 0;
  1370  0024AC  0E00               	movlw	0
  1371  0024AE  6ECA               	movwf	202,c	;volatile
  1372                           
  1373                           ;newmain.c: 307:     TMR2 = 159;
  1374  0024B0  0E9F               	movlw	159
  1375  0024B2  6ECC               	movwf	204,c	;volatile
  1376                           
  1377                           ;newmain.c: 308:     T2CONbits.T2CKPS = 0b11;
  1378  0024B4  0E03               	movlw	3
  1379  0024B6  12CA               	iorwf	202,f,c	;volatile
  1380  0024B8                     
  1381                           ;newmain.c: 310:     T2CONbits.T2OUTPS0 = 1;
  1382  0024B8  86CA               	bsf	202,3,c	;volatile
  1383  0024BA                     
  1384                           ;newmain.c: 311:     T2CONbits.T2OUTPS1 = 1;
  1385  0024BA  88CA               	bsf	202,4,c	;volatile
  1386  0024BC                     
  1387                           ;newmain.c: 312:     T2CONbits.T2OUTPS2 = 1;
  1388  0024BC  8ACA               	bsf	202,5,c	;volatile
  1389  0024BE                     
  1390                           ;newmain.c: 313:     T2CONbits.T2OUTPS3 = 1;
  1391  0024BE  8CCA               	bsf	202,6,c	;volatile
  1392  0024C0                     
  1393                           ;newmain.c: 314:     T2CONbits.TMR2ON = 1;
  1394  0024C0  84CA               	bsf	202,2,c	;volatile
  1395                           
  1396                           ;newmain.c: 316:     LATB = 0;
  1397  0024C2  0E00               	movlw	0
  1398  0024C4  6E8A               	movwf	138,c	;volatile
  1399  0024C6                     
  1400                           ;newmain.c: 317:     PORTB;;
  1401  0024C6  5081               	movf	129,w,c	;volatile
  1402  0024C8  0012               	return		;funcret
  1403  0024CA                     __end_of_initRegisters:
  1404                           	callstack 0
  1405                           
  1406 ;; *************** function _initADC *****************
  1407 ;; Defined at:
  1408 ;;		line 35 in file "./ADC.h"
  1409 ;; Parameters:    Size  Location     Type
  1410 ;;		None
  1411 ;; Auto vars:     Size  Location     Type
  1412 ;;		None
  1413 ;; Return value:  Size  Location     Type
  1414 ;;                  1    wreg      void 
  1415 ;; Registers used:
  1416 ;;		None
  1417 ;; Tracked objects:
  1418 ;;		On entry : 0/0
  1419 ;;		On exit  : 0/0
  1420 ;;		Unchanged: 0/0
  1421 ;; Data sizes:     COMRAM   BANK0   BANK1   BANK2   BANK3   BANK4   BANK5   BANK6   BANK7   BANK8   BANK9  BANK10  BANK1
      +1  BANK12  BANK13  BANK14  BANK15
  1422 ;;      Params:         0       0       0       0       0       0       0       0       0       0       0       0       
      +0       0       0       0       0
  1423 ;;      Locals:         0       0       0       0       0       0       0       0       0       0       0       0       
      +0       0       0       0       0
  1424 ;;      Temps:          0       0       0       0       0       0       0       0       0       0       0       0       
      +0       0       0       0       0
  1425 ;;      Totals:         0       0       0       0       0       0       0       0       0       0       0       0       
      +0       0       0       0       0
  1426 ;;Total ram usage:        0 bytes
  1427 ;; Hardware stack levels used:    1
  1428 ;; Hardware stack levels required when called:    5
  1429 ;; This function calls:
  1430 ;;		Nothing
  1431 ;; This function is called by:
  1432 ;;		_main
  1433 ;; This function uses a non-reentrant model
  1434 ;;
  1435                           
  1436                           	psect	text6
  1437  00273E                     __ptext6:
  1438                           	callstack 0
  1439  00273E                     _initADC:
  1440                           	callstack 25
  1441  00273E                     
  1442                           ;./ADC.h: 37:         ADCON1bits.PCFG3 = 1;
  1443  00273E  86C1               	bsf	193,3,c	;volatile
  1444                           
  1445                           ;./ADC.h: 38:         ADCON1bits.PCFG2 = 1;
  1446  002740  84C1               	bsf	193,2,c	;volatile
  1447                           
  1448                           ;./ADC.h: 39:         ADCON1bits.PCFG1 = 0;
  1449  002742  92C1               	bcf	193,1,c	;volatile
  1450                           
  1451                           ;./ADC.h: 40:         ADCON1bits.PCFG0 = 0;
  1452  002744  90C1               	bcf	193,0,c	;volatile
  1453                           
  1454                           ;./ADC.h: 42:         ADCON1bits.VCFG0 = 0;
  1455  002746  98C1               	bcf	193,4,c	;volatile
  1456                           
  1457                           ;./ADC.h: 43:         ADCON1bits.VCFG1 = 0;
  1458  002748  9AC1               	bcf	193,5,c	;volatile
  1459                           
  1460                           ;./ADC.h: 45:         TRISAbits.RA0 = 1;
  1461  00274A  8092               	bsf	146,0,c	;volatile
  1462                           
  1463                           ;./ADC.h: 46:         TRISAbits.RA1 = 1;
  1464  00274C  8292               	bsf	146,1,c	;volatile
  1465                           
  1466                           ;./ADC.h: 47:         TRISAbits.RA2 = 0;
  1467  00274E  9492               	bcf	146,2,c	;volatile
  1468                           
  1469                           ;./ADC.h: 56:         ADCON2bits.ADCS2 = 0;
  1470  002750  94C0               	bcf	192,2,c	;volatile
  1471                           
  1472                           ;./ADC.h: 57:         ADCON2bits.ADCS1 = 1;
  1473  002752  82C0               	bsf	192,1,c	;volatile
  1474                           
  1475                           ;./ADC.h: 58:         ADCON2bits.ADCS0 = 0;
  1476  002754  90C0               	bcf	192,0,c	;volatile
  1477                           
  1478                           ;./ADC.h: 60:         ADCON2bits.ACQT2 = 0;
  1479  002756  9AC0               	bcf	192,5,c	;volatile
  1480                           
  1481                           ;./ADC.h: 61:         ADCON2bits.ACQT1 = 1;
  1482  002758  88C0               	bsf	192,4,c	;volatile
  1483                           
  1484                           ;./ADC.h: 62:         ADCON2bits.ACQT0 = 0;
  1485  00275A  96C0               	bcf	192,3,c	;volatile
  1486                           
  1487                           ;./ADC.h: 64:         ADCON2bits.ADFM = 1;
  1488  00275C  8EC0               	bsf	192,7,c	;volatile
  1489                           
  1490                           ;./ADC.h: 66:         ADCON0bits.ADON = 1;
  1491  00275E  80C2               	bsf	194,0,c	;volatile
  1492  002760  0012               	return		;funcret
  1493  002762                     __end_of_initADC:
  1494                           	callstack 0
  1495                           
  1496 ;; *************** function _display_7seg *****************
  1497 ;; Defined at:
  1498 ;;		line 123 in file "newmain.c"
  1499 ;; Parameters:    Size  Location     Type
  1500 ;;		None
  1501 ;; Auto vars:     Size  Location     Type
  1502 ;;		None
  1503 ;; Return value:  Size  Location     Type
  1504 ;;                  1    wreg      void 
  1505 ;; Registers used:
  1506 ;;		wreg, fsr2l, fsr2h, status,2, status,0
  1507 ;; Tracked objects:
  1508 ;;		On entry : 0/0
  1509 ;;		On exit  : 0/0
  1510 ;;		Unchanged: 0/0
  1511 ;; Data sizes:     COMRAM   BANK0   BANK1   BANK2   BANK3   BANK4   BANK5   BANK6   BANK7   BANK8   BANK9  BANK10  BANK1
      +1  BANK12  BANK13  BANK14  BANK15
  1512 ;;      Params:         0       0       0       0       0       0       0       0       0       0       0       0       
      +0       0       0       0       0
  1513 ;;      Locals:         0       0       0       0       0       0       0       0       0       0       0       0       
      +0       0       0       0       0
  1514 ;;      Temps:          0       1       0       0       0       0       0       0       0       0       0       0       
      +0       0       0       0       0
  1515 ;;      Totals:         0       1       0       0       0       0       0       0       0       0       0       0       
      +0       0       0       0       0
  1516 ;;Total ram usage:        1 bytes
  1517 ;; Hardware stack levels used:    1
  1518 ;; Hardware stack levels required when called:    5
  1519 ;; This function calls:
  1520 ;;		Nothing
  1521 ;; This function is called by:
  1522 ;;		_main
  1523 ;; This function uses a non-reentrant model
  1524 ;;
  1525                           
  1526                           	psect	text7
  1527  0023F8                     __ptext7:
  1528                           	callstack 0
  1529  0023F8                     _display_7seg:
  1530                           	callstack 25
  1531  0023F8                     
  1532                           ;newmain.c: 124:     TRISA = 0;
  1533  0023F8  0E00               	movlw	0
  1534  0023FA  6E92               	movwf	146,c	;volatile
  1535                           
  1536                           ;newmain.c: 125:     LATA = 0b00001000;
  1537  0023FC  0E08               	movlw	8
  1538  0023FE  6E89               	movwf	137,c	;volatile
  1539  002400                     
  1540                           ;newmain.c: 126:     LATD = digits[gameState.teamA_score];
  1541  002400  0E5C               	movlw	low _digits
  1542  002402  2456               	addwf	(_gameState+22)^0,w,c
  1543  002404  6ED9               	movwf	fsr2l,c
  1544  002406  0E00               	movlw	high _digits
  1545  002408  2057               	addwfc	(_gameState+23)^0,w,c
  1546  00240A  6EDA               	movwf	fsr2h,c
  1547  00240C  50DF               	movf	indf2,w,c
  1548  00240E  6E8C               	movwf	140,c	;volatile
  1549  002410                     
  1550                           ;newmain.c: 127:     _delay((unsigned long)((1)*(40000000L/4000.0)));
  1551  002410  0E0D               	movlw	13
  1552  002412  0100               	movlb	0	; () banked
  1553  002414  6FC8               	movwf	??_display_7seg& (0+255),b
  1554  002416  0EFB               	movlw	251
  1555  002418                     u1787:
  1556  002418  2EE8               	decfsz	wreg,f,c
  1557  00241A  D7FE               	bra	u1787
  1558  00241C  2FC8               	decfsz	??_display_7seg& (0+255),f,b
  1559  00241E  D7FC               	bra	u1787
  1560  002420  D000               	nop2	
  1561  002422                     
  1562                           ;newmain.c: 128:     LATA = 0b00010000;
  1563  002422  0E10               	movlw	16
  1564  002424  6E89               	movwf	137,c	;volatile
  1565  002426                     
  1566                           ;newmain.c: 129:     LATD = dash;
  1567  002426  0E40               	movlw	64
  1568  002428  6E8C               	movwf	140,c	;volatile
  1569  00242A                     
  1570                           ;newmain.c: 130:     _delay((unsigned long)((1)*(40000000L/4000.0)));
  1571  00242A  0E0D               	movlw	13
  1572  00242C  0100               	movlb	0	; () banked
  1573  00242E  6FC8               	movwf	??_display_7seg& (0+255),b
  1574  002430  0EFB               	movlw	251
  1575  002432                     u1797:
  1576  002432  2EE8               	decfsz	wreg,f,c
  1577  002434  D7FE               	bra	u1797
  1578  002436  2FC8               	decfsz	??_display_7seg& (0+255),f,b
  1579  002438  D7FC               	bra	u1797
  1580  00243A  D000               	nop2	
  1581  00243C                     
  1582                           ;newmain.c: 131:     LATA = 0b00100000;
  1583  00243C  0E20               	movlw	32
  1584  00243E  6E89               	movwf	137,c	;volatile
  1585                           
  1586                           ;newmain.c: 132:     LATD = digits[gameState.teamB_score];
  1587  002440  0E5C               	movlw	low _digits
  1588  002442  2458               	addwf	(_gameState+24)^0,w,c
  1589  002444  6ED9               	movwf	fsr2l,c
  1590  002446  0E00               	movlw	high _digits
  1591  002448  2059               	addwfc	(_gameState+25)^0,w,c
  1592  00244A  6EDA               	movwf	fsr2h,c
  1593  00244C  50DF               	movf	indf2,w,c
  1594  00244E  6E8C               	movwf	140,c	;volatile
  1595  002450                     
  1596                           ;newmain.c: 133:     _delay((unsigned long)((1)*(40000000L/4000.0)));
  1597  002450  0E0D               	movlw	13
  1598  002452  0100               	movlb	0	; () banked
  1599  002454  6FC8               	movwf	??_display_7seg& (0+255),b
  1600  002456  0EFB               	movlw	251
  1601  002458                     u1807:
  1602  002458  2EE8               	decfsz	wreg,f,c
  1603  00245A  D7FE               	bra	u1807
  1604  00245C  2FC8               	decfsz	??_display_7seg& (0+255),f,b
  1605  00245E  D7FC               	bra	u1807
  1606  002460  D000               	nop2	
  1607  002462  0012               	return		;funcret
  1608  002464                     __end_of_display_7seg:
  1609                           	callstack 0
  1610                           
  1611 ;; *************** function _InitLCD *****************
  1612 ;; Defined at:
  1613 ;;		line 108 in file "./LCD.h"
  1614 ;; Parameters:    Size  Location     Type
  1615 ;;		None
  1616 ;; Auto vars:     Size  Location     Type
  1617 ;;		None
  1618 ;; Return value:  Size  Location     Type
  1619 ;;                  1    wreg      void 
  1620 ;; Registers used:
  1621 ;;		wreg, status,2, cstack
  1622 ;; Tracked objects:
  1623 ;;		On entry : 0/0
  1624 ;;		On exit  : 0/0
  1625 ;;		Unchanged: 0/0
  1626 ;; Data sizes:     COMRAM   BANK0   BANK1   BANK2   BANK3   BANK4   BANK5   BANK6   BANK7   BANK8   BANK9  BANK10  BANK1
      +1  BANK12  BANK13  BANK14  BANK15
  1627 ;;      Params:         0       0       0       0       0       0       0       0       0       0       0       0       
      +0       0       0       0       0
  1628 ;;      Locals:         0       0       0       0       0       0       0       0       0       0       0       0       
      +0       0       0       0       0
  1629 ;;      Temps:          0       0       0       0       0       0       0       0       0       0       0       0       
      +0       0       0       0       0
  1630 ;;      Totals:         0       0       0       0       0       0       0       0       0       0       0       0       
      +0       0       0       0       0
  1631 ;;Total ram usage:        0 bytes
  1632 ;; Hardware stack levels used:    1
  1633 ;; Hardware stack levels required when called:    6
  1634 ;; This function calls:
  1635 ;;		_LCDCmd
  1636 ;; This function is called by:
  1637 ;;		_main
  1638 ;; This function uses a non-reentrant model
  1639 ;;
  1640                           
  1641                           	psect	text8
  1642  0026E2                     __ptext8:
  1643                           	callstack 0
  1644  0026E2                     _InitLCD:
  1645                           	callstack 24
  1646  0026E2                     
  1647                           ;./LCD.h: 109:   TRISEbits.RE1 = 0;
  1648  0026E2  9296               	bcf	150,1,c	;volatile
  1649                           
  1650                           ;./LCD.h: 110:   TRISEbits.RE2 = 0;
  1651  0026E4  9496               	bcf	150,2,c	;volatile
  1652  0026E6                     
  1653                           ;./LCD.h: 111:   TRISD = 0;
  1654  0026E6  0E00               	movlw	0
  1655  0026E8  6E95               	movwf	149,c	;volatile
  1656  0026EA                     
  1657                           ;./LCD.h: 113:   PORTEbits.RE1 = 0;
  1658  0026EA  9284               	bcf	132,1,c	;volatile
  1659  0026EC                     
  1660                           ;./LCD.h: 114:   PORTEbits.RE2 = 0;
  1661  0026EC  9484               	bcf	132,2,c	;volatile
  1662  0026EE                     
  1663                           ;./LCD.h: 115:   LCDCmd(0x38);
  1664  0026EE  0E38               	movlw	56
  1665  0026F0  ECC9  F013         	call	_LCDCmd
  1666  0026F4                     
  1667                           ;./LCD.h: 116:   LCDCmd(0x08);
  1668  0026F4  0E08               	movlw	8
  1669  0026F6  ECC9  F013         	call	_LCDCmd
  1670  0026FA                     
  1671                           ;./LCD.h: 117:   LCDCmd(0x0C);
  1672  0026FA  0E0C               	movlw	12
  1673  0026FC  ECC9  F013         	call	_LCDCmd
  1674  002700                     
  1675                           ;./LCD.h: 118:   LCDCmd(0x06);
  1676  002700  0E06               	movlw	6
  1677  002702  ECC9  F013         	call	_LCDCmd
  1678  002706                     
  1679                           ;./LCD.h: 119:   LCDCmd(0x01);
  1680  002706  0E01               	movlw	1
  1681  002708  ECC9  F013         	call	_LCDCmd
  1682  00270C                     
  1683                           ;./LCD.h: 120:   LCDCmd(0x80);
  1684  00270C  0E80               	movlw	128
  1685  00270E  ECC9  F013         	call	_LCDCmd
  1686  002712  0012               	return		;funcret
  1687  002714                     __end_of_InitLCD:
  1688                           	callstack 0
  1689                           
  1690 ;; *************** function _LCDCmd *****************
  1691 ;; Defined at:
  1692 ;;		line 48 in file "./LCD.h"
  1693 ;; Parameters:    Size  Location     Type
  1694 ;;  cmd             1    wreg     unsigned char 
  1695 ;; Auto vars:     Size  Location     Type
  1696 ;;  cmd             1    0[BANK0 ] unsigned char 
  1697 ;; Return value:  Size  Location     Type
  1698 ;;                  1    wreg      void 
  1699 ;; Registers used:
  1700 ;;		wreg
  1701 ;; Tracked objects:
  1702 ;;		On entry : 0/0
  1703 ;;		On exit  : 0/0
  1704 ;;		Unchanged: 0/0
  1705 ;; Data sizes:     COMRAM   BANK0   BANK1   BANK2   BANK3   BANK4   BANK5   BANK6   BANK7   BANK8   BANK9  BANK10  BANK1
      +1  BANK12  BANK13  BANK14  BANK15
  1706 ;;      Params:         0       0       0       0       0       0       0       0       0       0       0       0       
      +0       0       0       0       0
  1707 ;;      Locals:         0       1       0       0       0       0       0       0       0       0       0       0       
      +0       0       0       0       0
  1708 ;;      Temps:          0       0       0       0       0       0       0       0       0       0       0       0       
      +0       0       0       0       0
  1709 ;;      Totals:         0       1       0       0       0       0       0       0       0       0       0       0       
      +0       0       0       0       0
  1710 ;;Total ram usage:        1 bytes
  1711 ;; Hardware stack levels used:    1
  1712 ;; Hardware stack levels required when called:    5
  1713 ;; This function calls:
  1714 ;;		Nothing
  1715 ;; This function is called by:
  1716 ;;		_LCDGoto
  1717 ;;		_InitLCD
  1718 ;;		_LCDAddSpecialCharacter
  1719 ;; This function uses a non-reentrant model
  1720 ;;
  1721                           
  1722                           	psect	text9
  1723  002792                     __ptext9:
  1724                           	callstack 0
  1725  002792                     _LCDCmd:
  1726                           	callstack 23
  1727                           
  1728                           ;incstack = 0
  1729                           ;LCDCmd@cmd stored from wreg
  1730  002792  0100               	movlb	0	; () banked
  1731  002794  6FC8               	movwf	LCDCmd@cmd& (0+255),b
  1732  002796                     
  1733                           ;./LCD.h: 49:   PORTEbits.RE1 = 0;
  1734  002796  9284               	bcf	132,1,c	;volatile
  1735                           
  1736                           ;./LCD.h: 50:   PORTEbits.RE2 = 0;
  1737  002798  9484               	bcf	132,2,c	;volatile
  1738  00279A                     
  1739                           ;./LCD.h: 51:   PORTD = cmd;
  1740  00279A  C0C8  FF83         	movff	LCDCmd@cmd,3971	;volatile
  1741  00279E                     
  1742                           ;./LCD.h: 52:   PORTEbits.RE1 = 1;
  1743  00279E  8284               	bsf	132,1,c	;volatile
  1744  0027A0                     
  1745                           ;./LCD.h: 54:   PORTEbits.RE1 = 0;
  1746  0027A0  9284               	bcf	132,1,c	;volatile
  1747  0027A2  0012               	return		;funcret
  1748  0027A4                     __end_of_LCDCmd:
  1749                           	callstack 0
  1750                           
  1751 ;; *************** function _FNC *****************
  1752 ;; Defined at:
  1753 ;;		line 462 in file "newmain.c"
  1754 ;; Parameters:    Size  Location     Type
  1755 ;;		None
  1756 ;; Auto vars:     Size  Location     Type
  1757 ;;		None
  1758 ;; Return value:  Size  Location     Type
  1759 ;;                  1    wreg      void 
  1760 ;; Registers used:
  1761 ;;		wreg, fsr2l, fsr2h, status,2, status,0, tblptrl, tblptrh, tblptru, cstack
  1762 ;; Tracked objects:
  1763 ;;		On entry : 0/0
  1764 ;;		On exit  : 0/0
  1765 ;;		Unchanged: 0/0
  1766 ;; Data sizes:     COMRAM   BANK0   BANK1   BANK2   BANK3   BANK4   BANK5   BANK6   BANK7   BANK8   BANK9  BANK10  BANK1
      +1  BANK12  BANK13  BANK14  BANK15
  1767 ;;      Params:         0       0       0       0       0       0       0       0       0       0       0       0       
      +0       0       0       0       0
  1768 ;;      Locals:         0       0       0       0       0       0       0       0       0       0       0       0       
      +0       0       0       0       0
  1769 ;;      Temps:          8       0       0       0       0       0       0       0       0       0       0       0       
      +0       0       0       0       0
  1770 ;;      Totals:         8       0       0       0       0       0       0       0       0       0       0       0       
      +0       0       0       0       0
  1771 ;;Total ram usage:        8 bytes
  1772 ;; Hardware stack levels used:    1
  1773 ;; Hardware stack levels required when called:    4
  1774 ;; This function calls:
  1775 ;;		_blink
  1776 ;;		_gamepadPressed
  1777 ;;		_moveFrisbee
  1778 ;;		_switchSelectedPlayer
  1779 ;;		_throwFrisbee
  1780 ;; This function is called by:
  1781 ;;		Interrupt level 2
  1782 ;; This function uses a non-reentrant model
  1783 ;;
  1784                           
  1785                           	psect	intcode
  1786  000008                     __pintcode:
  1787                           	callstack 0
  1788  000008                     _FNC:
  1789                           	callstack 23
  1790                           
  1791                           ;incstack = 0
  1792  000008  8279               	bsf	int$flags,1,c	;set compiler interrupt flag (level 2)
  1793  00000A  EDB1  F00D         	call	int_func,f	;refresh shadow registers
  1794                           
  1795                           	psect	intcode_body
  1796  001B62                     __pintcode_body:
  1797                           	callstack 23
  1798  001B62                     int_func:
  1799                           	callstack 23
  1800  001B62  0006               	pop		; remove dummy address from shadow register refresh
  1801  001B64  CFD9 F03A          	movff	fsr2l,??_FNC+2
  1802  001B68  CFDA F03B          	movff	fsr2h,??_FNC+3
  1803  001B6C  CFF6 F03C          	movff	tblptrl,??_FNC+4
  1804  001B70  CFF7 F03D          	movff	tblptrh,??_FNC+5
  1805  001B74  CFF8 F03E          	movff	tblptru,??_FNC+6
  1806  001B78  CFF5 F03F          	movff	tablat,??_FNC+7
  1807  001B7C                     
  1808                           ;newmain.c: 466:     if (TMR0IF) {
  1809  001B7C  A4F2               	btfss	4082,2,c	;volatile
  1810  001B7E  EFC3  F00D         	goto	i2u164_41
  1811  001B82  EFC5  F00D         	goto	i2u164_40
  1812  001B86                     i2u164_41:
  1813  001B86  EFD5  F00D         	goto	i2l2388
  1814  001B8A                     i2u164_40:
  1815  001B8A                     
  1816                           ;newmain.c: 467:         TMR0IF = 0;
  1817  001B8A  94F2               	bcf	4082,2,c	;volatile
  1818  001B8C                     
  1819                           ;newmain.c: 468:         if(gameState.game_mode == 0) {
  1820  001B8C  505A               	movf	(_gameState+26)^0,w,c
  1821  001B8E  105B               	iorwf	(_gameState+27)^0,w,c
  1822  001B90  A4D8               	btfss	status,2,c
  1823  001B92  EFCD  F00D         	goto	i2u165_41
  1824  001B96  EFCF  F00D         	goto	i2u165_40
  1825  001B9A                     i2u165_41:
  1826  001B9A  EFD1  F00D         	goto	i2l2386
  1827  001B9E                     i2u165_40:
  1828  001B9E                     
  1829                           ;newmain.c: 469:             moveFrisbee();
  1830  001B9E  EC9C  F00B         	call	_moveFrisbee	;wreg free
  1831  001BA2                     i2l2386:
  1832                           
  1833                           ;newmain.c: 471:         TMR0 = 59625;
  1834  001BA2  0EE8               	movlw	232
  1835  001BA4  6ED7               	movwf	215,c	;volatile
  1836  001BA6  0EE9               	movlw	233
  1837  001BA8  6ED6               	movwf	214,c	;volatile
  1838  001BAA                     i2l2388:
  1839                           
  1840                           ;newmain.c: 474:     if (PIR1bits.TMR1IF) {
  1841  001BAA  A09E               	btfss	158,0,c	;volatile
  1842  001BAC  EFDA  F00D         	goto	i2u166_41
  1843  001BB0  EFDC  F00D         	goto	i2u166_40
  1844  001BB4                     i2u166_41:
  1845  001BB4  EFDD  F00D         	goto	i2l312
  1846  001BB8                     i2u166_40:
  1847  001BB8                     
  1848                           ;newmain.c: 475:         PIR1bits.TMR1IF = 0;
  1849  001BB8  909E               	bcf	158,0,c	;volatile
  1850  001BBA                     i2l312:
  1851                           
  1852                           ;newmain.c: 478:     if (PIR1bits.TMR2IF) {
  1853  001BBA  A29E               	btfss	158,1,c	;volatile
  1854  001BBC  EFE2  F00D         	goto	i2u167_41
  1855  001BC0  EFE4  F00D         	goto	i2u167_40
  1856  001BC4                     i2u167_41:
  1857  001BC4  EFF2  F00D         	goto	i2l2400
  1858  001BC8                     i2u167_40:
  1859  001BC8                     
  1860                           ;newmain.c: 479:         PIR1bits.TMR2IF = 0;
  1861  001BC8  929E               	bcf	158,1,c	;volatile
  1862  001BCA                     
  1863                           ;newmain.c: 480:         if (gameState.game_mode == 0){
  1864  001BCA  505A               	movf	(_gameState+26)^0,w,c
  1865  001BCC  105B               	iorwf	(_gameState+27)^0,w,c
  1866  001BCE  A4D8               	btfss	status,2,c
  1867  001BD0  EFEC  F00D         	goto	i2u168_41
  1868  001BD4  EFEE  F00D         	goto	i2u168_40
  1869  001BD8                     i2u168_41:
  1870  001BD8  EFF0  F00D         	goto	i2l2398
  1871  001BDC                     i2u168_40:
  1872  001BDC                     
  1873                           ;newmain.c: 481:             blink();
  1874  001BDC  ECEE  F012         	call	_blink	;wreg free
  1875  001BE0                     i2l2398:
  1876                           
  1877                           ;newmain.c: 483:         TMR2 = 159;
  1878  001BE0  0E9F               	movlw	159
  1879  001BE2  6ECC               	movwf	204,c	;volatile
  1880  001BE4                     i2l2400:
  1881                           
  1882                           ;newmain.c: 487:     if(INTCONbits.INT0IF) {
  1883  001BE4  A2F2               	btfss	242,1,c	;volatile
  1884  001BE6  EFF7  F00D         	goto	i2u169_41
  1885  001BEA  EFF9  F00D         	goto	i2u169_40
  1886  001BEE                     i2u169_41:
  1887  001BEE  EF10  F00E         	goto	i2l2410
  1888  001BF2                     i2u169_40:
  1889  001BF2                     
  1890                           ;newmain.c: 488:         _delay((unsigned long)((50)*(40000000L/4000.0)));
  1891  001BF2  0E03               	movlw	3
  1892  001BF4  6E39               	movwf	(??_FNC+1)^0,c
  1893  001BF6  0E8A               	movlw	138
  1894  001BF8  6E38               	movwf	??_FNC^0,c
  1895  001BFA  0E56               	movlw	86
  1896  001BFC                     i2u181_47:
  1897  001BFC  2EE8               	decfsz	wreg,f,c
  1898  001BFE  D7FE               	bra	i2u181_47
  1899  001C00  2E38               	decfsz	??_FNC^0,f,c
  1900  001C02  D7FC               	bra	i2u181_47
  1901  001C04  2E39               	decfsz	(??_FNC+1)^0,f,c
  1902  001C06  D7FA               	bra	i2u181_47
  1903  001C08                     
  1904                           ;newmain.c: 489:         INTCONbits.INT0IF = 0;
  1905  001C08  92F2               	bcf	242,1,c	;volatile
  1906  001C0A                     
  1907                           ;newmain.c: 490:         if(frisbee_held){
  1908  001C0A  506F               	movf	_frisbee_held^0,w,c
  1909  001C0C  1070               	iorwf	(_frisbee_held+1)^0,w,c
  1910  001C0E  B4D8               	btfsc	status,2,c
  1911  001C10  EF0C  F00E         	goto	i2u170_41
  1912  001C14  EF0E  F00E         	goto	i2u170_40
  1913  001C18                     i2u170_41:
  1914  001C18  EF10  F00E         	goto	i2l2410
  1915  001C1C                     i2u170_40:
  1916  001C1C                     
  1917                           ;newmain.c: 491:             throwFrisbee();
  1918  001C1C  EC49  F00E         	call	_throwFrisbee	;wreg free
  1919  001C20                     i2l2410:
  1920                           
  1921                           ;newmain.c: 496:     if(INTCON3bits.INT1IF) {
  1922  001C20  A0F0               	btfss	240,0,c	;volatile
  1923  001C22  EF15  F00E         	goto	i2u171_41
  1924  001C26  EF17  F00E         	goto	i2u171_40
  1925  001C2A                     i2u171_41:
  1926  001C2A  EF30  F00E         	goto	i2l2422
  1927  001C2E                     i2u171_40:
  1928  001C2E                     
  1929                           ;newmain.c: 497:         _delay((unsigned long)((50)*(40000000L/4000.0)));
  1930  001C2E  0E03               	movlw	3
  1931  001C30  6E39               	movwf	(??_FNC+1)^0,c
  1932  001C32  0E8A               	movlw	138
  1933  001C34  6E38               	movwf	??_FNC^0,c
  1934  001C36  0E56               	movlw	86
  1935  001C38                     i2u182_47:
  1936  001C38  2EE8               	decfsz	wreg,f,c
  1937  001C3A  D7FE               	bra	i2u182_47
  1938  001C3C  2E38               	decfsz	??_FNC^0,f,c
  1939  001C3E  D7FC               	bra	i2u182_47
  1940  001C40  2E39               	decfsz	(??_FNC+1)^0,f,c
  1941  001C42  D7FA               	bra	i2u182_47
  1942  001C44                     
  1943                           ;newmain.c: 498:         INTCON3bits.INT1IF = 0;
  1944  001C44  90F0               	bcf	240,0,c	;volatile
  1945  001C46                     
  1946                           ;newmain.c: 499:         if(frisbee_held){
  1947  001C46  506F               	movf	_frisbee_held^0,w,c
  1948  001C48  1070               	iorwf	(_frisbee_held+1)^0,w,c
  1949  001C4A  B4D8               	btfsc	status,2,c
  1950  001C4C  EF2A  F00E         	goto	i2u172_41
  1951  001C50  EF2C  F00E         	goto	i2u172_40
  1952  001C54                     i2u172_41:
  1953  001C54  EF2E  F00E         	goto	i2l2420
  1954  001C58                     i2u172_40:
  1955  001C58  EF3B  F00E         	goto	i2l319
  1956  001C5C                     i2l2420:
  1957                           
  1958                           ;newmain.c: 502:         switchSelectedPlayer();
  1959  001C5C  ECE7  F00C         	call	_switchSelectedPlayer	;wreg free
  1960  001C60                     i2l2422:
  1961                           
  1962                           ;newmain.c: 505:     if(INTCONbits.RBIF) {
  1963  001C60  A0F2               	btfss	242,0,c	;volatile
  1964  001C62  EF35  F00E         	goto	i2u173_41
  1965  001C66  EF37  F00E         	goto	i2u173_40
  1966  001C6A                     i2u173_41:
  1967  001C6A  EF3B  F00E         	goto	i2l319
  1968  001C6E                     i2u173_40:
  1969  001C6E                     
  1970                           ;newmain.c: 506:         PORTB;;
  1971  001C6E  5081               	movf	129,w,c	;volatile
  1972  001C70                     
  1973                           ;newmain.c: 507:         INTCONbits.RBIF = 0;
  1974  001C70  90F2               	bcf	242,0,c	;volatile
  1975  001C72                     
  1976                           ;newmain.c: 508:         gamepadPressed();
  1977  001C72  EC02  F008         	call	_gamepadPressed	;wreg free
  1978  001C76                     i2l319:
  1979  001C76  C03F  FFF5         	movff	??_FNC+7,tablat
  1980  001C7A  C03E  FFF8         	movff	??_FNC+6,tblptru
  1981  001C7E  C03D  FFF7         	movff	??_FNC+5,tblptrh
  1982  001C82  C03C  FFF6         	movff	??_FNC+4,tblptrl
  1983  001C86  C03B  FFDA         	movff	??_FNC+3,fsr2h
  1984  001C8A  C03A  FFD9         	movff	??_FNC+2,fsr2l
  1985  001C8E  9279               	bcf	int$flags,1,c	;clear compiler interrupt flag (level 2)
  1986  001C90  0011               	retfie		f
  1987  001C92                     __end_of_FNC:
  1988                           	callstack 0
  1989                           
  1990 ;; *************** function _throwFrisbee *****************
  1991 ;; Defined at:
  1992 ;;		line 364 in file "newmain.c"
  1993 ;; Parameters:    Size  Location     Type
  1994 ;;		None
  1995 ;; Auto vars:     Size  Location     Type
  1996 ;;  selected_pla    2   53[COMRAM] int 
  1997 ;;  selected_pla    2   51[COMRAM] int 
  1998 ;;  selected_pla    2   49[COMRAM] int 
  1999 ;; Return value:  Size  Location     Type
  2000 ;;                  1    wreg      void 
  2001 ;; Registers used:
  2002 ;;		wreg, fsr2l, fsr2h, status,2, status,0, tblptrl, tblptrh, tblptru, cstack
  2003 ;; Tracked objects:
  2004 ;;		On entry : 0/0
  2005 ;;		On exit  : 0/0
  2006 ;;		Unchanged: 0/0
  2007 ;; Data sizes:     COMRAM   BANK0   BANK1   BANK2   BANK3   BANK4   BANK5   BANK6   BANK7   BANK8   BANK9  BANK10  BANK1
      +1  BANK12  BANK13  BANK14  BANK15
  2008 ;;      Params:         0       0       0       0       0       0       0       0       0       0       0       0       
      +0       0       0       0       0
  2009 ;;      Locals:         8       0       0       0       0       0       0       0       0       0       0       0       
      +0       0       0       0       0
  2010 ;;      Temps:          2       0       0       0       0       0       0       0       0       0       0       0       
      +0       0       0       0       0
  2011 ;;      Totals:        10       0       0       0       0       0       0       0       0       0       0       0       
      +0       0       0       0       0
  2012 ;;Total ram usage:       10 bytes
  2013 ;; Hardware stack levels used:    1
  2014 ;; Hardware stack levels required when called:    3
  2015 ;; This function calls:
  2016 ;;		_LCDStr
  2017 ;;		_compute_frisbee_target_and_route
  2018 ;;		i2_LCDDat
  2019 ;;		i2_LCDGoto
  2020 ;; This function is called by:
  2021 ;;		_FNC
  2022 ;; This function uses a non-reentrant model
  2023 ;;
  2024                           
  2025                           	psect	text11
  2026  001C92                     __ptext11:
  2027                           	callstack 0
  2028  001C92                     _throwFrisbee:
  2029                           	callstack 23
  2030  001C92                     
  2031                           ;newmain.c: 365:     frisbee_held = 0;
  2032  001C92  0E00               	movlw	0
  2033  001C94  6E70               	movwf	(_frisbee_held+1)^0,c
  2034  001C96  0E00               	movlw	0
  2035  001C98  6E6F               	movwf	_frisbee_held^0,c
  2036  001C9A                     
  2037                           ;newmain.c: 366:     int selected_player, selected_player_x, selected_player_y;;newmain.
      +                          c: 368:     selected_player = gameState.selected_player;
  2038  001C9A  C054  F036         	movff	_gameState+20,throwFrisbee@selected_player
  2039  001C9E  C055  F037         	movff	_gameState+21,throwFrisbee@selected_player+1
  2040  001CA2                     
  2041                           ;newmain.c: 369:     selected_player_x = gameState.player_positions[selected_player].x;
  2042  001CA2  0E40               	movlw	low _gameState
  2043  001CA4  6E2E               	movwf	??_throwFrisbee^0,c
  2044  001CA6  0E00               	movlw	high _gameState
  2045  001CA8  6E2F               	movwf	(??_throwFrisbee+1)^0,c
  2046  001CAA  90D8               	bcf	status,0,c
  2047  001CAC  3436               	rlcf	throwFrisbee@selected_player^0,w,c
  2048  001CAE  6ED9               	movwf	fsr2l,c
  2049  001CB0  3437               	rlcf	(throwFrisbee@selected_player+1)^0,w,c
  2050  001CB2  6EDA               	movwf	fsr2h,c
  2051  001CB4  90D8               	bcf	status,0,c
  2052  001CB6  36D9               	rlcf	fsr2l,f,c
  2053  001CB8  36DA               	rlcf	fsr2h,f,c
  2054  001CBA  502E               	movf	??_throwFrisbee^0,w,c
  2055  001CBC  26D9               	addwf	fsr2l,f,c
  2056  001CBE  502F               	movf	(??_throwFrisbee+1)^0,w,c
  2057  001CC0  22DA               	addwfc	fsr2h,f,c
  2058  001CC2  CFDE F032          	movff	postinc2,throwFrisbee@selected_player_x
  2059  001CC6  CFDD F033          	movff	postdec2,throwFrisbee@selected_player_x+1
  2060  001CCA                     
  2061                           ;newmain.c: 370:     selected_player_y = gameState.player_positions[selected_player].y;
  2062  001CCA  0E40               	movlw	low _gameState
  2063  001CCC  6E2E               	movwf	??_throwFrisbee^0,c
  2064  001CCE  0E00               	movlw	high _gameState
  2065  001CD0  6E2F               	movwf	(??_throwFrisbee+1)^0,c
  2066  001CD2  0E02               	movlw	2
  2067  001CD4  262E               	addwf	??_throwFrisbee^0,f,c
  2068  001CD6  0E00               	movlw	0
  2069  001CD8  222F               	addwfc	(??_throwFrisbee+1)^0,f,c
  2070  001CDA  90D8               	bcf	status,0,c
  2071  001CDC  3436               	rlcf	throwFrisbee@selected_player^0,w,c
  2072  001CDE  6ED9               	movwf	fsr2l,c
  2073  001CE0  3437               	rlcf	(throwFrisbee@selected_player+1)^0,w,c
  2074  001CE2  6EDA               	movwf	fsr2h,c
  2075  001CE4  90D8               	bcf	status,0,c
  2076  001CE6  36D9               	rlcf	fsr2l,f,c
  2077  001CE8  36DA               	rlcf	fsr2h,f,c
  2078  001CEA  502E               	movf	??_throwFrisbee^0,w,c
  2079  001CEC  26D9               	addwf	fsr2l,f,c
  2080  001CEE  502F               	movf	(??_throwFrisbee+1)^0,w,c
  2081  001CF0  22DA               	addwfc	fsr2h,f,c
  2082  001CF2  CFDE F034          	movff	postinc2,throwFrisbee@selected_player_y
  2083  001CF6  CFDD F035          	movff	postdec2,throwFrisbee@selected_player_y+1
  2084  001CFA                     
  2085                           ;newmain.c: 373:     LCDGoto(selected_player_x,selected_player_y);
  2086  001CFA  C034  F002         	movff	throwFrisbee@selected_player_y,i2LCDGoto@p_1
  2087  001CFE  5032               	movf	throwFrisbee@selected_player_x^0,w,c
  2088  001D00  EC8A  F011         	call	i2_LCDGoto
  2089  001D04                     
  2090                           ;newmain.c: 374:     LCDStr(" ");
  2091  001D04  0E01               	movlw	low STR_1
  2092  001D06  6E02               	movwf	LCDStr@str^0,c
  2093  001D08  0E10               	movlw	high STR_1
  2094  001D0A  6E03               	movwf	(LCDStr@str+1)^0,c
  2095  001D0C  ECD3  F010         	call	_LCDStr	;wreg free
  2096  001D10                     
  2097                           ;newmain.c: 375:     LCDGoto(selected_player_x,selected_player_y);
  2098  001D10  C034  F002         	movff	throwFrisbee@selected_player_y,i2LCDGoto@p_1
  2099  001D14  5032               	movf	throwFrisbee@selected_player_x^0,w,c
  2100  001D16  EC8A  F011         	call	i2_LCDGoto
  2101  001D1A                     
  2102                           ;newmain.c: 376:     LCDDat(selected_player < 2 ? 0:2);
  2103  001D1A  BE37               	btfsc	(throwFrisbee@selected_player+1)^0,7,c
  2104  001D1C  EF99  F00E         	goto	i2u149_41
  2105  001D20  5037               	movf	(throwFrisbee@selected_player+1)^0,w,c
  2106  001D22  E109               	bnz	i2u149_40
  2107  001D24  0E02               	movlw	2
  2108  001D26  5C36               	subwf	throwFrisbee@selected_player^0,w,c
  2109  001D28  A0D8               	btfss	status,0,c
  2110  001D2A  EF99  F00E         	goto	i2u149_41
  2111  001D2E  EF9B  F00E         	goto	i2u149_40
  2112  001D32                     i2u149_41:
  2113  001D32  EFA1  F00E         	goto	i2l2288
  2114  001D36                     i2u149_40:
  2115  001D36  0E00               	movlw	0
  2116  001D38  6E31               	movwf	(_throwFrisbee$864+1)^0,c
  2117  001D3A  0E02               	movlw	2
  2118  001D3C  6E30               	movwf	_throwFrisbee$864^0,c
  2119  001D3E  EFA5  F00E         	goto	i2l2290
  2120  001D42                     i2l2288:
  2121  001D42  0E00               	movlw	0
  2122  001D44  6E31               	movwf	(_throwFrisbee$864+1)^0,c
  2123  001D46  0E00               	movlw	0
  2124  001D48  6E30               	movwf	_throwFrisbee$864^0,c
  2125  001D4A                     i2l2290:
  2126  001D4A  5030               	movf	_throwFrisbee$864^0,w,c
  2127  001D4C  ECD2  F013         	call	i2_LCDDat
  2128  001D50                     
  2129                           ;newmain.c: 378:     compute_frisbee_target_and_route(gameState.frisbee_position.x,gameS
      +                          tate.frisbee_position.y);
  2130  001D50  C050  F012         	movff	_gameState+16,compute_frisbee_target_and_route@current_fisbee_x_position
  2131  001D54  C051  F013         	movff	_gameState+17,compute_frisbee_target_and_route@current_fisbee_x_position+1
  2132  001D58  C052  F014         	movff	_gameState+18,compute_frisbee_target_and_route@current_fisbee_y_position
  2133  001D5C  C053  F015         	movff	_gameState+19,compute_frisbee_target_and_route@current_fisbee_y_position+1
  2134  001D60  ECF4  F009         	call	_compute_frisbee_target_and_route	;wreg free
  2135  001D64                     
  2136                           ;newmain.c: 380:     LCDGoto(target_x,target_y);
  2137  001D64  C071  F002         	movff	_target_y,i2LCDGoto@p_1
  2138  001D68  5073               	movf	_target_x^0,w,c
  2139  001D6A  EC8A  F011         	call	i2_LCDGoto
  2140  001D6E                     
  2141                           ;newmain.c: 381:     LCDDat(7);
  2142  001D6E  0E07               	movlw	7
  2143  001D70  ECD2  F013         	call	i2_LCDDat
  2144  001D74                     
  2145                           ;newmain.c: 382:     gameState.game_mode = 0;
  2146  001D74  0E00               	movlw	0
  2147  001D76  6E5B               	movwf	(_gameState+27)^0,c
  2148  001D78  0E00               	movlw	0
  2149  001D7A  6E5A               	movwf	(_gameState+26)^0,c
  2150  001D7C                     
  2151                           ;newmain.c: 383:     T0CONbits.TMR0ON = 1;
  2152  001D7C  8ED5               	bsf	213,7,c	;volatile
  2153  001D7E  0012               	return		;funcret
  2154  001D80                     __end_of_throwFrisbee:
  2155                           	callstack 0
  2156                           
  2157 ;; *************** function _compute_frisbee_target_and_route *****************
  2158 ;; Defined at:
  2159 ;;		line 118 in file "./the3.h"
  2160 ;; Parameters:    Size  Location     Type
  2161 ;;  current_fisb    2   17[COMRAM] unsigned short 
  2162 ;;  current_fisb    2   19[COMRAM] unsigned short 
  2163 ;; Auto vars:     Size  Location     Type
  2164 ;;  i               2   31[COMRAM] unsigned short 
  2165 ;;  i               2   29[COMRAM] unsigned short 
  2166 ;;  i               2   25[COMRAM] unsigned short 
  2167 ;;  i               2   23[COMRAM] unsigned short 
  2168 ;;  i               2   33[COMRAM] unsigned short 
  2169 ;;  i               2   27[COMRAM] unsigned short 
  2170 ;;  y_step_size     2   43[COMRAM] unsigned short 
  2171 ;;  x_step_size     2   41[COMRAM] unsigned short 
  2172 ;;  y               2   39[COMRAM] unsigned short 
  2173 ;;  x               2   37[COMRAM] unsigned short 
  2174 ;;  number_of_st    2   35[COMRAM] unsigned short 
  2175 ;; Return value:  Size  Location     Type
  2176 ;;                  2   17[COMRAM] unsigned short 
  2177 ;; Registers used:
  2178 ;;		wreg, fsr2l, fsr2h, status,2, status,0, cstack
  2179 ;; Tracked objects:
  2180 ;;		On entry : 0/0
  2181 ;;		On exit  : 0/0
  2182 ;;		Unchanged: 0/0
  2183 ;; Data sizes:     COMRAM   BANK0   BANK1   BANK2   BANK3   BANK4   BANK5   BANK6   BANK7   BANK8   BANK9  BANK10  BANK1
      +1  BANK12  BANK13  BANK14  BANK15
  2184 ;;      Params:         4       0       0       0       0       0       0       0       0       0       0       0       
      +0       0       0       0       0
  2185 ;;      Locals:        22       0       0       0       0       0       0       0       0       0       0       0       
      +0       0       0       0       0
  2186 ;;      Temps:          2       0       0       0       0       0       0       0       0       0       0       0       
      +0       0       0       0       0
  2187 ;;      Totals:        28       0       0       0       0       0       0       0       0       0       0       0       
      +0       0       0       0       0
  2188 ;;Total ram usage:       28 bytes
  2189 ;; Hardware stack levels used:    1
  2190 ;; Hardware stack levels required when called:    2
  2191 ;; This function calls:
  2192 ;;		_random_generator
  2193 ;; This function is called by:
  2194 ;;		_throwFrisbee
  2195 ;; This function uses a non-reentrant model
  2196 ;;
  2197                           
  2198                           	psect	text12
  2199  0013E8                     __ptext12:
  2200                           	callstack 0
  2201  0013E8                     _compute_frisbee_target_and_route:
  2202                           	callstack 23
  2203  0013E8                     i2l133:
  2204  0013E8                     
  2205                           ;./the3.h: 132:         target_x = random_generator(16) + 1;
  2206  0013E8  0E00               	movlw	0
  2207  0013EA  6E07               	movwf	(random_generator@modulo+1)^0,c
  2208  0013EC  0E10               	movlw	16
  2209  0013EE  6E06               	movwf	random_generator@modulo^0,c
  2210  0013F0  ECC5  F012         	call	_random_generator	;wreg free
  2211  0013F4  0E01               	movlw	1
  2212  0013F6  2406               	addwf	?_random_generator^0,w,c
  2213  0013F8  6E73               	movwf	_target_x^0,c
  2214  0013FA  0E00               	movlw	0
  2215  0013FC  2007               	addwfc	(?_random_generator+1)^0,w,c
  2216  0013FE  6E74               	movwf	(_target_x+1)^0,c
  2217                           
  2218                           ;./the3.h: 133:         target_y = random_generator(4) + 1;
  2219  001400  0E00               	movlw	0
  2220  001402  6E07               	movwf	(random_generator@modulo+1)^0,c
  2221  001404  0E04               	movlw	4
  2222  001406  6E06               	movwf	random_generator@modulo^0,c
  2223  001408  ECC5  F012         	call	_random_generator	;wreg free
  2224  00140C  0E01               	movlw	1
  2225  00140E  2406               	addwf	?_random_generator^0,w,c
  2226  001410  6E71               	movwf	_target_y^0,c
  2227  001412  0E00               	movlw	0
  2228  001414  2007               	addwfc	(?_random_generator+1)^0,w,c
  2229  001416  6E72               	movwf	(_target_y+1)^0,c
  2230  001418                     
  2231                           ;./the3.h: 136:         if (target_x < current_fisbee_x_position)
  2232  001418  5012               	movf	compute_frisbee_target_and_route@current_fisbee_x_position^0,w,c
  2233  00141A  5C73               	subwf	_target_x^0,w,c
  2234  00141C  5013               	movf	(compute_frisbee_target_and_route@current_fisbee_x_position+1)^0,w,c
  2235  00141E  5874               	subwfb	(_target_x+1)^0,w,c
  2236  001420  B0D8               	btfsc	status,0,c
  2237  001422  EF15  F00A         	goto	i2u101_41
  2238  001426  EF17  F00A         	goto	i2u101_40
  2239  00142A                     i2u101_41:
  2240  00142A  EF1F  F00A         	goto	i2l1892
  2241  00142E                     i2u101_40:
  2242  00142E                     
  2243                           ;./the3.h: 137:             x_step_size = current_fisbee_x_position - target_x;
  2244  00142E  5073               	movf	_target_x^0,w,c
  2245  001430  5C12               	subwf	compute_frisbee_target_and_route@current_fisbee_x_position^0,w,c
  2246  001432  6E2A               	movwf	compute_frisbee_target_and_route@x_step_size^0,c
  2247  001434  5074               	movf	(_target_x+1)^0,w,c
  2248  001436  5813               	subwfb	(compute_frisbee_target_and_route@current_fisbee_x_position+1)^0,w,c
  2249  001438  6E2B               	movwf	(compute_frisbee_target_and_route@x_step_size+1)^0,c
  2250  00143A  EF25  F00A         	goto	i2l135
  2251  00143E                     i2l1892:
  2252                           
  2253                           ;./the3.h: 139:             x_step_size = target_x - current_fisbee_x_position;
  2254  00143E  5012               	movf	compute_frisbee_target_and_route@current_fisbee_x_position^0,w,c
  2255  001440  5C73               	subwf	_target_x^0,w,c
  2256  001442  6E2A               	movwf	compute_frisbee_target_and_route@x_step_size^0,c
  2257  001444  5013               	movf	(compute_frisbee_target_and_route@current_fisbee_x_position+1)^0,w,c
  2258  001446  5874               	subwfb	(_target_x+1)^0,w,c
  2259  001448  6E2B               	movwf	(compute_frisbee_target_and_route@x_step_size+1)^0,c
  2260  00144A                     i2l135:
  2261                           
  2262                           ;./the3.h: 142:         if (target_y < current_fisbee_y_position)
  2263  00144A  5014               	movf	compute_frisbee_target_and_route@current_fisbee_y_position^0,w,c
  2264  00144C  5C71               	subwf	_target_y^0,w,c
  2265  00144E  5015               	movf	(compute_frisbee_target_and_route@current_fisbee_y_position+1)^0,w,c
  2266  001450  5872               	subwfb	(_target_y+1)^0,w,c
  2267  001452  B0D8               	btfsc	status,0,c
  2268  001454  EF2E  F00A         	goto	i2u102_41
  2269  001458  EF30  F00A         	goto	i2u102_40
  2270  00145C                     i2u102_41:
  2271  00145C  EF38  F00A         	goto	i2l1896
  2272  001460                     i2u102_40:
  2273  001460                     
  2274                           ;./the3.h: 143:             y_step_size = current_fisbee_y_position - target_y;
  2275  001460  5071               	movf	_target_y^0,w,c
  2276  001462  5C14               	subwf	compute_frisbee_target_and_route@current_fisbee_y_position^0,w,c
  2277  001464  6E2C               	movwf	compute_frisbee_target_and_route@y_step_size^0,c
  2278  001466  5072               	movf	(_target_y+1)^0,w,c
  2279  001468  5815               	subwfb	(compute_frisbee_target_and_route@current_fisbee_y_position+1)^0,w,c
  2280  00146A  6E2D               	movwf	(compute_frisbee_target_and_route@y_step_size+1)^0,c
  2281  00146C  EF3E  F00A         	goto	i2l137
  2282  001470                     i2l1896:
  2283                           
  2284                           ;./the3.h: 145:             y_step_size = target_y - current_fisbee_y_position;
  2285  001470  5014               	movf	compute_frisbee_target_and_route@current_fisbee_y_position^0,w,c
  2286  001472  5C71               	subwf	_target_y^0,w,c
  2287  001474  6E2C               	movwf	compute_frisbee_target_and_route@y_step_size^0,c
  2288  001476  5015               	movf	(compute_frisbee_target_and_route@current_fisbee_y_position+1)^0,w,c
  2289  001478  5872               	subwfb	(_target_y+1)^0,w,c
  2290  00147A  6E2D               	movwf	(compute_frisbee_target_and_route@y_step_size+1)^0,c
  2291  00147C                     i2l137:
  2292                           
  2293                           ;./the3.h: 148:         if (x_step_size <= 2 && y_step_size <= 2)
  2294  00147C  502B               	movf	(compute_frisbee_target_and_route@x_step_size+1)^0,w,c
  2295  00147E  E107               	bnz	i2u103_41
  2296  001480  0E03               	movlw	3
  2297  001482  5C2A               	subwf	compute_frisbee_target_and_route@x_step_size^0,w,c
  2298  001484  B0D8               	btfsc	status,0,c
  2299  001486  EF47  F00A         	goto	i2u103_41
  2300  00148A  EF49  F00A         	goto	i2u103_40
  2301  00148E                     i2u103_41:
  2302  00148E  EF56  F00A         	goto	i2l1902
  2303  001492                     i2u103_40:
  2304  001492  502D               	movf	(compute_frisbee_target_and_route@y_step_size+1)^0,w,c
  2305  001494  E107               	bnz	i2u104_41
  2306  001496  0E03               	movlw	3
  2307  001498  5C2C               	subwf	compute_frisbee_target_and_route@y_step_size^0,w,c
  2308  00149A  B0D8               	btfsc	status,0,c
  2309  00149C  EF52  F00A         	goto	i2u104_41
  2310  0014A0  EF54  F00A         	goto	i2u104_40
  2311  0014A4                     i2u104_41:
  2312  0014A4  EF56  F00A         	goto	i2l1902
  2313  0014A8                     i2u104_40:
  2314  0014A8  EFF4  F009         	goto	i2l133
  2315  0014AC                     i2l1902:
  2316                           
  2317                           ;./the3.h: 152:         if (x_step_size > y_step_size)
  2318  0014AC  502A               	movf	compute_frisbee_target_and_route@x_step_size^0,w,c
  2319  0014AE  5C2C               	subwf	compute_frisbee_target_and_route@y_step_size^0,w,c
  2320  0014B0  502B               	movf	(compute_frisbee_target_and_route@x_step_size+1)^0,w,c
  2321  0014B2  582D               	subwfb	(compute_frisbee_target_and_route@y_step_size+1)^0,w,c
  2322  0014B4  B0D8               	btfsc	status,0,c
  2323  0014B6  EF5F  F00A         	goto	i2u105_41
  2324  0014BA  EF61  F00A         	goto	i2u105_40
  2325  0014BE                     i2u105_41:
  2326  0014BE  EF67  F00A         	goto	i2l140
  2327  0014C2                     i2u105_40:
  2328  0014C2                     
  2329                           ;./the3.h: 153:             number_of_steps = x_step_size;
  2330  0014C2  C02A  F024         	movff	compute_frisbee_target_and_route@x_step_size,compute_frisbee_target_and_route@num
      +                          ber_of_steps
  2331  0014C6  C02B  F025         	movff	compute_frisbee_target_and_route@x_step_size+1,compute_frisbee_target_and_route@n
      +                          umber_of_steps+1
  2332  0014CA  EF6B  F00A         	goto	i2l142
  2333  0014CE                     i2l140:
  2334                           
  2335                           ;./the3.h: 155:             number_of_steps = y_step_size;
  2336  0014CE  C02C  F024         	movff	compute_frisbee_target_and_route@y_step_size,compute_frisbee_target_and_route@num
      +                          ber_of_steps
  2337  0014D2  C02D  F025         	movff	compute_frisbee_target_and_route@y_step_size+1,compute_frisbee_target_and_route@n
      +                          umber_of_steps+1
  2338  0014D6                     i2l142:
  2339                           
  2340                           ;./the3.h: 168:     unsigned short x = current_fisbee_x_position;
  2341  0014D6  C012  F026         	movff	compute_frisbee_target_and_route@current_fisbee_x_position,compute_frisbee_target
      +                          _and_route@x
  2342  0014DA  C013  F027         	movff	compute_frisbee_target_and_route@current_fisbee_x_position+1,compute_frisbee_targ
      +                          et_and_route@x+1
  2343  0014DE                     
  2344                           ;./the3.h: 169:     if (target_x < current_fisbee_x_position) {
  2345  0014DE  5012               	movf	compute_frisbee_target_and_route@current_fisbee_x_position^0,w,c
  2346  0014E0  5C73               	subwf	_target_x^0,w,c
  2347  0014E2  5013               	movf	(compute_frisbee_target_and_route@current_fisbee_x_position+1)^0,w,c
  2348  0014E4  5874               	subwfb	(_target_x+1)^0,w,c
  2349  0014E6  B0D8               	btfsc	status,0,c
  2350  0014E8  EF78  F00A         	goto	i2u106_41
  2351  0014EC  EF7A  F00A         	goto	i2u106_40
  2352  0014F0                     i2u106_41:
  2353  0014F0  EFA9  F00A         	goto	i2l1918
  2354  0014F4                     i2u106_40:
  2355  0014F4                     
  2356                           ;./the3.h: 170:         for (unsigned short i = 0; i < x_step_size; i++) {
  2357  0014F4  0E00               	movlw	0
  2358  0014F6  6E19               	movwf	(compute_frisbee_target_and_route@i+1)^0,c
  2359  0014F8  0E00               	movlw	0
  2360  0014FA  6E18               	movwf	compute_frisbee_target_and_route@i^0,c
  2361  0014FC  EF9C  F00A         	goto	i2l1916
  2362  001500                     i2l1910:
  2363                           
  2364                           ;./the3.h: 171:             x = x - 1;
  2365  001500  0EFF               	movlw	255
  2366  001502  2426               	addwf	compute_frisbee_target_and_route@x^0,w,c
  2367  001504  6E26               	movwf	compute_frisbee_target_and_route@x^0,c
  2368  001506  0EFF               	movlw	255
  2369  001508  2027               	addwfc	(compute_frisbee_target_and_route@x+1)^0,w,c
  2370  00150A  6E27               	movwf	(compute_frisbee_target_and_route@x+1)^0,c
  2371  00150C                     
  2372                           ;./the3.h: 172:             frisbee_steps[i][0] = x;
  2373  00150C  0E00               	movlw	low _frisbee_steps
  2374  00150E  6E16               	movwf	??_compute_frisbee_target_and_route^0,c
  2375  001510  0E01               	movlw	high _frisbee_steps
  2376  001512  6E17               	movwf	(??_compute_frisbee_target_and_route+1)^0,c
  2377  001514  90D8               	bcf	status,0,c
  2378  001516  3418               	rlcf	compute_frisbee_target_and_route@i^0,w,c
  2379  001518  6ED9               	movwf	fsr2l,c
  2380  00151A  3419               	rlcf	(compute_frisbee_target_and_route@i+1)^0,w,c
  2381  00151C  6EDA               	movwf	fsr2h,c
  2382  00151E  90D8               	bcf	status,0,c
  2383  001520  36D9               	rlcf	fsr2l,f,c
  2384  001522  36DA               	rlcf	fsr2h,f,c
  2385  001524  5016               	movf	??_compute_frisbee_target_and_route^0,w,c
  2386  001526  26D9               	addwf	fsr2l,f,c
  2387  001528  5017               	movf	(??_compute_frisbee_target_and_route+1)^0,w,c
  2388  00152A  22DA               	addwfc	fsr2h,f,c
  2389  00152C  C026  FFDE         	movff	compute_frisbee_target_and_route@x,postinc2
  2390  001530  C027  FFDD         	movff	compute_frisbee_target_and_route@x+1,postdec2
  2391  001534                     
  2392                           ;./the3.h: 173:         }
  2393  001534  4A18               	infsnz	compute_frisbee_target_and_route@i^0,f,c
  2394  001536  2A19               	incf	(compute_frisbee_target_and_route@i+1)^0,f,c
  2395  001538                     i2l1916:
  2396  001538  502A               	movf	compute_frisbee_target_and_route@x_step_size^0,w,c
  2397  00153A  5C18               	subwf	compute_frisbee_target_and_route@i^0,w,c
  2398  00153C  502B               	movf	(compute_frisbee_target_and_route@x_step_size+1)^0,w,c
  2399  00153E  5819               	subwfb	(compute_frisbee_target_and_route@i+1)^0,w,c
  2400  001540  A0D8               	btfss	status,0,c
  2401  001542  EFA5  F00A         	goto	i2u107_41
  2402  001546  EFA7  F00A         	goto	i2u107_40
  2403  00154A                     i2u107_41:
  2404  00154A  EF80  F00A         	goto	i2l1910
  2405  00154E                     i2u107_40:
  2406  00154E  EFD6  F00A         	goto	i2l147
  2407  001552                     i2l1918:
  2408                           
  2409                           ;./the3.h: 176:         for (unsigned short i = 0; i < x_step_size; i++) {
  2410  001552  0E00               	movlw	0
  2411  001554  6E1B               	movwf	(compute_frisbee_target_and_route@i_719+1)^0,c
  2412  001556  0E00               	movlw	0
  2413  001558  6E1A               	movwf	compute_frisbee_target_and_route@i_719^0,c
  2414  00155A  EFCB  F00A         	goto	i2l1926
  2415  00155E                     i2l1920:
  2416                           
  2417                           ;./the3.h: 177:             x = x + 1;
  2418  00155E  0E01               	movlw	1
  2419  001560  2426               	addwf	compute_frisbee_target_and_route@x^0,w,c
  2420  001562  6E26               	movwf	compute_frisbee_target_and_route@x^0,c
  2421  001564  0E00               	movlw	0
  2422  001566  2027               	addwfc	(compute_frisbee_target_and_route@x+1)^0,w,c
  2423  001568  6E27               	movwf	(compute_frisbee_target_and_route@x+1)^0,c
  2424  00156A                     
  2425                           ;./the3.h: 178:             frisbee_steps[i][0] = x;
  2426  00156A  0E00               	movlw	low _frisbee_steps
  2427  00156C  6E16               	movwf	??_compute_frisbee_target_and_route^0,c
  2428  00156E  0E01               	movlw	high _frisbee_steps
  2429  001570  6E17               	movwf	(??_compute_frisbee_target_and_route+1)^0,c
  2430  001572  90D8               	bcf	status,0,c
  2431  001574  341A               	rlcf	compute_frisbee_target_and_route@i_719^0,w,c
  2432  001576  6ED9               	movwf	fsr2l,c
  2433  001578  341B               	rlcf	(compute_frisbee_target_and_route@i_719+1)^0,w,c
  2434  00157A  6EDA               	movwf	fsr2h,c
  2435  00157C  90D8               	bcf	status,0,c
  2436  00157E  36D9               	rlcf	fsr2l,f,c
  2437  001580  36DA               	rlcf	fsr2h,f,c
  2438  001582  5016               	movf	??_compute_frisbee_target_and_route^0,w,c
  2439  001584  26D9               	addwf	fsr2l,f,c
  2440  001586  5017               	movf	(??_compute_frisbee_target_and_route+1)^0,w,c
  2441  001588  22DA               	addwfc	fsr2h,f,c
  2442  00158A  C026  FFDE         	movff	compute_frisbee_target_and_route@x,postinc2
  2443  00158E  C027  FFDD         	movff	compute_frisbee_target_and_route@x+1,postdec2
  2444  001592                     
  2445                           ;./the3.h: 179:         }
  2446  001592  4A1A               	infsnz	compute_frisbee_target_and_route@i_719^0,f,c
  2447  001594  2A1B               	incf	(compute_frisbee_target_and_route@i_719+1)^0,f,c
  2448  001596                     i2l1926:
  2449  001596  502A               	movf	compute_frisbee_target_and_route@x_step_size^0,w,c
  2450  001598  5C1A               	subwf	compute_frisbee_target_and_route@i_719^0,w,c
  2451  00159A  502B               	movf	(compute_frisbee_target_and_route@x_step_size+1)^0,w,c
  2452  00159C  581B               	subwfb	(compute_frisbee_target_and_route@i_719+1)^0,w,c
  2453  00159E  A0D8               	btfss	status,0,c
  2454  0015A0  EFD4  F00A         	goto	i2u108_41
  2455  0015A4  EFD6  F00A         	goto	i2u108_40
  2456  0015A8                     i2u108_41:
  2457  0015A8  EFAF  F00A         	goto	i2l1920
  2458  0015AC                     i2u108_40:
  2459  0015AC                     i2l147:
  2460                           
  2461                           ;./the3.h: 181:     for (unsigned short i = x_step_size; i < number_of_steps; i++)
  2462  0015AC  C02A  F01C         	movff	compute_frisbee_target_and_route@x_step_size,compute_frisbee_target_and_route@i_7
      +                          20
  2463  0015B0  C02B  F01D         	movff	compute_frisbee_target_and_route@x_step_size+1,compute_frisbee_target_and_route@i
      +                          _720+1
  2464  0015B4  EFF2  F00A         	goto	i2l1932
  2465  0015B8                     i2l1928:
  2466                           
  2467                           ;./the3.h: 182:         frisbee_steps[i][0] = x;
  2468  0015B8  0E00               	movlw	low _frisbee_steps
  2469  0015BA  6E16               	movwf	??_compute_frisbee_target_and_route^0,c
  2470  0015BC  0E01               	movlw	high _frisbee_steps
  2471  0015BE  6E17               	movwf	(??_compute_frisbee_target_and_route+1)^0,c
  2472  0015C0  90D8               	bcf	status,0,c
  2473  0015C2  341C               	rlcf	compute_frisbee_target_and_route@i_720^0,w,c
  2474  0015C4  6ED9               	movwf	fsr2l,c
  2475  0015C6  341D               	rlcf	(compute_frisbee_target_and_route@i_720+1)^0,w,c
  2476  0015C8  6EDA               	movwf	fsr2h,c
  2477  0015CA  90D8               	bcf	status,0,c
  2478  0015CC  36D9               	rlcf	fsr2l,f,c
  2479  0015CE  36DA               	rlcf	fsr2h,f,c
  2480  0015D0  5016               	movf	??_compute_frisbee_target_and_route^0,w,c
  2481  0015D2  26D9               	addwf	fsr2l,f,c
  2482  0015D4  5017               	movf	(??_compute_frisbee_target_and_route+1)^0,w,c
  2483  0015D6  22DA               	addwfc	fsr2h,f,c
  2484  0015D8  C026  FFDE         	movff	compute_frisbee_target_and_route@x,postinc2
  2485  0015DC  C027  FFDD         	movff	compute_frisbee_target_and_route@x+1,postdec2
  2486  0015E0  4A1C               	infsnz	compute_frisbee_target_and_route@i_720^0,f,c
  2487  0015E2  2A1D               	incf	(compute_frisbee_target_and_route@i_720+1)^0,f,c
  2488  0015E4                     i2l1932:
  2489  0015E4  5024               	movf	compute_frisbee_target_and_route@number_of_steps^0,w,c
  2490  0015E6  5C1C               	subwf	compute_frisbee_target_and_route@i_720^0,w,c
  2491  0015E8  5025               	movf	(compute_frisbee_target_and_route@number_of_steps+1)^0,w,c
  2492  0015EA  581D               	subwfb	(compute_frisbee_target_and_route@i_720+1)^0,w,c
  2493  0015EC  A0D8               	btfss	status,0,c
  2494  0015EE  EFFB  F00A         	goto	i2u109_41
  2495  0015F2  EFFD  F00A         	goto	i2u109_40
  2496  0015F6                     i2u109_41:
  2497  0015F6  EFDC  F00A         	goto	i2l1928
  2498  0015FA                     i2u109_40:
  2499  0015FA                     
  2500                           ;./the3.h: 185:     unsigned short y = current_fisbee_y_position;
  2501  0015FA  C014  F028         	movff	compute_frisbee_target_and_route@current_fisbee_y_position,compute_frisbee_target
      +                          _and_route@y
  2502  0015FE  C015  F029         	movff	compute_frisbee_target_and_route@current_fisbee_y_position+1,compute_frisbee_targ
      +                          et_and_route@y+1
  2503  001602                     
  2504                           ;./the3.h: 186:     if (target_y < current_fisbee_y_position) {
  2505  001602  5014               	movf	compute_frisbee_target_and_route@current_fisbee_y_position^0,w,c
  2506  001604  5C71               	subwf	_target_y^0,w,c
  2507  001606  5015               	movf	(compute_frisbee_target_and_route@current_fisbee_y_position+1)^0,w,c
  2508  001608  5872               	subwfb	(_target_y+1)^0,w,c
  2509  00160A  B0D8               	btfsc	status,0,c
  2510  00160C  EF0A  F00B         	goto	i2u110_41
  2511  001610  EF0C  F00B         	goto	i2u110_40
  2512  001614                     i2u110_41:
  2513  001614  EF3F  F00B         	goto	i2l1946
  2514  001618                     i2u110_40:
  2515  001618                     
  2516                           ;./the3.h: 187:         for (unsigned short i = 0; i < y_step_size; i++) {
  2517  001618  0E00               	movlw	0
  2518  00161A  6E1F               	movwf	(compute_frisbee_target_and_route@i_722+1)^0,c
  2519  00161C  0E00               	movlw	0
  2520  00161E  6E1E               	movwf	compute_frisbee_target_and_route@i_722^0,c
  2521  001620  EF32  F00B         	goto	i2l1944
  2522  001624                     i2l1938:
  2523                           
  2524                           ;./the3.h: 188:             y = y - 1;
  2525  001624  0EFF               	movlw	255
  2526  001626  2428               	addwf	compute_frisbee_target_and_route@y^0,w,c
  2527  001628  6E28               	movwf	compute_frisbee_target_and_route@y^0,c
  2528  00162A  0EFF               	movlw	255
  2529  00162C  2029               	addwfc	(compute_frisbee_target_and_route@y+1)^0,w,c
  2530  00162E  6E29               	movwf	(compute_frisbee_target_and_route@y+1)^0,c
  2531  001630                     
  2532                           ;./the3.h: 189:             frisbee_steps[i][1] = y;
  2533  001630  0E00               	movlw	low _frisbee_steps
  2534  001632  6E16               	movwf	??_compute_frisbee_target_and_route^0,c
  2535  001634  0E01               	movlw	high _frisbee_steps
  2536  001636  6E17               	movwf	(??_compute_frisbee_target_and_route+1)^0,c
  2537  001638  0E02               	movlw	2
  2538  00163A  2616               	addwf	??_compute_frisbee_target_and_route^0,f,c
  2539  00163C  0E00               	movlw	0
  2540  00163E  2217               	addwfc	(??_compute_frisbee_target_and_route+1)^0,f,c
  2541  001640  90D8               	bcf	status,0,c
  2542  001642  341E               	rlcf	compute_frisbee_target_and_route@i_722^0,w,c
  2543  001644  6ED9               	movwf	fsr2l,c
  2544  001646  341F               	rlcf	(compute_frisbee_target_and_route@i_722+1)^0,w,c
  2545  001648  6EDA               	movwf	fsr2h,c
  2546  00164A  90D8               	bcf	status,0,c
  2547  00164C  36D9               	rlcf	fsr2l,f,c
  2548  00164E  36DA               	rlcf	fsr2h,f,c
  2549  001650  5016               	movf	??_compute_frisbee_target_and_route^0,w,c
  2550  001652  26D9               	addwf	fsr2l,f,c
  2551  001654  5017               	movf	(??_compute_frisbee_target_and_route+1)^0,w,c
  2552  001656  22DA               	addwfc	fsr2h,f,c
  2553  001658  C028  FFDE         	movff	compute_frisbee_target_and_route@y,postinc2
  2554  00165C  C029  FFDD         	movff	compute_frisbee_target_and_route@y+1,postdec2
  2555  001660                     
  2556                           ;./the3.h: 190:         }
  2557  001660  4A1E               	infsnz	compute_frisbee_target_and_route@i_722^0,f,c
  2558  001662  2A1F               	incf	(compute_frisbee_target_and_route@i_722+1)^0,f,c
  2559  001664                     i2l1944:
  2560  001664  502C               	movf	compute_frisbee_target_and_route@y_step_size^0,w,c
  2561  001666  5C1E               	subwf	compute_frisbee_target_and_route@i_722^0,w,c
  2562  001668  502D               	movf	(compute_frisbee_target_and_route@y_step_size+1)^0,w,c
  2563  00166A  581F               	subwfb	(compute_frisbee_target_and_route@i_722+1)^0,w,c
  2564  00166C  A0D8               	btfss	status,0,c
  2565  00166E  EF3B  F00B         	goto	i2u111_41
  2566  001672  EF3D  F00B         	goto	i2u111_40
  2567  001676                     i2u111_41:
  2568  001676  EF12  F00B         	goto	i2l1938
  2569  00167A                     i2u111_40:
  2570  00167A  EF70  F00B         	goto	i2l158
  2571  00167E                     i2l1946:
  2572                           
  2573                           ;./the3.h: 193:         for (unsigned short i = 0; i < y_step_size; i++) {
  2574  00167E  0E00               	movlw	0
  2575  001680  6E21               	movwf	(compute_frisbee_target_and_route@i_723+1)^0,c
  2576  001682  0E00               	movlw	0
  2577  001684  6E20               	movwf	compute_frisbee_target_and_route@i_723^0,c
  2578  001686  EF65  F00B         	goto	i2l1954
  2579  00168A                     i2l1948:
  2580                           
  2581                           ;./the3.h: 194:             y = y + 1;
  2582  00168A  0E01               	movlw	1
  2583  00168C  2428               	addwf	compute_frisbee_target_and_route@y^0,w,c
  2584  00168E  6E28               	movwf	compute_frisbee_target_and_route@y^0,c
  2585  001690  0E00               	movlw	0
  2586  001692  2029               	addwfc	(compute_frisbee_target_and_route@y+1)^0,w,c
  2587  001694  6E29               	movwf	(compute_frisbee_target_and_route@y+1)^0,c
  2588  001696                     
  2589                           ;./the3.h: 195:             frisbee_steps[i][1] = y;
  2590  001696  0E00               	movlw	low _frisbee_steps
  2591  001698  6E16               	movwf	??_compute_frisbee_target_and_route^0,c
  2592  00169A  0E01               	movlw	high _frisbee_steps
  2593  00169C  6E17               	movwf	(??_compute_frisbee_target_and_route+1)^0,c
  2594  00169E  0E02               	movlw	2
  2595  0016A0  2616               	addwf	??_compute_frisbee_target_and_route^0,f,c
  2596  0016A2  0E00               	movlw	0
  2597  0016A4  2217               	addwfc	(??_compute_frisbee_target_and_route+1)^0,f,c
  2598  0016A6  90D8               	bcf	status,0,c
  2599  0016A8  3420               	rlcf	compute_frisbee_target_and_route@i_723^0,w,c
  2600  0016AA  6ED9               	movwf	fsr2l,c
  2601  0016AC  3421               	rlcf	(compute_frisbee_target_and_route@i_723+1)^0,w,c
  2602  0016AE  6EDA               	movwf	fsr2h,c
  2603  0016B0  90D8               	bcf	status,0,c
  2604  0016B2  36D9               	rlcf	fsr2l,f,c
  2605  0016B4  36DA               	rlcf	fsr2h,f,c
  2606  0016B6  5016               	movf	??_compute_frisbee_target_and_route^0,w,c
  2607  0016B8  26D9               	addwf	fsr2l,f,c
  2608  0016BA  5017               	movf	(??_compute_frisbee_target_and_route+1)^0,w,c
  2609  0016BC  22DA               	addwfc	fsr2h,f,c
  2610  0016BE  C028  FFDE         	movff	compute_frisbee_target_and_route@y,postinc2
  2611  0016C2  C029  FFDD         	movff	compute_frisbee_target_and_route@y+1,postdec2
  2612  0016C6                     
  2613                           ;./the3.h: 196:         }
  2614  0016C6  4A20               	infsnz	compute_frisbee_target_and_route@i_723^0,f,c
  2615  0016C8  2A21               	incf	(compute_frisbee_target_and_route@i_723+1)^0,f,c
  2616  0016CA                     i2l1954:
  2617  0016CA  502C               	movf	compute_frisbee_target_and_route@y_step_size^0,w,c
  2618  0016CC  5C20               	subwf	compute_frisbee_target_and_route@i_723^0,w,c
  2619  0016CE  502D               	movf	(compute_frisbee_target_and_route@y_step_size+1)^0,w,c
  2620  0016D0  5821               	subwfb	(compute_frisbee_target_and_route@i_723+1)^0,w,c
  2621  0016D2  A0D8               	btfss	status,0,c
  2622  0016D4  EF6E  F00B         	goto	i2u112_41
  2623  0016D8  EF70  F00B         	goto	i2u112_40
  2624  0016DC                     i2u112_41:
  2625  0016DC  EF45  F00B         	goto	i2l1948
  2626  0016E0                     i2u112_40:
  2627  0016E0                     i2l158:
  2628                           
  2629                           ;./the3.h: 198:     for (unsigned short i = y_step_size; i < number_of_steps; i++)
  2630  0016E0  C02C  F022         	movff	compute_frisbee_target_and_route@y_step_size,compute_frisbee_target_and_route@i_7
      +                          24
  2631  0016E4  C02D  F023         	movff	compute_frisbee_target_and_route@y_step_size+1,compute_frisbee_target_and_route@i
      +                          _724+1
  2632  0016E8  EF90  F00B         	goto	i2l1960
  2633  0016EC                     i2l1956:
  2634                           
  2635                           ;./the3.h: 199:         frisbee_steps[i][1] = y;
  2636  0016EC  0E00               	movlw	low _frisbee_steps
  2637  0016EE  6E16               	movwf	??_compute_frisbee_target_and_route^0,c
  2638  0016F0  0E01               	movlw	high _frisbee_steps
  2639  0016F2  6E17               	movwf	(??_compute_frisbee_target_and_route+1)^0,c
  2640  0016F4  0E02               	movlw	2
  2641  0016F6  2616               	addwf	??_compute_frisbee_target_and_route^0,f,c
  2642  0016F8  0E00               	movlw	0
  2643  0016FA  2217               	addwfc	(??_compute_frisbee_target_and_route+1)^0,f,c
  2644  0016FC  90D8               	bcf	status,0,c
  2645  0016FE  3422               	rlcf	compute_frisbee_target_and_route@i_724^0,w,c
  2646  001700  6ED9               	movwf	fsr2l,c
  2647  001702  3423               	rlcf	(compute_frisbee_target_and_route@i_724+1)^0,w,c
  2648  001704  6EDA               	movwf	fsr2h,c
  2649  001706  90D8               	bcf	status,0,c
  2650  001708  36D9               	rlcf	fsr2l,f,c
  2651  00170A  36DA               	rlcf	fsr2h,f,c
  2652  00170C  5016               	movf	??_compute_frisbee_target_and_route^0,w,c
  2653  00170E  26D9               	addwf	fsr2l,f,c
  2654  001710  5017               	movf	(??_compute_frisbee_target_and_route+1)^0,w,c
  2655  001712  22DA               	addwfc	fsr2h,f,c
  2656  001714  C028  FFDE         	movff	compute_frisbee_target_and_route@y,postinc2
  2657  001718  C029  FFDD         	movff	compute_frisbee_target_and_route@y+1,postdec2
  2658  00171C  4A22               	infsnz	compute_frisbee_target_and_route@i_724^0,f,c
  2659  00171E  2A23               	incf	(compute_frisbee_target_and_route@i_724+1)^0,f,c
  2660  001720                     i2l1960:
  2661  001720  5024               	movf	compute_frisbee_target_and_route@number_of_steps^0,w,c
  2662  001722  5C22               	subwf	compute_frisbee_target_and_route@i_724^0,w,c
  2663  001724  5025               	movf	(compute_frisbee_target_and_route@number_of_steps+1)^0,w,c
  2664  001726  5823               	subwfb	(compute_frisbee_target_and_route@i_724+1)^0,w,c
  2665  001728  A0D8               	btfss	status,0,c
  2666  00172A  EF99  F00B         	goto	i2u113_41
  2667  00172E  EF9B  F00B         	goto	i2u113_40
  2668  001732                     i2u113_41:
  2669  001732  EF76  F00B         	goto	i2l1956
  2670  001736                     i2u113_40:
  2671  001736  0012               	return		;funcret
  2672  001738                     __end_of_compute_frisbee_target_and_route:
  2673                           	callstack 0
  2674                           
  2675 ;; *************** function _random_generator *****************
  2676 ;; Defined at:
  2677 ;;		line 204 in file "./the3.h"
  2678 ;; Parameters:    Size  Location     Type
  2679 ;;  modulo          2    5[COMRAM] unsigned short 
  2680 ;; Auto vars:     Size  Location     Type
  2681 ;;  timer_value     2   15[COMRAM] int 
  2682 ;;  rotated_valu    2   13[COMRAM] int 
  2683 ;;  pseudo_rando    2   11[COMRAM] int 
  2684 ;;  rotation        2    0        unsigned short 
  2685 ;; Return value:  Size  Location     Type
  2686 ;;                  2    5[COMRAM] unsigned short 
  2687 ;; Registers used:
  2688 ;;		wreg, status,2, status,0, cstack
  2689 ;; Tracked objects:
  2690 ;;		On entry : 0/0
  2691 ;;		On exit  : 0/0
  2692 ;;		Unchanged: 0/0
  2693 ;; Data sizes:     COMRAM   BANK0   BANK1   BANK2   BANK3   BANK4   BANK5   BANK6   BANK7   BANK8   BANK9  BANK10  BANK1
      +1  BANK12  BANK13  BANK14  BANK15
  2694 ;;      Params:         2       0       0       0       0       0       0       0       0       0       0       0       
      +0       0       0       0       0
  2695 ;;      Locals:         8       0       0       0       0       0       0       0       0       0       0       0       
      +0       0       0       0       0
  2696 ;;      Temps:          2       0       0       0       0       0       0       0       0       0       0       0       
      +0       0       0       0       0
  2697 ;;      Totals:        12       0       0       0       0       0       0       0       0       0       0       0       
      +0       0       0       0       0
  2698 ;;Total ram usage:       12 bytes
  2699 ;; Hardware stack levels used:    1
  2700 ;; Hardware stack levels required when called:    1
  2701 ;; This function calls:
  2702 ;;		___lwmod
  2703 ;; This function is called by:
  2704 ;;		_compute_frisbee_target_and_route
  2705 ;; This function uses a non-reentrant model
  2706 ;;
  2707                           
  2708                           	psect	text13
  2709  00258A                     __ptext13:
  2710                           	callstack 0
  2711  00258A                     _random_generator:
  2712                           	callstack 23
  2713  00258A                     
  2714                           ;./the3.h: 209:     int timer_value = TMR1;
  2715  00258A  CFCE F010          	movff	4046,random_generator@timer_value	;volatile
  2716  00258E  CFCF F011          	movff	4047,random_generator@timer_value+1	;volatile
  2717  002592                     
  2718                           ;./the3.h: 212:     int pseudo_random = (timer_value % modulo) ;
  2719  002592  C010  F001         	movff	random_generator@timer_value,___lwmod@dividend
  2720  002596  C011  F002         	movff	random_generator@timer_value+1,___lwmod@dividend+1
  2721  00259A  C006  F003         	movff	random_generator@modulo,___lwmod@divisor
  2722  00259E  C007  F004         	movff	random_generator@modulo+1,___lwmod@divisor+1
  2723  0025A2  EC65  F012         	call	___lwmod	;wreg free
  2724  0025A6  C001  F00C         	movff	?___lwmod,random_generator@pseudo_random
  2725  0025AA  C002  F00D         	movff	?___lwmod+1,random_generator@pseudo_random+1
  2726  0025AE                     
  2727                           ;./the3.h: 215:     int rotated_value = timer_value >> rotation;
  2728  0025AE  C010  F008         	movff	random_generator@timer_value,??_random_generator
  2729  0025B2  C011  F009         	movff	random_generator@timer_value+1,??_random_generator+1
  2730  0025B6  3409               	rlcf	(??_random_generator+1)^0,w,c
  2731  0025B8  3209               	rrcf	(??_random_generator+1)^0,f,c
  2732  0025BA  3208               	rrcf	??_random_generator^0,f,c
  2733  0025BC  3409               	rlcf	(??_random_generator+1)^0,w,c
  2734  0025BE  3209               	rrcf	(??_random_generator+1)^0,f,c
  2735  0025C0  3208               	rrcf	??_random_generator^0,f,c
  2736  0025C2  C008  F00E         	movff	??_random_generator,random_generator@rotated_value
  2737  0025C6  C009  F00F         	movff	??_random_generator+1,random_generator@rotated_value+1
  2738  0025CA                     
  2739                           ;./the3.h: 218:     TMR1 = rotated_value;
  2740  0025CA  C00E  FFCE         	movff	random_generator@rotated_value,4046	;volatile
  2741  0025CE  C00F  FFCF         	movff	random_generator@rotated_value+1,4047	;volatile
  2742  0025D2                     
  2743                           ;./the3.h: 221:     return pseudo_random;
  2744  0025D2  C00C  F006         	movff	random_generator@pseudo_random,?_random_generator
  2745  0025D6  C00D  F007         	movff	random_generator@pseudo_random+1,?_random_generator+1
  2746  0025DA  0012               	return		;funcret
  2747  0025DC                     __end_of_random_generator:
  2748                           	callstack 0
  2749                           
  2750 ;; *************** function ___lwmod *****************
  2751 ;; Defined at:
  2752 ;;		line 7 in file "/opt/microchip/xc8/v2.30/pic/sources/c99/common/lwmod.c"
  2753 ;; Parameters:    Size  Location     Type
  2754 ;;  dividend        2    0[COMRAM] unsigned int 
  2755 ;;  divisor         2    2[COMRAM] unsigned int 
  2756 ;; Auto vars:     Size  Location     Type
  2757 ;;  counter         1    4[COMRAM] unsigned char 
  2758 ;; Return value:  Size  Location     Type
  2759 ;;                  2    0[COMRAM] unsigned int 
  2760 ;; Registers used:
  2761 ;;		wreg, status,2, status,0
  2762 ;; Tracked objects:
  2763 ;;		On entry : 0/0
  2764 ;;		On exit  : 0/0
  2765 ;;		Unchanged: 0/0
  2766 ;; Data sizes:     COMRAM   BANK0   BANK1   BANK2   BANK3   BANK4   BANK5   BANK6   BANK7   BANK8   BANK9  BANK10  BANK1
      +1  BANK12  BANK13  BANK14  BANK15
  2767 ;;      Params:         4       0       0       0       0       0       0       0       0       0       0       0       
      +0       0       0       0       0
  2768 ;;      Locals:         1       0       0       0       0       0       0       0       0       0       0       0       
      +0       0       0       0       0
  2769 ;;      Temps:          0       0       0       0       0       0       0       0       0       0       0       0       
      +0       0       0       0       0
  2770 ;;      Totals:         5       0       0       0       0       0       0       0       0       0       0       0       
      +0       0       0       0       0
  2771 ;;Total ram usage:        5 bytes
  2772 ;; Hardware stack levels used:    1
  2773 ;; This function calls:
  2774 ;;		Nothing
  2775 ;; This function is called by:
  2776 ;;		_random_generator
  2777 ;; This function uses a non-reentrant model
  2778 ;;
  2779                           
  2780                           	psect	text14
  2781  0024CA                     __ptext14:
  2782                           	callstack 0
  2783  0024CA                     ___lwmod:
  2784                           	callstack 23
  2785  0024CA  5003               	movf	___lwmod@divisor^0,w,c
  2786  0024CC  1004               	iorwf	(___lwmod@divisor+1)^0,w,c
  2787  0024CE  B4D8               	btfsc	status,2,c
  2788  0024D0  EF6C  F012         	goto	i2u88_41
  2789  0024D4  EF6E  F012         	goto	i2u88_40
  2790  0024D8                     i2u88_41:
  2791  0024D8  EF92  F012         	goto	i2l832
  2792  0024DC                     i2u88_40:
  2793  0024DC  0E01               	movlw	1
  2794  0024DE  6E05               	movwf	___lwmod@counter^0,c
  2795  0024E0  EF76  F012         	goto	i2l1756
  2796  0024E4                     i2l1754:
  2797  0024E4  90D8               	bcf	status,0,c
  2798  0024E6  3603               	rlcf	___lwmod@divisor^0,f,c
  2799  0024E8  3604               	rlcf	(___lwmod@divisor+1)^0,f,c
  2800  0024EA  2A05               	incf	___lwmod@counter^0,f,c
  2801  0024EC                     i2l1756:
  2802  0024EC  AE04               	btfss	(___lwmod@divisor+1)^0,7,c
  2803  0024EE  EF7B  F012         	goto	i2u89_41
  2804  0024F2  EF7D  F012         	goto	i2u89_40
  2805  0024F6                     i2u89_41:
  2806  0024F6  EF72  F012         	goto	i2l1754
  2807  0024FA                     i2u89_40:
  2808  0024FA                     i2l1758:
  2809  0024FA  5003               	movf	___lwmod@divisor^0,w,c
  2810  0024FC  5C01               	subwf	___lwmod@dividend^0,w,c
  2811  0024FE  5004               	movf	(___lwmod@divisor+1)^0,w,c
  2812  002500  5802               	subwfb	(___lwmod@dividend+1)^0,w,c
  2813  002502  A0D8               	btfss	status,0,c
  2814  002504  EF86  F012         	goto	i2u90_41
  2815  002508  EF88  F012         	goto	i2u90_40
  2816  00250C                     i2u90_41:
  2817  00250C  EF8C  F012         	goto	i2l1762
  2818  002510                     i2u90_40:
  2819  002510  5003               	movf	___lwmod@divisor^0,w,c
  2820  002512  5E01               	subwf	___lwmod@dividend^0,f,c
  2821  002514  5004               	movf	(___lwmod@divisor+1)^0,w,c
  2822  002516  5A02               	subwfb	(___lwmod@dividend+1)^0,f,c
  2823  002518                     i2l1762:
  2824  002518  90D8               	bcf	status,0,c
  2825  00251A  3204               	rrcf	(___lwmod@divisor+1)^0,f,c
  2826  00251C  3203               	rrcf	___lwmod@divisor^0,f,c
  2827  00251E  2E05               	decfsz	___lwmod@counter^0,f,c
  2828  002520  EF7D  F012         	goto	i2l1758
  2829  002524                     i2l832:
  2830  002524  C001  F001         	movff	___lwmod@dividend,?___lwmod
  2831  002528  C002  F002         	movff	___lwmod@dividend+1,?___lwmod+1
  2832  00252C  0012               	return		;funcret
  2833  00252E                     __end_of___lwmod:
  2834                           	callstack 0
  2835                           
  2836 ;; *************** function _switchSelectedPlayer *****************
  2837 ;; Defined at:
  2838 ;;		line 320 in file "newmain.c"
  2839 ;; Parameters:    Size  Location     Type
  2840 ;;		None
  2841 ;; Auto vars:     Size  Location     Type
  2842 ;;  selected_pla    2   20[COMRAM] int 
  2843 ;;  newY            2   18[COMRAM] int 
  2844 ;;  newX            2   16[COMRAM] int 
  2845 ;;  oldY            2   14[COMRAM] int 
  2846 ;;  oldX            2   12[COMRAM] int 
  2847 ;; Return value:  Size  Location     Type
  2848 ;;                  1    wreg      void 
  2849 ;; Registers used:
  2850 ;;		wreg, fsr2l, fsr2h, status,2, status,0, tblptrl, tblptrh, tblptru, cstack
  2851 ;; Tracked objects:
  2852 ;;		On entry : 0/0
  2853 ;;		On exit  : 0/0
  2854 ;;		Unchanged: 0/0
  2855 ;; Data sizes:     COMRAM   BANK0   BANK1   BANK2   BANK3   BANK4   BANK5   BANK6   BANK7   BANK8   BANK9  BANK10  BANK1
      +1  BANK12  BANK13  BANK14  BANK15
  2856 ;;      Params:         0       0       0       0       0       0       0       0       0       0       0       0       
      +0       0       0       0       0
  2857 ;;      Locals:        14       0       0       0       0       0       0       0       0       0       0       0       
      +0       0       0       0       0
  2858 ;;      Temps:          2       0       0       0       0       0       0       0       0       0       0       0       
      +0       0       0       0       0
  2859 ;;      Totals:        16       0       0       0       0       0       0       0       0       0       0       0       
      +0       0       0       0       0
  2860 ;;Total ram usage:       16 bytes
  2861 ;; Hardware stack levels used:    1
  2862 ;; Hardware stack levels required when called:    2
  2863 ;; This function calls:
  2864 ;;		_LCDStr
  2865 ;;		i2_LCDDat
  2866 ;;		i2_LCDGoto
  2867 ;; This function is called by:
  2868 ;;		_FNC
  2869 ;; This function uses a non-reentrant model
  2870 ;;
  2871                           
  2872                           	psect	text15
  2873  0019CE                     __ptext15:
  2874                           	callstack 0
  2875  0019CE                     _switchSelectedPlayer:
  2876                           	callstack 24
  2877  0019CE                     
  2878                           ;newmain.c: 321:     PORTB;;
  2879  0019CE  5081               	movf	129,w,c	;volatile
  2880  0019D0                     
  2881                           ;newmain.c: 322:     LATB = 0;
  2882  0019D0  0E00               	movlw	0
  2883  0019D2  6E8A               	movwf	138,c	;volatile
  2884  0019D4                     
  2885                           ;newmain.c: 323:     LATA = 0;
  2886  0019D4  0E00               	movlw	0
  2887  0019D6  6E89               	movwf	137,c	;volatile
  2888  0019D8                     
  2889                           ;newmain.c: 324:     LATD = 0;
  2890  0019D8  0E00               	movlw	0
  2891  0019DA  6E8C               	movwf	140,c	;volatile
  2892  0019DC                     
  2893                           ;newmain.c: 327:     int oldX, oldY,newX,newY;;newmain.c: 328:     int selected_player =
      +                           gameState.selected_player;
  2894  0019DC  C054  F015         	movff	_gameState+20,switchSelectedPlayer@selected_player
  2895  0019E0  C055  F016         	movff	_gameState+21,switchSelectedPlayer@selected_player+1
  2896  0019E4                     
  2897                           ;newmain.c: 330:     oldX = gameState.player_positions[selected_player].x;
  2898  0019E4  0E40               	movlw	low _gameState
  2899  0019E6  6E07               	movwf	??_switchSelectedPlayer^0,c
  2900  0019E8  0E00               	movlw	high _gameState
  2901  0019EA  6E08               	movwf	(??_switchSelectedPlayer+1)^0,c
  2902  0019EC  90D8               	bcf	status,0,c
  2903  0019EE  3415               	rlcf	switchSelectedPlayer@selected_player^0,w,c
  2904  0019F0  6ED9               	movwf	fsr2l,c
  2905  0019F2  3416               	rlcf	(switchSelectedPlayer@selected_player+1)^0,w,c
  2906  0019F4  6EDA               	movwf	fsr2h,c
  2907  0019F6  90D8               	bcf	status,0,c
  2908  0019F8  36D9               	rlcf	fsr2l,f,c
  2909  0019FA  36DA               	rlcf	fsr2h,f,c
  2910  0019FC  5007               	movf	??_switchSelectedPlayer^0,w,c
  2911  0019FE  26D9               	addwf	fsr2l,f,c
  2912  001A00  5008               	movf	(??_switchSelectedPlayer+1)^0,w,c
  2913  001A02  22DA               	addwfc	fsr2h,f,c
  2914  001A04  CFDE F00D          	movff	postinc2,switchSelectedPlayer@oldX
  2915  001A08  CFDD F00E          	movff	postdec2,switchSelectedPlayer@oldX+1
  2916  001A0C                     
  2917                           ;newmain.c: 331:     oldY = gameState.player_positions[selected_player].y;
  2918  001A0C  0E40               	movlw	low _gameState
  2919  001A0E  6E07               	movwf	??_switchSelectedPlayer^0,c
  2920  001A10  0E00               	movlw	high _gameState
  2921  001A12  6E08               	movwf	(??_switchSelectedPlayer+1)^0,c
  2922  001A14  0E02               	movlw	2
  2923  001A16  2607               	addwf	??_switchSelectedPlayer^0,f,c
  2924  001A18  0E00               	movlw	0
  2925  001A1A  2208               	addwfc	(??_switchSelectedPlayer+1)^0,f,c
  2926  001A1C  90D8               	bcf	status,0,c
  2927  001A1E  3415               	rlcf	switchSelectedPlayer@selected_player^0,w,c
  2928  001A20  6ED9               	movwf	fsr2l,c
  2929  001A22  3416               	rlcf	(switchSelectedPlayer@selected_player+1)^0,w,c
  2930  001A24  6EDA               	movwf	fsr2h,c
  2931  001A26  90D8               	bcf	status,0,c
  2932  001A28  36D9               	rlcf	fsr2l,f,c
  2933  001A2A  36DA               	rlcf	fsr2h,f,c
  2934  001A2C  5007               	movf	??_switchSelectedPlayer^0,w,c
  2935  001A2E  26D9               	addwf	fsr2l,f,c
  2936  001A30  5008               	movf	(??_switchSelectedPlayer+1)^0,w,c
  2937  001A32  22DA               	addwfc	fsr2h,f,c
  2938  001A34  CFDE F00F          	movff	postinc2,switchSelectedPlayer@oldY
  2939  001A38  CFDD F010          	movff	postdec2,switchSelectedPlayer@oldY+1
  2940  001A3C                     
  2941                           ;newmain.c: 334:     LCDGoto(oldX,oldY);
  2942  001A3C  C00F  F002         	movff	switchSelectedPlayer@oldY,i2LCDGoto@p_1
  2943  001A40  500D               	movf	switchSelectedPlayer@oldX^0,w,c
  2944  001A42  EC8A  F011         	call	i2_LCDGoto
  2945  001A46                     
  2946                           ;newmain.c: 335:     LCDStr(" ");
  2947  001A46  0E01               	movlw	low STR_1
  2948  001A48  6E02               	movwf	LCDStr@str^0,c
  2949  001A4A  0E10               	movlw	high STR_1
  2950  001A4C  6E03               	movwf	(LCDStr@str+1)^0,c
  2951  001A4E  ECD3  F010         	call	_LCDStr	;wreg free
  2952  001A52                     
  2953                           ;newmain.c: 336:     LCDGoto(oldX,oldY);
  2954  001A52  C00F  F002         	movff	switchSelectedPlayer@oldY,i2LCDGoto@p_1
  2955  001A56  500D               	movf	switchSelectedPlayer@oldX^0,w,c
  2956  001A58  EC8A  F011         	call	i2_LCDGoto
  2957  001A5C                     
  2958                           ;newmain.c: 337:     LCDDat (selected_player < 2 ? 1:3);
  2959  001A5C  BE16               	btfsc	(switchSelectedPlayer@selected_player+1)^0,7,c
  2960  001A5E  EF3A  F00D         	goto	i2u147_41
  2961  001A62  5016               	movf	(switchSelectedPlayer@selected_player+1)^0,w,c
  2962  001A64  E109               	bnz	i2u147_40
  2963  001A66  0E02               	movlw	2
  2964  001A68  5C15               	subwf	switchSelectedPlayer@selected_player^0,w,c
  2965  001A6A  A0D8               	btfss	status,0,c
  2966  001A6C  EF3A  F00D         	goto	i2u147_41
  2967  001A70  EF3C  F00D         	goto	i2u147_40
  2968  001A74                     i2u147_41:
  2969  001A74  EF42  F00D         	goto	i2l2244
  2970  001A78                     i2u147_40:
  2971  001A78  0E00               	movlw	0
  2972  001A7A  6E0A               	movwf	(_switchSelectedPlayer$852+1)^0,c
  2973  001A7C  0E03               	movlw	3
  2974  001A7E  6E09               	movwf	_switchSelectedPlayer$852^0,c
  2975  001A80  EF46  F00D         	goto	i2l2246
  2976  001A84                     i2l2244:
  2977  001A84  0E00               	movlw	0
  2978  001A86  6E0A               	movwf	(_switchSelectedPlayer$852+1)^0,c
  2979  001A88  0E01               	movlw	1
  2980  001A8A  6E09               	movwf	_switchSelectedPlayer$852^0,c
  2981  001A8C                     i2l2246:
  2982  001A8C  5009               	movf	_switchSelectedPlayer$852^0,w,c
  2983  001A8E  ECD2  F013         	call	i2_LCDDat
  2984  001A92                     
  2985                           ;newmain.c: 340:     selected_player = (selected_player+1) % 4;
  2986  001A92  0E01               	movlw	1
  2987  001A94  2415               	addwf	switchSelectedPlayer@selected_player^0,w,c
  2988  001A96  6E07               	movwf	??_switchSelectedPlayer^0,c
  2989  001A98  0E00               	movlw	0
  2990  001A9A  2016               	addwfc	(switchSelectedPlayer@selected_player+1)^0,w,c
  2991  001A9C  6E08               	movwf	(??_switchSelectedPlayer+1)^0,c
  2992  001A9E  0E03               	movlw	3
  2993  001AA0  1407               	andwf	??_switchSelectedPlayer^0,w,c
  2994  001AA2  6E15               	movwf	switchSelectedPlayer@selected_player^0,c
  2995  001AA4  6A16               	clrf	(switchSelectedPlayer@selected_player+1)^0,c
  2996  001AA6                     
  2997                           ;newmain.c: 341:     gameState.selected_player = selected_player;
  2998  001AA6  C015  F054         	movff	switchSelectedPlayer@selected_player,_gameState+20
  2999  001AAA  C016  F055         	movff	switchSelectedPlayer@selected_player+1,_gameState+21
  3000  001AAE                     
  3001                           ;newmain.c: 343:     newX = gameState.player_positions[selected_player].x;
  3002  001AAE  0E40               	movlw	low _gameState
  3003  001AB0  6E07               	movwf	??_switchSelectedPlayer^0,c
  3004  001AB2  0E00               	movlw	high _gameState
  3005  001AB4  6E08               	movwf	(??_switchSelectedPlayer+1)^0,c
  3006  001AB6  90D8               	bcf	status,0,c
  3007  001AB8  3415               	rlcf	switchSelectedPlayer@selected_player^0,w,c
  3008  001ABA  6ED9               	movwf	fsr2l,c
  3009  001ABC  3416               	rlcf	(switchSelectedPlayer@selected_player+1)^0,w,c
  3010  001ABE  6EDA               	movwf	fsr2h,c
  3011  001AC0  90D8               	bcf	status,0,c
  3012  001AC2  36D9               	rlcf	fsr2l,f,c
  3013  001AC4  36DA               	rlcf	fsr2h,f,c
  3014  001AC6  5007               	movf	??_switchSelectedPlayer^0,w,c
  3015  001AC8  26D9               	addwf	fsr2l,f,c
  3016  001ACA  5008               	movf	(??_switchSelectedPlayer+1)^0,w,c
  3017  001ACC  22DA               	addwfc	fsr2h,f,c
  3018  001ACE  CFDE F011          	movff	postinc2,switchSelectedPlayer@newX
  3019  001AD2  CFDD F012          	movff	postdec2,switchSelectedPlayer@newX+1
  3020  001AD6                     
  3021                           ;newmain.c: 344:     newY = gameState.player_positions[selected_player].y;
  3022  001AD6  0E40               	movlw	low _gameState
  3023  001AD8  6E07               	movwf	??_switchSelectedPlayer^0,c
  3024  001ADA  0E00               	movlw	high _gameState
  3025  001ADC  6E08               	movwf	(??_switchSelectedPlayer+1)^0,c
  3026  001ADE  0E02               	movlw	2
  3027  001AE0  2607               	addwf	??_switchSelectedPlayer^0,f,c
  3028  001AE2  0E00               	movlw	0
  3029  001AE4  2208               	addwfc	(??_switchSelectedPlayer+1)^0,f,c
  3030  001AE6  90D8               	bcf	status,0,c
  3031  001AE8  3415               	rlcf	switchSelectedPlayer@selected_player^0,w,c
  3032  001AEA  6ED9               	movwf	fsr2l,c
  3033  001AEC  3416               	rlcf	(switchSelectedPlayer@selected_player+1)^0,w,c
  3034  001AEE  6EDA               	movwf	fsr2h,c
  3035  001AF0  90D8               	bcf	status,0,c
  3036  001AF2  36D9               	rlcf	fsr2l,f,c
  3037  001AF4  36DA               	rlcf	fsr2h,f,c
  3038  001AF6  5007               	movf	??_switchSelectedPlayer^0,w,c
  3039  001AF8  26D9               	addwf	fsr2l,f,c
  3040  001AFA  5008               	movf	(??_switchSelectedPlayer+1)^0,w,c
  3041  001AFC  22DA               	addwfc	fsr2h,f,c
  3042  001AFE  CFDE F013          	movff	postinc2,switchSelectedPlayer@newY
  3043  001B02  CFDD F014          	movff	postdec2,switchSelectedPlayer@newY+1
  3044                           
  3045                           ;newmain.c: 347:     LCDGoto(newX,newY);
  3046  001B06  C013  F002         	movff	switchSelectedPlayer@newY,i2LCDGoto@p_1
  3047  001B0A  5011               	movf	switchSelectedPlayer@newX^0,w,c
  3048  001B0C  EC8A  F011         	call	i2_LCDGoto
  3049  001B10                     
  3050                           ;newmain.c: 348:     LCDStr(" ");
  3051  001B10  0E01               	movlw	low STR_1
  3052  001B12  6E02               	movwf	LCDStr@str^0,c
  3053  001B14  0E10               	movlw	high STR_1
  3054  001B16  6E03               	movwf	(LCDStr@str+1)^0,c
  3055  001B18  ECD3  F010         	call	_LCDStr	;wreg free
  3056  001B1C                     
  3057                           ;newmain.c: 349:     LCDGoto(newX,newY);
  3058  001B1C  C013  F002         	movff	switchSelectedPlayer@newY,i2LCDGoto@p_1
  3059  001B20  5011               	movf	switchSelectedPlayer@newX^0,w,c
  3060  001B22  EC8A  F011         	call	i2_LCDGoto
  3061  001B26                     
  3062                           ;newmain.c: 350:     LCDDat (selected_player < 2 ? 0:2);
  3063  001B26  BE16               	btfsc	(switchSelectedPlayer@selected_player+1)^0,7,c
  3064  001B28  EF9F  F00D         	goto	i2u148_41
  3065  001B2C  5016               	movf	(switchSelectedPlayer@selected_player+1)^0,w,c
  3066  001B2E  E109               	bnz	i2u148_40
  3067  001B30  0E02               	movlw	2
  3068  001B32  5C15               	subwf	switchSelectedPlayer@selected_player^0,w,c
  3069  001B34  A0D8               	btfss	status,0,c
  3070  001B36  EF9F  F00D         	goto	i2u148_41
  3071  001B3A  EFA1  F00D         	goto	i2u148_40
  3072  001B3E                     i2u148_41:
  3073  001B3E  EFA7  F00D         	goto	i2l2264
  3074  001B42                     i2u148_40:
  3075  001B42  0E00               	movlw	0
  3076  001B44  6E0C               	movwf	(_switchSelectedPlayer$854+1)^0,c
  3077  001B46  0E02               	movlw	2
  3078  001B48  6E0B               	movwf	_switchSelectedPlayer$854^0,c
  3079  001B4A  EFAB  F00D         	goto	i2l2266
  3080  001B4E                     i2l2264:
  3081  001B4E  0E00               	movlw	0
  3082  001B50  6E0C               	movwf	(_switchSelectedPlayer$854+1)^0,c
  3083  001B52  0E00               	movlw	0
  3084  001B54  6E0B               	movwf	_switchSelectedPlayer$854^0,c
  3085  001B56                     i2l2266:
  3086  001B56  500B               	movf	_switchSelectedPlayer$854^0,w,c
  3087  001B58  ECD2  F013         	call	i2_LCDDat
  3088  001B5C                     
  3089                           ;newmain.c: 352:     LATB = 0;
  3090  001B5C  0E00               	movlw	0
  3091  001B5E  6E8A               	movwf	138,c	;volatile
  3092  001B60  0012               	return		;funcret
  3093  001B62                     __end_of_switchSelectedPlayer:
  3094                           	callstack 0
  3095                           
  3096 ;; *************** function _moveFrisbee *****************
  3097 ;; Defined at:
  3098 ;;		line 394 in file "newmain.c"
  3099 ;; Parameters:    Size  Location     Type
  3100 ;;		None
  3101 ;; Auto vars:     Size  Location     Type
  3102 ;;		None
  3103 ;; Return value:  Size  Location     Type
  3104 ;;                  1    wreg      void 
  3105 ;; Registers used:
  3106 ;;		wreg, fsr2l, fsr2h, status,2, status,0, tblptrl, tblptrh, tblptru, cstack
  3107 ;; Tracked objects:
  3108 ;;		On entry : 0/0
  3109 ;;		On exit  : 0/0
  3110 ;;		Unchanged: 0/0
  3111 ;; Data sizes:     COMRAM   BANK0   BANK1   BANK2   BANK3   BANK4   BANK5   BANK6   BANK7   BANK8   BANK9  BANK10  BANK1
      +1  BANK12  BANK13  BANK14  BANK15
  3112 ;;      Params:         0       0       0       0       0       0       0       0       0       0       0       0       
      +0       0       0       0       0
  3113 ;;      Locals:         2       0       0       0       0       0       0       0       0       0       0       0       
      +0       0       0       0       0
  3114 ;;      Temps:          4       0       0       0       0       0       0       0       0       0       0       0       
      +0       0       0       0       0
  3115 ;;      Totals:         6       0       0       0       0       0       0       0       0       0       0       0       
      +0       0       0       0       0
  3116 ;;Total ram usage:        6 bytes
  3117 ;; Hardware stack levels used:    1
  3118 ;; Hardware stack levels required when called:    2
  3119 ;; This function calls:
  3120 ;;		_LCDStr
  3121 ;;		_ifSelectedPlayerHold
  3122 ;;		_isThereAnyPlayer
  3123 ;;		i2_LCDDat
  3124 ;;		i2_LCDGoto
  3125 ;; This function is called by:
  3126 ;;		_FNC
  3127 ;; This function uses a non-reentrant model
  3128 ;;
  3129                           
  3130                           	psect	text16
  3131  001738                     __ptext16:
  3132                           	callstack 0
  3133  001738                     _moveFrisbee:
  3134                           	callstack 24
  3135  001738                     
  3136                           ;newmain.c: 396:     if( current_step == 16 || (frisbee_steps[current_step][0] == target
      +                          _x && frisbee_steps[current_step][1] == target_y)){
  3137  001738  0E10               	movlw	16
  3138  00173A  186D               	xorwf	_current_step^0,w,c
  3139  00173C  106E               	iorwf	(_current_step+1)^0,w,c
  3140  00173E  B4D8               	btfsc	status,2,c
  3141  001740  EFA4  F00B         	goto	i2u150_41
  3142  001744  EFA6  F00B         	goto	i2u150_40
  3143  001748                     i2u150_41:
  3144  001748  EFE2  F00B         	goto	i2l2308
  3145  00174C                     i2u150_40:
  3146  00174C  0E00               	movlw	low _frisbee_steps
  3147  00174E  6E0B               	movwf	??_moveFrisbee^0,c
  3148  001750  0E01               	movlw	high _frisbee_steps
  3149  001752  6E0C               	movwf	(??_moveFrisbee+1)^0,c
  3150  001754  90D8               	bcf	status,0,c
  3151  001756  346D               	rlcf	_current_step^0,w,c
  3152  001758  6ED9               	movwf	fsr2l,c
  3153  00175A  346E               	rlcf	(_current_step+1)^0,w,c
  3154  00175C  6EDA               	movwf	fsr2h,c
  3155  00175E  90D8               	bcf	status,0,c
  3156  001760  36D9               	rlcf	fsr2l,f,c
  3157  001762  36DA               	rlcf	fsr2h,f,c
  3158  001764  500B               	movf	??_moveFrisbee^0,w,c
  3159  001766  26D9               	addwf	fsr2l,f,c
  3160  001768  500C               	movf	(??_moveFrisbee+1)^0,w,c
  3161  00176A  22DA               	addwfc	fsr2h,f,c
  3162  00176C  5073               	movf	_target_x^0,w,c
  3163  00176E  18DE               	xorwf	postinc2,w,c
  3164  001770  E107               	bnz	i2u151_41
  3165  001772  5074               	movf	(_target_x+1)^0,w,c
  3166  001774  18DE               	xorwf	postinc2,w,c
  3167  001776  A4D8               	btfss	status,2,c
  3168  001778  EFC0  F00B         	goto	i2u151_41
  3169  00177C  EFC2  F00B         	goto	i2u151_40
  3170  001780                     i2u151_41:
  3171  001780  EF76  F00C         	goto	i2l2346
  3172  001784                     i2u151_40:
  3173  001784  0E00               	movlw	low _frisbee_steps
  3174  001786  6E0B               	movwf	??_moveFrisbee^0,c
  3175  001788  0E01               	movlw	high _frisbee_steps
  3176  00178A  6E0C               	movwf	(??_moveFrisbee+1)^0,c
  3177  00178C  0E02               	movlw	2
  3178  00178E  260B               	addwf	??_moveFrisbee^0,f,c
  3179  001790  0E00               	movlw	0
  3180  001792  220C               	addwfc	(??_moveFrisbee+1)^0,f,c
  3181  001794  90D8               	bcf	status,0,c
  3182  001796  346D               	rlcf	_current_step^0,w,c
  3183  001798  6ED9               	movwf	fsr2l,c
  3184  00179A  346E               	rlcf	(_current_step+1)^0,w,c
  3185  00179C  6EDA               	movwf	fsr2h,c
  3186  00179E  90D8               	bcf	status,0,c
  3187  0017A0  36D9               	rlcf	fsr2l,f,c
  3188  0017A2  36DA               	rlcf	fsr2h,f,c
  3189  0017A4  500B               	movf	??_moveFrisbee^0,w,c
  3190  0017A6  26D9               	addwf	fsr2l,f,c
  3191  0017A8  500C               	movf	(??_moveFrisbee+1)^0,w,c
  3192  0017AA  22DA               	addwfc	fsr2h,f,c
  3193  0017AC  5071               	movf	_target_y^0,w,c
  3194  0017AE  18DE               	xorwf	postinc2,w,c
  3195  0017B0  E107               	bnz	i2u152_41
  3196  0017B2  5072               	movf	(_target_y+1)^0,w,c
  3197  0017B4  18DE               	xorwf	postinc2,w,c
  3198  0017B6  A4D8               	btfss	status,2,c
  3199  0017B8  EFE0  F00B         	goto	i2u152_41
  3200  0017BC  EFE2  F00B         	goto	i2u152_40
  3201  0017C0                     i2u152_41:
  3202  0017C0  EF76  F00C         	goto	i2l2346
  3203  0017C4                     i2u152_40:
  3204  0017C4                     i2l2308:
  3205                           
  3206                           ;newmain.c: 398:         gameState.game_mode = 1;
  3207  0017C4  0E00               	movlw	0
  3208  0017C6  6E5B               	movwf	(_gameState+27)^0,c
  3209  0017C8  0E01               	movlw	1
  3210  0017CA  6E5A               	movwf	(_gameState+26)^0,c
  3211                           
  3212                           ;newmain.c: 399:         current_step = 0;
  3213  0017CC  0E00               	movlw	0
  3214  0017CE  6E6E               	movwf	(_current_step+1)^0,c
  3215  0017D0  0E00               	movlw	0
  3216  0017D2  6E6D               	movwf	_current_step^0,c
  3217  0017D4                     
  3218                           ;newmain.c: 401:         if(!isThereAnyPlayer(gameState.frisbee_position.x, gameState.fr
      +                          isbee_position.y)){
  3219  0017D4  C050  F001         	movff	_gameState+16,isThereAnyPlayer@x
  3220  0017D8  C051  F002         	movff	_gameState+17,isThereAnyPlayer@x+1
  3221  0017DC  C052  F003         	movff	_gameState+18,isThereAnyPlayer@y
  3222  0017E0  C053  F004         	movff	_gameState+19,isThereAnyPlayer@y+1
  3223  0017E4  EC2E  F00F         	call	_isThereAnyPlayer	;wreg free
  3224  0017E8  5001               	movf	?_isThereAnyPlayer^0,w,c
  3225  0017EA  1002               	iorwf	(?_isThereAnyPlayer+1)^0,w,c
  3226  0017EC  A4D8               	btfss	status,2,c
  3227  0017EE  EFFB  F00B         	goto	i2u153_41
  3228  0017F2  EFFD  F00B         	goto	i2u153_40
  3229  0017F6                     i2u153_41:
  3230  0017F6  EF08  F00C         	goto	i2l2316
  3231  0017FA                     i2u153_40:
  3232  0017FA                     
  3233                           ;newmain.c: 402:             LCDGoto(gameState.frisbee_position.x,gameState.frisbee_posi
      +                          tion.y);
  3234  0017FA  C052  F002         	movff	_gameState+18,i2LCDGoto@p_1
  3235  0017FE  5050               	movf	(_gameState+16)^0,w,c
  3236  001800  EC8A  F011         	call	i2_LCDGoto
  3237  001804                     
  3238                           ;newmain.c: 403:             LCDStr(" ");
  3239  001804  0E01               	movlw	low STR_1
  3240  001806  6E02               	movwf	LCDStr@str^0,c
  3241  001808  0E10               	movlw	high STR_1
  3242  00180A  6E03               	movwf	(LCDStr@str+1)^0,c
  3243  00180C  ECD3  F010         	call	_LCDStr	;wreg free
  3244  001810                     i2l2316:
  3245                           
  3246                           ;newmain.c: 405:         gameState.frisbee_position.x = target_x;
  3247  001810  C073  F050         	movff	_target_x,_gameState+16
  3248  001814  C074  F051         	movff	_target_x+1,_gameState+17
  3249  001818                     
  3250                           ;newmain.c: 406:         gameState.frisbee_position.y = target_y;
  3251  001818  C071  F052         	movff	_target_y,_gameState+18
  3252  00181C  C072  F053         	movff	_target_y+1,_gameState+19
  3253  001820                     
  3254                           ;newmain.c: 407:         if(ifSelectedPlayerHold()){
  3255  001820  EC8B  F010         	call	_ifSelectedPlayerHold	;wreg free
  3256  001824  5001               	movf	?_ifSelectedPlayerHold^0,w,c
  3257  001826  1002               	iorwf	(?_ifSelectedPlayerHold+1)^0,w,c
  3258  001828  B4D8               	btfsc	status,2,c
  3259  00182A  EF19  F00C         	goto	i2u154_41
  3260  00182E  EF1B  F00C         	goto	i2u154_40
  3261  001832                     i2u154_41:
  3262  001832  EF67  F00C         	goto	i2l2336
  3263  001836                     i2u154_40:
  3264  001836                     
  3265                           ;newmain.c: 408:             gameState.teamA_score += gameState.selected_player < 2 ? 1:
      +                          0;
  3266  001836  BE55               	btfsc	(_gameState+21)^0,7,c
  3267  001838  EF27  F00C         	goto	i2u155_41
  3268  00183C  5055               	movf	(_gameState+21)^0,w,c
  3269  00183E  E10A               	bnz	i2u155_40
  3270  001840  0E02               	movlw	2
  3271  001842  5C54               	subwf	(_gameState+20)^0,w,c
  3272  001844  A0D8               	btfss	status,0,c
  3273  001846  EF27  F00C         	goto	i2u155_41
  3274  00184A  EF2A  F00C         	goto	i2u155_40
  3275  00184E                     i2u155_41:
  3276  00184E  0E01               	movlw	1
  3277  001850  EF2B  F00C         	goto	i2u156_40
  3278  001854                     i2u155_40:
  3279  001854  0E00               	movlw	0
  3280  001856                     i2u156_40:
  3281  001856  2656               	addwf	(_gameState+22)^0,f,c
  3282  001858  0E00               	movlw	0
  3283  00185A  2257               	addwfc	(_gameState+23)^0,f,c
  3284                           
  3285                           ;newmain.c: 409:             gameState.teamB_score += gameState.selected_player >= 2 ? 1
      +                          :0;
  3286  00185C  BE55               	btfsc	(_gameState+21)^0,7,c
  3287  00185E  EF3D  F00C         	goto	i2u157_40
  3288  001862  5055               	movf	(_gameState+21)^0,w,c
  3289  001864  E107               	bnz	i2u157_41
  3290  001866  0E02               	movlw	2
  3291  001868  5C54               	subwf	(_gameState+20)^0,w,c
  3292  00186A  B0D8               	btfsc	status,0,c
  3293  00186C  EF3A  F00C         	goto	i2u157_41
  3294  001870  EF3D  F00C         	goto	i2u157_40
  3295  001874                     i2u157_41:
  3296  001874  0E01               	movlw	1
  3297  001876  EF3E  F00C         	goto	i2u158_40
  3298  00187A                     i2u157_40:
  3299  00187A  0E00               	movlw	0
  3300  00187C                     i2u158_40:
  3301  00187C  2658               	addwf	(_gameState+24)^0,f,c
  3302  00187E  0E00               	movlw	0
  3303  001880  2259               	addwfc	(_gameState+25)^0,f,c
  3304  001882                     
  3305                           ;newmain.c: 411:             LCDGoto(target_x,target_y);
  3306  001882  C071  F002         	movff	_target_y,i2LCDGoto@p_1
  3307  001886  5073               	movf	_target_x^0,w,c
  3308  001888  EC8A  F011         	call	i2_LCDGoto
  3309  00188C                     
  3310                           ;newmain.c: 412:             LCDDat (gameState.selected_player < 2 ? 5:6);
  3311  00188C  BE55               	btfsc	(_gameState+21)^0,7,c
  3312  00188E  EF52  F00C         	goto	i2u159_41
  3313  001892  5055               	movf	(_gameState+21)^0,w,c
  3314  001894  E109               	bnz	i2u159_40
  3315  001896  0E02               	movlw	2
  3316  001898  5C54               	subwf	(_gameState+20)^0,w,c
  3317  00189A  A0D8               	btfss	status,0,c
  3318  00189C  EF52  F00C         	goto	i2u159_41
  3319  0018A0  EF54  F00C         	goto	i2u159_40
  3320  0018A4                     i2u159_41:
  3321  0018A4  EF5A  F00C         	goto	i2l2330
  3322  0018A8                     i2u159_40:
  3323  0018A8  0E00               	movlw	0
  3324  0018AA  6E10               	movwf	(_moveFrisbee$879+1)^0,c
  3325  0018AC  0E06               	movlw	6
  3326  0018AE  6E0F               	movwf	_moveFrisbee$879^0,c
  3327  0018B0  EF5E  F00C         	goto	i2l2332
  3328  0018B4                     i2l2330:
  3329  0018B4  0E00               	movlw	0
  3330  0018B6  6E10               	movwf	(_moveFrisbee$879+1)^0,c
  3331  0018B8  0E05               	movlw	5
  3332  0018BA  6E0F               	movwf	_moveFrisbee$879^0,c
  3333  0018BC                     i2l2332:
  3334  0018BC  500F               	movf	_moveFrisbee$879^0,w,c
  3335  0018BE  ECD2  F013         	call	i2_LCDDat
  3336  0018C2                     
  3337                           ;newmain.c: 414:             frisbee_held = 1;
  3338  0018C2  0E00               	movlw	0
  3339  0018C4  6E70               	movwf	(_frisbee_held+1)^0,c
  3340  0018C6  0E01               	movlw	1
  3341  0018C8  6E6F               	movwf	_frisbee_held^0,c
  3342                           
  3343                           ;newmain.c: 415:         }
  3344  0018CA  EF6F  F00C         	goto	i2l2340
  3345  0018CE                     i2l2336:
  3346                           
  3347                           ;newmain.c: 417:             LCDGoto(target_x,target_y);
  3348  0018CE  C071  F002         	movff	_target_y,i2LCDGoto@p_1
  3349  0018D2  5073               	movf	_target_x^0,w,c
  3350  0018D4  EC8A  F011         	call	i2_LCDGoto
  3351  0018D8                     
  3352                           ;newmain.c: 418:             LCDDat(4);
  3353  0018D8  0E04               	movlw	4
  3354  0018DA  ECD2  F013         	call	i2_LCDDat
  3355  0018DE                     i2l2340:
  3356                           
  3357                           ;newmain.c: 423:         gameState.game_mode =1 ;
  3358  0018DE  0E00               	movlw	0
  3359  0018E0  6E5B               	movwf	(_gameState+27)^0,c
  3360  0018E2  0E01               	movlw	1
  3361  0018E4  6E5A               	movwf	(_gameState+26)^0,c
  3362  0018E6                     
  3363                           ;newmain.c: 424:         T0CONbits.TMR0ON = 0;
  3364  0018E6  9ED5               	bcf	213,7,c	;volatile
  3365  0018E8  EFE6  F00C         	goto	i2l298
  3366  0018EC                     i2l2346:
  3367                           
  3368                           ;newmain.c: 430:     if(current_step!=0 && !isThereAnyPlayer(gameState.frisbee_position.
      +                          x, gameState.frisbee_position.y)){
  3369  0018EC  506D               	movf	_current_step^0,w,c
  3370  0018EE  106E               	iorwf	(_current_step+1)^0,w,c
  3371  0018F0  B4D8               	btfsc	status,2,c
  3372  0018F2  EF7D  F00C         	goto	i2u160_41
  3373  0018F6  EF7F  F00C         	goto	i2u160_40
  3374  0018FA                     i2u160_41:
  3375  0018FA  EF9D  F00C         	goto	i2l2354
  3376  0018FE                     i2u160_40:
  3377  0018FE  C050  F001         	movff	_gameState+16,isThereAnyPlayer@x
  3378  001902  C051  F002         	movff	_gameState+17,isThereAnyPlayer@x+1
  3379  001906  C052  F003         	movff	_gameState+18,isThereAnyPlayer@y
  3380  00190A  C053  F004         	movff	_gameState+19,isThereAnyPlayer@y+1
  3381  00190E  EC2E  F00F         	call	_isThereAnyPlayer	;wreg free
  3382  001912  5001               	movf	?_isThereAnyPlayer^0,w,c
  3383  001914  1002               	iorwf	(?_isThereAnyPlayer+1)^0,w,c
  3384  001916  A4D8               	btfss	status,2,c
  3385  001918  EF90  F00C         	goto	i2u161_41
  3386  00191C  EF92  F00C         	goto	i2u161_40
  3387  001920                     i2u161_41:
  3388  001920  EF9D  F00C         	goto	i2l2354
  3389  001924                     i2u161_40:
  3390  001924                     
  3391                           ;newmain.c: 431:         LCDGoto(gameState.frisbee_position.x,gameState.frisbee_position
      +                          .y);
  3392  001924  C052  F002         	movff	_gameState+18,i2LCDGoto@p_1
  3393  001928  5050               	movf	(_gameState+16)^0,w,c
  3394  00192A  EC8A  F011         	call	i2_LCDGoto
  3395  00192E                     
  3396                           ;newmain.c: 432:         LCDStr(" ");
  3397  00192E  0E01               	movlw	low STR_1
  3398  001930  6E02               	movwf	LCDStr@str^0,c
  3399  001932  0E10               	movlw	high STR_1
  3400  001934  6E03               	movwf	(LCDStr@str+1)^0,c
  3401  001936  ECD3  F010         	call	_LCDStr	;wreg free
  3402  00193A                     i2l2354:
  3403                           
  3404                           ;newmain.c: 435:     gameState.frisbee_position.x = frisbee_steps[current_step][0] ;
  3405  00193A  0E00               	movlw	low _frisbee_steps
  3406  00193C  6E0B               	movwf	??_moveFrisbee^0,c
  3407  00193E  0E01               	movlw	high _frisbee_steps
  3408  001940  6E0C               	movwf	(??_moveFrisbee+1)^0,c
  3409  001942  90D8               	bcf	status,0,c
  3410  001944  346D               	rlcf	_current_step^0,w,c
  3411  001946  6ED9               	movwf	fsr2l,c
  3412  001948  346E               	rlcf	(_current_step+1)^0,w,c
  3413  00194A  6EDA               	movwf	fsr2h,c
  3414  00194C  90D8               	bcf	status,0,c
  3415  00194E  36D9               	rlcf	fsr2l,f,c
  3416  001950  36DA               	rlcf	fsr2h,f,c
  3417  001952  500B               	movf	??_moveFrisbee^0,w,c
  3418  001954  26D9               	addwf	fsr2l,f,c
  3419  001956  500C               	movf	(??_moveFrisbee+1)^0,w,c
  3420  001958  22DA               	addwfc	fsr2h,f,c
  3421  00195A  CFDE F050          	movff	postinc2,_gameState+16
  3422  00195E  CFDD F051          	movff	postdec2,_gameState+17
  3423  001962                     
  3424                           ;newmain.c: 436:     gameState.frisbee_position.y = frisbee_steps[current_step][1] ;
  3425  001962  0E00               	movlw	low _frisbee_steps
  3426  001964  6E0B               	movwf	??_moveFrisbee^0,c
  3427  001966  0E01               	movlw	high _frisbee_steps
  3428  001968  6E0C               	movwf	(??_moveFrisbee+1)^0,c
  3429  00196A  0E02               	movlw	2
  3430  00196C  260B               	addwf	??_moveFrisbee^0,f,c
  3431  00196E  0E00               	movlw	0
  3432  001970  220C               	addwfc	(??_moveFrisbee+1)^0,f,c
  3433  001972  90D8               	bcf	status,0,c
  3434  001974  346D               	rlcf	_current_step^0,w,c
  3435  001976  6ED9               	movwf	fsr2l,c
  3436  001978  346E               	rlcf	(_current_step+1)^0,w,c
  3437  00197A  6EDA               	movwf	fsr2h,c
  3438  00197C  90D8               	bcf	status,0,c
  3439  00197E  36D9               	rlcf	fsr2l,f,c
  3440  001980  36DA               	rlcf	fsr2h,f,c
  3441  001982  500B               	movf	??_moveFrisbee^0,w,c
  3442  001984  26D9               	addwf	fsr2l,f,c
  3443  001986  500C               	movf	(??_moveFrisbee+1)^0,w,c
  3444  001988  22DA               	addwfc	fsr2h,f,c
  3445  00198A  CFDE F052          	movff	postinc2,_gameState+18
  3446  00198E  CFDD F053          	movff	postdec2,_gameState+19
  3447  001992                     
  3448                           ;newmain.c: 439:     if(!isThereAnyPlayer(gameState.frisbee_position.x, gameState.frisbe
      +                          e_position.y)){
  3449  001992  C050  F001         	movff	_gameState+16,isThereAnyPlayer@x
  3450  001996  C051  F002         	movff	_gameState+17,isThereAnyPlayer@x+1
  3451  00199A  C052  F003         	movff	_gameState+18,isThereAnyPlayer@y
  3452  00199E  C053  F004         	movff	_gameState+19,isThereAnyPlayer@y+1
  3453  0019A2  EC2E  F00F         	call	_isThereAnyPlayer	;wreg free
  3454  0019A6  5001               	movf	?_isThereAnyPlayer^0,w,c
  3455  0019A8  1002               	iorwf	(?_isThereAnyPlayer+1)^0,w,c
  3456  0019AA  A4D8               	btfss	status,2,c
  3457  0019AC  EFDA  F00C         	goto	i2u162_41
  3458  0019B0  EFDC  F00C         	goto	i2u162_40
  3459  0019B4                     i2u162_41:
  3460  0019B4  EFE4  F00C         	goto	i2l300
  3461  0019B8                     i2u162_40:
  3462  0019B8                     
  3463                           ;newmain.c: 440:         LCDGoto(gameState.frisbee_position.x,gameState.frisbee_position
      +                          .y);
  3464  0019B8  C052  F002         	movff	_gameState+18,i2LCDGoto@p_1
  3465  0019BC  5050               	movf	(_gameState+16)^0,w,c
  3466  0019BE  EC8A  F011         	call	i2_LCDGoto
  3467  0019C2                     
  3468                           ;newmain.c: 441:         LCDDat(4);
  3469  0019C2  0E04               	movlw	4
  3470  0019C4  ECD2  F013         	call	i2_LCDDat
  3471  0019C8                     i2l300:
  3472                           
  3473                           ;newmain.c: 444:     current_step++;
  3474  0019C8  4A6D               	infsnz	_current_step^0,f,c
  3475  0019CA  2A6E               	incf	(_current_step+1)^0,f,c
  3476  0019CC                     i2l298:
  3477  0019CC  0012               	return		;funcret
  3478  0019CE                     __end_of_moveFrisbee:
  3479                           	callstack 0
  3480                           
  3481 ;; *************** function _isThereAnyPlayer *****************
  3482 ;; Defined at:
  3483 ;;		line 355 in file "newmain.c"
  3484 ;; Parameters:    Size  Location     Type
  3485 ;;  x               2    0[COMRAM] int 
  3486 ;;  y               2    2[COMRAM] int 
  3487 ;; Auto vars:     Size  Location     Type
  3488 ;;  i               2    8[COMRAM] int 
  3489 ;; Return value:  Size  Location     Type
  3490 ;;                  2    0[COMRAM] int 
  3491 ;; Registers used:
  3492 ;;		wreg, fsr2l, fsr2h, status,2, status,0
  3493 ;; Tracked objects:
  3494 ;;		On entry : 0/0
  3495 ;;		On exit  : 0/0
  3496 ;;		Unchanged: 0/0
  3497 ;; Data sizes:     COMRAM   BANK0   BANK1   BANK2   BANK3   BANK4   BANK5   BANK6   BANK7   BANK8   BANK9  BANK10  BANK1
      +1  BANK12  BANK13  BANK14  BANK15
  3498 ;;      Params:         4       0       0       0       0       0       0       0       0       0       0       0       
      +0       0       0       0       0
  3499 ;;      Locals:         2       0       0       0       0       0       0       0       0       0       0       0       
      +0       0       0       0       0
  3500 ;;      Temps:          4       0       0       0       0       0       0       0       0       0       0       0       
      +0       0       0       0       0
  3501 ;;      Totals:        10       0       0       0       0       0       0       0       0       0       0       0       
      +0       0       0       0       0
  3502 ;;Total ram usage:       10 bytes
  3503 ;; Hardware stack levels used:    1
  3504 ;; This function calls:
  3505 ;;		Nothing
  3506 ;; This function is called by:
  3507 ;;		_moveFrisbee
  3508 ;; This function uses a non-reentrant model
  3509 ;;
  3510                           
  3511                           	psect	text17
  3512  001E5C                     __ptext17:
  3513                           	callstack 0
  3514  001E5C                     _isThereAnyPlayer:
  3515                           	callstack 25
  3516  001E5C                     
  3517                           ;newmain.c: 356:    for (int i=0 ; i<4; i++){
  3518  001E5C  0E00               	movlw	0
  3519  001E5E  6E0A               	movwf	(isThereAnyPlayer@i+1)^0,c
  3520  001E60  0E00               	movlw	0
  3521  001E62  6E09               	movwf	isThereAnyPlayer@i^0,c
  3522  001E64                     i2l2064:
  3523                           
  3524                           ;newmain.c: 357:        if (gameState.player_positions[i].x == x && gameState.player_pos
      +                          itions[i].y == y){
  3525  001E64  0E40               	movlw	low _gameState
  3526  001E66  6E05               	movwf	??_isThereAnyPlayer^0,c
  3527  001E68  0E00               	movlw	high _gameState
  3528  001E6A  6E06               	movwf	(??_isThereAnyPlayer+1)^0,c
  3529  001E6C  90D8               	bcf	status,0,c
  3530  001E6E  3409               	rlcf	isThereAnyPlayer@i^0,w,c
  3531  001E70  6ED9               	movwf	fsr2l,c
  3532  001E72  340A               	rlcf	(isThereAnyPlayer@i+1)^0,w,c
  3533  001E74  6EDA               	movwf	fsr2h,c
  3534  001E76  90D8               	bcf	status,0,c
  3535  001E78  36D9               	rlcf	fsr2l,f,c
  3536  001E7A  36DA               	rlcf	fsr2h,f,c
  3537  001E7C  5005               	movf	??_isThereAnyPlayer^0,w,c
  3538  001E7E  26D9               	addwf	fsr2l,f,c
  3539  001E80  5006               	movf	(??_isThereAnyPlayer+1)^0,w,c
  3540  001E82  22DA               	addwfc	fsr2h,f,c
  3541  001E84  5001               	movf	isThereAnyPlayer@x^0,w,c
  3542  001E86  18DE               	xorwf	postinc2,w,c
  3543  001E88  E107               	bnz	i2u124_41
  3544  001E8A  5002               	movf	(isThereAnyPlayer@x+1)^0,w,c
  3545  001E8C  18DE               	xorwf	postinc2,w,c
  3546  001E8E  A4D8               	btfss	status,2,c
  3547  001E90  EF4C  F00F         	goto	i2u124_41
  3548  001E94  EF4E  F00F         	goto	i2u124_40
  3549  001E98                     i2u124_41:
  3550  001E98  EF74  F00F         	goto	i2l2072
  3551  001E9C                     i2u124_40:
  3552  001E9C  0E40               	movlw	low _gameState
  3553  001E9E  6E05               	movwf	??_isThereAnyPlayer^0,c
  3554  001EA0  0E00               	movlw	high _gameState
  3555  001EA2  6E06               	movwf	(??_isThereAnyPlayer+1)^0,c
  3556  001EA4  0E02               	movlw	2
  3557  001EA6  2605               	addwf	??_isThereAnyPlayer^0,f,c
  3558  001EA8  0E00               	movlw	0
  3559  001EAA  2206               	addwfc	(??_isThereAnyPlayer+1)^0,f,c
  3560  001EAC  90D8               	bcf	status,0,c
  3561  001EAE  3409               	rlcf	isThereAnyPlayer@i^0,w,c
  3562  001EB0  6ED9               	movwf	fsr2l,c
  3563  001EB2  340A               	rlcf	(isThereAnyPlayer@i+1)^0,w,c
  3564  001EB4  6EDA               	movwf	fsr2h,c
  3565  001EB6  90D8               	bcf	status,0,c
  3566  001EB8  36D9               	rlcf	fsr2l,f,c
  3567  001EBA  36DA               	rlcf	fsr2h,f,c
  3568  001EBC  5005               	movf	??_isThereAnyPlayer^0,w,c
  3569  001EBE  26D9               	addwf	fsr2l,f,c
  3570  001EC0  5006               	movf	(??_isThereAnyPlayer+1)^0,w,c
  3571  001EC2  22DA               	addwfc	fsr2h,f,c
  3572  001EC4  5003               	movf	isThereAnyPlayer@y^0,w,c
  3573  001EC6  18DE               	xorwf	postinc2,w,c
  3574  001EC8  E107               	bnz	i2u125_41
  3575  001ECA  5004               	movf	(isThereAnyPlayer@y+1)^0,w,c
  3576  001ECC  18DE               	xorwf	postinc2,w,c
  3577  001ECE  A4D8               	btfss	status,2,c
  3578  001ED0  EF6C  F00F         	goto	i2u125_41
  3579  001ED4  EF6E  F00F         	goto	i2u125_40
  3580  001ED8                     i2u125_41:
  3581  001ED8  EF74  F00F         	goto	i2l2072
  3582  001EDC                     i2u125_40:
  3583  001EDC                     
  3584                           ;newmain.c: 358:            return 1;
  3585  001EDC  0E00               	movlw	0
  3586  001EDE  6E02               	movwf	(?_isThereAnyPlayer+1)^0,c
  3587  001EE0  0E01               	movlw	1
  3588  001EE2  6E01               	movwf	?_isThereAnyPlayer^0,c
  3589  001EE4  EF88  F00F         	goto	i2l273
  3590  001EE8                     i2l2072:
  3591                           
  3592                           ;newmain.c: 360:    }
  3593  001EE8  4A09               	infsnz	isThereAnyPlayer@i^0,f,c
  3594  001EEA  2A0A               	incf	(isThereAnyPlayer@i+1)^0,f,c
  3595  001EEC  BE0A               	btfsc	(isThereAnyPlayer@i+1)^0,7,c
  3596  001EEE  EF82  F00F         	goto	i2u126_41
  3597  001EF2  500A               	movf	(isThereAnyPlayer@i+1)^0,w,c
  3598  001EF4  E109               	bnz	i2u126_40
  3599  001EF6  0E04               	movlw	4
  3600  001EF8  5C09               	subwf	isThereAnyPlayer@i^0,w,c
  3601  001EFA  A0D8               	btfss	status,0,c
  3602  001EFC  EF82  F00F         	goto	i2u126_41
  3603  001F00  EF84  F00F         	goto	i2u126_40
  3604  001F04                     i2u126_41:
  3605  001F04  EF32  F00F         	goto	i2l2064
  3606  001F08                     i2u126_40:
  3607  001F08                     
  3608                           ;newmain.c: 361:    return 0;
  3609  001F08  0E00               	movlw	0
  3610  001F0A  6E02               	movwf	(?_isThereAnyPlayer+1)^0,c
  3611  001F0C  0E00               	movlw	0
  3612  001F0E  6E01               	movwf	?_isThereAnyPlayer^0,c
  3613  001F10                     i2l273:
  3614  001F10  0012               	return		;funcret
  3615  001F12                     __end_of_isThereAnyPlayer:
  3616                           	callstack 0
  3617                           
  3618 ;; *************** function _ifSelectedPlayerHold *****************
  3619 ;; Defined at:
  3620 ;;		line 388 in file "newmain.c"
  3621 ;; Parameters:    Size  Location     Type
  3622 ;;		None
  3623 ;; Auto vars:     Size  Location     Type
  3624 ;;  selected_pla    2    7[COMRAM] int 
  3625 ;; Return value:  Size  Location     Type
  3626 ;;                  2    0[COMRAM] int 
  3627 ;; Registers used:
  3628 ;;		wreg, fsr2l, fsr2h, status,2, status,0
  3629 ;; Tracked objects:
  3630 ;;		On entry : 0/0
  3631 ;;		On exit  : 0/0
  3632 ;;		Unchanged: 0/0
  3633 ;; Data sizes:     COMRAM   BANK0   BANK1   BANK2   BANK3   BANK4   BANK5   BANK6   BANK7   BANK8   BANK9  BANK10  BANK1
      +1  BANK12  BANK13  BANK14  BANK15
  3634 ;;      Params:         2       0       0       0       0       0       0       0       0       0       0       0       
      +0       0       0       0       0
  3635 ;;      Locals:         3       0       0       0       0       0       0       0       0       0       0       0       
      +0       0       0       0       0
  3636 ;;      Temps:          4       0       0       0       0       0       0       0       0       0       0       0       
      +0       0       0       0       0
  3637 ;;      Totals:         9       0       0       0       0       0       0       0       0       0       0       0       
      +0       0       0       0       0
  3638 ;;Total ram usage:        9 bytes
  3639 ;; Hardware stack levels used:    1
  3640 ;; This function calls:
  3641 ;;		Nothing
  3642 ;; This function is called by:
  3643 ;;		_moveFrisbee
  3644 ;; This function uses a non-reentrant model
  3645 ;;
  3646                           
  3647                           	psect	text18
  3648  002116                     __ptext18:
  3649                           	callstack 0
  3650  002116                     _ifSelectedPlayerHold:
  3651                           	callstack 25
  3652  002116                     
  3653                           ;newmain.c: 389:     int selected_player = gameState.selected_player;
  3654  002116  C054  F008         	movff	_gameState+20,ifSelectedPlayerHold@selected_player
  3655  00211A  C055  F009         	movff	_gameState+21,ifSelectedPlayerHold@selected_player+1
  3656  00211E                     
  3657                           ;newmain.c: 390:     return gameState.frisbee_position.x == gameState.player_positions[s
      +                          elected_player].x &&
  3658  00211E  0E00               	movlw	0
  3659  002120  6E07               	movwf	_ifSelectedPlayerHold$874^0,c
  3660  002122  0E40               	movlw	low _gameState
  3661  002124  6E03               	movwf	??_ifSelectedPlayerHold^0,c
  3662  002126  0E00               	movlw	high _gameState
  3663  002128  6E04               	movwf	(??_ifSelectedPlayerHold+1)^0,c
  3664  00212A  90D8               	bcf	status,0,c
  3665  00212C  3408               	rlcf	ifSelectedPlayerHold@selected_player^0,w,c
  3666  00212E  6ED9               	movwf	fsr2l,c
  3667  002130  3409               	rlcf	(ifSelectedPlayerHold@selected_player+1)^0,w,c
  3668  002132  6EDA               	movwf	fsr2h,c
  3669  002134  90D8               	bcf	status,0,c
  3670  002136  36D9               	rlcf	fsr2l,f,c
  3671  002138  36DA               	rlcf	fsr2h,f,c
  3672  00213A  5003               	movf	??_ifSelectedPlayerHold^0,w,c
  3673  00213C  26D9               	addwf	fsr2l,f,c
  3674  00213E  5004               	movf	(??_ifSelectedPlayerHold+1)^0,w,c
  3675  002140  22DA               	addwfc	fsr2h,f,c
  3676  002142  50DE               	movf	postinc2,w,c
  3677  002144  1850               	xorwf	(_gameState+16)^0,w,c
  3678  002146  E107               	bnz	i2u127_41
  3679  002148  50DE               	movf	postinc2,w,c
  3680  00214A  1851               	xorwf	(_gameState+17)^0,w,c
  3681  00214C  A4D8               	btfss	status,2,c
  3682  00214E  EFAB  F010         	goto	i2u127_41
  3683  002152  EFAD  F010         	goto	i2u127_40
  3684  002156                     i2u127_41:
  3685  002156  EFCF  F010         	goto	i2l2090
  3686  00215A                     i2u127_40:
  3687  00215A  0E40               	movlw	low _gameState
  3688  00215C  6E03               	movwf	??_ifSelectedPlayerHold^0,c
  3689  00215E  0E00               	movlw	high _gameState
  3690  002160  6E04               	movwf	(??_ifSelectedPlayerHold+1)^0,c
  3691  002162  0E02               	movlw	2
  3692  002164  2603               	addwf	??_ifSelectedPlayerHold^0,f,c
  3693  002166  0E00               	movlw	0
  3694  002168  2204               	addwfc	(??_ifSelectedPlayerHold+1)^0,f,c
  3695  00216A  90D8               	bcf	status,0,c
  3696  00216C  3408               	rlcf	ifSelectedPlayerHold@selected_player^0,w,c
  3697  00216E  6ED9               	movwf	fsr2l,c
  3698  002170  3409               	rlcf	(ifSelectedPlayerHold@selected_player+1)^0,w,c
  3699  002172  6EDA               	movwf	fsr2h,c
  3700  002174  90D8               	bcf	status,0,c
  3701  002176  36D9               	rlcf	fsr2l,f,c
  3702  002178  36DA               	rlcf	fsr2h,f,c
  3703  00217A  5003               	movf	??_ifSelectedPlayerHold^0,w,c
  3704  00217C  26D9               	addwf	fsr2l,f,c
  3705  00217E  5004               	movf	(??_ifSelectedPlayerHold+1)^0,w,c
  3706  002180  22DA               	addwfc	fsr2h,f,c
  3707  002182  50DE               	movf	postinc2,w,c
  3708  002184  1852               	xorwf	(_gameState+18)^0,w,c
  3709  002186  E107               	bnz	i2u128_41
  3710  002188  50DE               	movf	postinc2,w,c
  3711  00218A  1853               	xorwf	(_gameState+19)^0,w,c
  3712  00218C  A4D8               	btfss	status,2,c
  3713  00218E  EFCB  F010         	goto	i2u128_41
  3714  002192  EFCD  F010         	goto	i2u128_40
  3715  002196                     i2u128_41:
  3716  002196  EFCF  F010         	goto	i2l2090
  3717  00219A                     i2u128_40:
  3718  00219A  0E01               	movlw	1
  3719  00219C  6E07               	movwf	_ifSelectedPlayerHold$874^0,c
  3720  00219E                     i2l2090:
  3721  00219E  C007  F001         	movff	_ifSelectedPlayerHold$874,?_ifSelectedPlayerHold
  3722  0021A2  6A02               	clrf	(?_ifSelectedPlayerHold+1)^0,c
  3723  0021A4  0012               	return		;funcret
  3724  0021A6                     __end_of_ifSelectedPlayerHold:
  3725                           	callstack 0
  3726                           
  3727 ;; *************** function _gamepadPressed *****************
  3728 ;; Defined at:
  3729 ;;		line 201 in file "newmain.c"
  3730 ;; Parameters:    Size  Location     Type
  3731 ;;		None
  3732 ;; Auto vars:     Size  Location     Type
  3733 ;;  oldY            2   24[COMRAM] int 
  3734 ;;  oldX            2   22[COMRAM] int 
  3735 ;;  current_port    1   26[COMRAM] unsigned char 
  3736 ;; Return value:  Size  Location     Type
  3737 ;;                  1    wreg      void 
  3738 ;; Registers used:
  3739 ;;		wreg, fsr2l, fsr2h, status,2, status,0, tblptrl, tblptrh, tblptru, cstack
  3740 ;; Tracked objects:
  3741 ;;		On entry : 0/0
  3742 ;;		On exit  : 0/0
  3743 ;;		Unchanged: 0/0
  3744 ;; Data sizes:     COMRAM   BANK0   BANK1   BANK2   BANK3   BANK4   BANK5   BANK6   BANK7   BANK8   BANK9  BANK10  BANK1
      +1  BANK12  BANK13  BANK14  BANK15
  3745 ;;      Params:         0       0       0       0       0       0       0       0       0       0       0       0       
      +0       0       0       0       0
  3746 ;;      Locals:         5       0       0       0       0       0       0       0       0       0       0       0       
      +0       0       0       0       0
  3747 ;;      Temps:          4       0       0       0       0       0       0       0       0       0       0       0       
      +0       0       0       0       0
  3748 ;;      Totals:         9       0       0       0       0       0       0       0       0       0       0       0       
      +0       0       0       0       0
  3749 ;;Total ram usage:        9 bytes
  3750 ;; Hardware stack levels used:    1
  3751 ;; Hardware stack levels required when called:    3
  3752 ;; This function calls:
  3753 ;;		_frisbeeHeld
  3754 ;;		_frisbeeHeldOnLCD
  3755 ;;		_frisbeeReleasedOnLCD
  3756 ;;		_hasPlayerLeftFrisbeeLocation
  3757 ;;		_isThereOtherPlayer
  3758 ;;		_moveSelectedPlayerPositionOnLCD
  3759 ;; This function is called by:
  3760 ;;		_FNC
  3761 ;; This function uses a non-reentrant model
  3762 ;;
  3763                           
  3764                           	psect	text19
  3765  001004                     __ptext19:
  3766                           	callstack 0
  3767  001004                     _gamepadPressed:
  3768                           	callstack 23
  3769  001004                     
  3770                           ;newmain.c: 202:     byte current_portb = PORTB;;
  3771  001004  CF81 F01B          	movff	3969,gamepadPressed@current_portb	;volatile
  3772  001008                     
  3773                           ;newmain.c: 203:     _delay((unsigned long)((1)*(40000000L/4000.0)));
  3774  001008  0E0D               	movlw	13
  3775  00100A  6E13               	movwf	??_gamepadPressed^0,c
  3776  00100C  0EFC               	movlw	252
  3777  00100E                     i2u183_47:
  3778  00100E  2EE8               	decfsz	wreg,f,c
  3779  001010  D7FE               	bra	i2u183_47
  3780  001012  2E13               	decfsz	??_gamepadPressed^0,f,c
  3781  001014  D7FC               	bra	i2u183_47
  3782  001016                     
  3783                           ;newmain.c: 204:     int oldX = gameState.player_positions[gameState.selected_player].x;
  3784  001016  0E40               	movlw	low _gameState
  3785  001018  6E13               	movwf	??_gamepadPressed^0,c
  3786  00101A  0E00               	movlw	high _gameState
  3787  00101C  6E14               	movwf	(??_gamepadPressed+1)^0,c
  3788  00101E  90D8               	bcf	status,0,c
  3789  001020  3454               	rlcf	(_gameState+20)^0,w,c
  3790  001022  6ED9               	movwf	fsr2l,c
  3791  001024  3455               	rlcf	(_gameState+21)^0,w,c
  3792  001026  6EDA               	movwf	fsr2h,c
  3793  001028  90D8               	bcf	status,0,c
  3794  00102A  36D9               	rlcf	fsr2l,f,c
  3795  00102C  36DA               	rlcf	fsr2h,f,c
  3796  00102E  5013               	movf	??_gamepadPressed^0,w,c
  3797  001030  26D9               	addwf	fsr2l,f,c
  3798  001032  5014               	movf	(??_gamepadPressed+1)^0,w,c
  3799  001034  22DA               	addwfc	fsr2h,f,c
  3800  001036  CFDE F017          	movff	postinc2,gamepadPressed@oldX
  3801  00103A  CFDD F018          	movff	postdec2,gamepadPressed@oldX+1
  3802  00103E                     
  3803                           ;newmain.c: 205:     int oldY = gameState.player_positions[gameState.selected_player].y;
  3804  00103E  0E40               	movlw	low _gameState
  3805  001040  6E13               	movwf	??_gamepadPressed^0,c
  3806  001042  0E00               	movlw	high _gameState
  3807  001044  6E14               	movwf	(??_gamepadPressed+1)^0,c
  3808  001046  0E02               	movlw	2
  3809  001048  2613               	addwf	??_gamepadPressed^0,f,c
  3810  00104A  0E00               	movlw	0
  3811  00104C  2214               	addwfc	(??_gamepadPressed+1)^0,f,c
  3812  00104E  90D8               	bcf	status,0,c
  3813  001050  3454               	rlcf	(_gameState+20)^0,w,c
  3814  001052  6ED9               	movwf	fsr2l,c
  3815  001054  3455               	rlcf	(_gameState+21)^0,w,c
  3816  001056  6EDA               	movwf	fsr2h,c
  3817  001058  90D8               	bcf	status,0,c
  3818  00105A  36D9               	rlcf	fsr2l,f,c
  3819  00105C  36DA               	rlcf	fsr2h,f,c
  3820  00105E  5013               	movf	??_gamepadPressed^0,w,c
  3821  001060  26D9               	addwf	fsr2l,f,c
  3822  001062  5014               	movf	(??_gamepadPressed+1)^0,w,c
  3823  001064  22DA               	addwfc	fsr2h,f,c
  3824  001066  CFDE F019          	movff	postinc2,gamepadPressed@oldY
  3825  00106A  CFDD F01A          	movff	postdec2,gamepadPressed@oldY+1
  3826  00106E                     
  3827                           ;newmain.c: 210:     if (((previous_portb & 0b00010000) == 0b00010000) && ((current_port
      +                          b & 0b00010000) == 0))
  3828  00106E  A876               	btfss	_previous_portb^0,4,c
  3829  001070  EF3C  F008         	goto	i2u129_41
  3830  001074  EF3E  F008         	goto	i2u129_40
  3831  001078                     i2u129_41:
  3832  001078  EF94  F008         	goto	i2l235
  3833  00107C                     i2u129_40:
  3834  00107C  B81B               	btfsc	gamepadPressed@current_portb^0,4,c
  3835  00107E  EF43  F008         	goto	i2u130_41
  3836  001082  EF45  F008         	goto	i2u130_40
  3837  001086                     i2u130_41:
  3838  001086  EF94  F008         	goto	i2l235
  3839  00108A                     i2u130_40:
  3840  00108A                     
  3841                           ;newmain.c: 211:     {;newmain.c: 212:         if (gameState.player_positions[gameState.
      +                          selected_player].y == 1){
  3842  00108A  0E40               	movlw	low _gameState
  3843  00108C  6E13               	movwf	??_gamepadPressed^0,c
  3844  00108E  0E00               	movlw	high _gameState
  3845  001090  6E14               	movwf	(??_gamepadPressed+1)^0,c
  3846  001092  0E02               	movlw	2
  3847  001094  2613               	addwf	??_gamepadPressed^0,f,c
  3848  001096  0E00               	movlw	0
  3849  001098  2214               	addwfc	(??_gamepadPressed+1)^0,f,c
  3850  00109A  90D8               	bcf	status,0,c
  3851  00109C  3454               	rlcf	(_gameState+20)^0,w,c
  3852  00109E  6ED9               	movwf	fsr2l,c
  3853  0010A0  3455               	rlcf	(_gameState+21)^0,w,c
  3854  0010A2  6EDA               	movwf	fsr2h,c
  3855  0010A4  90D8               	bcf	status,0,c
  3856  0010A6  36D9               	rlcf	fsr2l,f,c
  3857  0010A8  36DA               	rlcf	fsr2h,f,c
  3858  0010AA  5013               	movf	??_gamepadPressed^0,w,c
  3859  0010AC  26D9               	addwf	fsr2l,f,c
  3860  0010AE  5014               	movf	(??_gamepadPressed+1)^0,w,c
  3861  0010B0  22DA               	addwfc	fsr2h,f,c
  3862  0010B2  04DE               	decf	postinc2,w,c
  3863  0010B4  10DE               	iorwf	postinc2,w,c
  3864  0010B6  A4D8               	btfss	status,2,c
  3865  0010B8  EF60  F008         	goto	i2u131_41
  3866  0010BC  EF62  F008         	goto	i2u131_40
  3867  0010C0                     i2u131_41:
  3868  0010C0  EF64  F008         	goto	i2l2168
  3869  0010C4                     i2u131_40:
  3870  0010C4  EFF3  F009         	goto	i2l237
  3871  0010C8                     i2l2168:
  3872                           
  3873                           ;newmain.c: 215:         if (isThereOtherPlayer(oldX,oldY-1)){
  3874  0010C8  C017  F001         	movff	gamepadPressed@oldX,isThereOtherPlayer@oldX
  3875  0010CC  C018  F002         	movff	gamepadPressed@oldX+1,isThereOtherPlayer@oldX+1
  3876  0010D0  0EFF               	movlw	255
  3877  0010D2  2419               	addwf	gamepadPressed@oldY^0,w,c
  3878  0010D4  6E03               	movwf	isThereOtherPlayer@oldY^0,c
  3879  0010D6  0EFF               	movlw	255
  3880  0010D8  201A               	addwfc	(gamepadPressed@oldY+1)^0,w,c
  3881  0010DA  6E04               	movwf	(isThereOtherPlayer@oldY+1)^0,c
  3882  0010DC  EC89  F00F         	call	_isThereOtherPlayer	;wreg free
  3883  0010E0  5001               	movf	?_isThereOtherPlayer^0,w,c
  3884  0010E2  1002               	iorwf	(?_isThereOtherPlayer+1)^0,w,c
  3885  0010E4  B4D8               	btfsc	status,2,c
  3886  0010E6  EF77  F008         	goto	i2u132_41
  3887  0010EA  EF79  F008         	goto	i2u132_40
  3888  0010EE                     i2u132_41:
  3889  0010EE  EF7B  F008         	goto	i2l2172
  3890  0010F2                     i2u132_40:
  3891  0010F2  EFF3  F009         	goto	i2l237
  3892  0010F6                     i2l2172:
  3893                           
  3894                           ;newmain.c: 219:         gameState.player_positions[gameState.selected_player].y--;
  3895  0010F6  0E40               	movlw	low _gameState
  3896  0010F8  6E13               	movwf	??_gamepadPressed^0,c
  3897  0010FA  0E00               	movlw	high _gameState
  3898  0010FC  6E14               	movwf	(??_gamepadPressed+1)^0,c
  3899  0010FE  0E02               	movlw	2
  3900  001100  2613               	addwf	??_gamepadPressed^0,f,c
  3901  001102  0E00               	movlw	0
  3902  001104  2214               	addwfc	(??_gamepadPressed+1)^0,f,c
  3903  001106  90D8               	bcf	status,0,c
  3904  001108  3454               	rlcf	(_gameState+20)^0,w,c
  3905  00110A  6ED9               	movwf	fsr2l,c
  3906  00110C  3455               	rlcf	(_gameState+21)^0,w,c
  3907  00110E  6EDA               	movwf	fsr2h,c
  3908  001110  90D8               	bcf	status,0,c
  3909  001112  36D9               	rlcf	fsr2l,f,c
  3910  001114  36DA               	rlcf	fsr2h,f,c
  3911  001116  5013               	movf	??_gamepadPressed^0,w,c
  3912  001118  26D9               	addwf	fsr2l,f,c
  3913  00111A  5014               	movf	(??_gamepadPressed+1)^0,w,c
  3914  00111C  22DA               	addwfc	fsr2h,f,c
  3915  00111E  06DE               	decf	postinc2,f,c
  3916  001120  0E00               	movlw	0
  3917  001122  5ADD               	subwfb	postdec2,f,c
  3918                           
  3919                           ;newmain.c: 220:     } else if (((previous_portb & 0b01000000) == 0b01000000) && ((curre
      +                          nt_portb & 0b01000000) == 0))
  3920  001124  EF9D  F009         	goto	i2l239
  3921  001128                     i2l235:
  3922  001128  AC76               	btfss	_previous_portb^0,6,c
  3923  00112A  EF99  F008         	goto	i2u133_41
  3924  00112E  EF9B  F008         	goto	i2u133_40
  3925  001132                     i2u133_41:
  3926  001132  EFF2  F008         	goto	i2l240
  3927  001136                     i2u133_40:
  3928  001136  BC1B               	btfsc	gamepadPressed@current_portb^0,6,c
  3929  001138  EFA0  F008         	goto	i2u134_41
  3930  00113C  EFA2  F008         	goto	i2u134_40
  3931  001140                     i2u134_41:
  3932  001140  EFF2  F008         	goto	i2l240
  3933  001144                     i2u134_40:
  3934  001144                     
  3935                           ;newmain.c: 221:     {;newmain.c: 222:         if (gameState.player_positions[gameState.
      +                          selected_player].y == 4){
  3936  001144  0E40               	movlw	low _gameState
  3937  001146  6E13               	movwf	??_gamepadPressed^0,c
  3938  001148  0E00               	movlw	high _gameState
  3939  00114A  6E14               	movwf	(??_gamepadPressed+1)^0,c
  3940  00114C  0E02               	movlw	2
  3941  00114E  2613               	addwf	??_gamepadPressed^0,f,c
  3942  001150  0E00               	movlw	0
  3943  001152  2214               	addwfc	(??_gamepadPressed+1)^0,f,c
  3944  001154  90D8               	bcf	status,0,c
  3945  001156  3454               	rlcf	(_gameState+20)^0,w,c
  3946  001158  6ED9               	movwf	fsr2l,c
  3947  00115A  3455               	rlcf	(_gameState+21)^0,w,c
  3948  00115C  6EDA               	movwf	fsr2h,c
  3949  00115E  90D8               	bcf	status,0,c
  3950  001160  36D9               	rlcf	fsr2l,f,c
  3951  001162  36DA               	rlcf	fsr2h,f,c
  3952  001164  5013               	movf	??_gamepadPressed^0,w,c
  3953  001166  26D9               	addwf	fsr2l,f,c
  3954  001168  5014               	movf	(??_gamepadPressed+1)^0,w,c
  3955  00116A  22DA               	addwfc	fsr2h,f,c
  3956  00116C  0E04               	movlw	4
  3957  00116E  18DE               	xorwf	postinc2,w,c
  3958  001170  10DE               	iorwf	postinc2,w,c
  3959  001172  A4D8               	btfss	status,2,c
  3960  001174  EFBE  F008         	goto	i2u135_41
  3961  001178  EFC0  F008         	goto	i2u135_40
  3962  00117C                     i2u135_41:
  3963  00117C  EFC2  F008         	goto	i2l2180
  3964  001180                     i2u135_40:
  3965  001180  EFF3  F009         	goto	i2l237
  3966  001184                     i2l2180:
  3967                           
  3968                           ;newmain.c: 225:         if (isThereOtherPlayer(oldX,oldY+1)){
  3969  001184  C017  F001         	movff	gamepadPressed@oldX,isThereOtherPlayer@oldX
  3970  001188  C018  F002         	movff	gamepadPressed@oldX+1,isThereOtherPlayer@oldX+1
  3971  00118C  0E01               	movlw	1
  3972  00118E  2419               	addwf	gamepadPressed@oldY^0,w,c
  3973  001190  6E03               	movwf	isThereOtherPlayer@oldY^0,c
  3974  001192  0E00               	movlw	0
  3975  001194  201A               	addwfc	(gamepadPressed@oldY+1)^0,w,c
  3976  001196  6E04               	movwf	(isThereOtherPlayer@oldY+1)^0,c
  3977  001198  EC89  F00F         	call	_isThereOtherPlayer	;wreg free
  3978  00119C  5001               	movf	?_isThereOtherPlayer^0,w,c
  3979  00119E  1002               	iorwf	(?_isThereOtherPlayer+1)^0,w,c
  3980  0011A0  B4D8               	btfsc	status,2,c
  3981  0011A2  EFD5  F008         	goto	i2u136_41
  3982  0011A6  EFD7  F008         	goto	i2u136_40
  3983  0011AA                     i2u136_41:
  3984  0011AA  EFD9  F008         	goto	i2l2184
  3985  0011AE                     i2u136_40:
  3986  0011AE  EFF3  F009         	goto	i2l237
  3987  0011B2                     i2l2184:
  3988                           
  3989                           ;newmain.c: 228:         gameState.player_positions[gameState.selected_player].y++;
  3990  0011B2  0E40               	movlw	low _gameState
  3991  0011B4  6E13               	movwf	??_gamepadPressed^0,c
  3992  0011B6  0E00               	movlw	high _gameState
  3993  0011B8  6E14               	movwf	(??_gamepadPressed+1)^0,c
  3994  0011BA  0E02               	movlw	2
  3995  0011BC  2613               	addwf	??_gamepadPressed^0,f,c
  3996  0011BE  0E00               	movlw	0
  3997  0011C0  2214               	addwfc	(??_gamepadPressed+1)^0,f,c
  3998  0011C2  90D8               	bcf	status,0,c
  3999  0011C4  3454               	rlcf	(_gameState+20)^0,w,c
  4000  0011C6  6ED9               	movwf	fsr2l,c
  4001  0011C8  3455               	rlcf	(_gameState+21)^0,w,c
  4002  0011CA  6EDA               	movwf	fsr2h,c
  4003  0011CC  90D8               	bcf	status,0,c
  4004  0011CE  36D9               	rlcf	fsr2l,f,c
  4005  0011D0  36DA               	rlcf	fsr2h,f,c
  4006  0011D2  5013               	movf	??_gamepadPressed^0,w,c
  4007  0011D4  26D9               	addwf	fsr2l,f,c
  4008  0011D6  5014               	movf	(??_gamepadPressed+1)^0,w,c
  4009  0011D8  22DA               	addwfc	fsr2h,f,c
  4010  0011DA  2ADE               	incf	postinc2,f,c
  4011  0011DC  0E00               	movlw	0
  4012  0011DE  22DD               	addwfc	postdec2,f,c
  4013                           
  4014                           ;newmain.c: 229:     } else if (((previous_portb & 0b10000000) == 0b10000000) && ((curre
      +                          nt_portb & 0b10000000) == 0))
  4015  0011E0  EF9D  F009         	goto	i2l239
  4016  0011E4                     i2l240:
  4017  0011E4  AE76               	btfss	_previous_portb^0,7,c
  4018  0011E6  EFF7  F008         	goto	i2u137_41
  4019  0011EA  EFF9  F008         	goto	i2u137_40
  4020  0011EE                     i2u137_41:
  4021  0011EE  EF47  F009         	goto	i2l244
  4022  0011F2                     i2u137_40:
  4023  0011F2  BE1B               	btfsc	gamepadPressed@current_portb^0,7,c
  4024  0011F4  EFFE  F008         	goto	i2u138_41
  4025  0011F8  EF00  F009         	goto	i2u138_40
  4026  0011FC                     i2u138_41:
  4027  0011FC  EF47  F009         	goto	i2l244
  4028  001200                     i2u138_40:
  4029  001200                     
  4030                           ;newmain.c: 230:     {;newmain.c: 231:         if (gameState.player_positions[gameState.
      +                          selected_player].x == 1) {
  4031  001200  0E40               	movlw	low _gameState
  4032  001202  6E13               	movwf	??_gamepadPressed^0,c
  4033  001204  0E00               	movlw	high _gameState
  4034  001206  6E14               	movwf	(??_gamepadPressed+1)^0,c
  4035  001208  90D8               	bcf	status,0,c
  4036  00120A  3454               	rlcf	(_gameState+20)^0,w,c
  4037  00120C  6ED9               	movwf	fsr2l,c
  4038  00120E  3455               	rlcf	(_gameState+21)^0,w,c
  4039  001210  6EDA               	movwf	fsr2h,c
  4040  001212  90D8               	bcf	status,0,c
  4041  001214  36D9               	rlcf	fsr2l,f,c
  4042  001216  36DA               	rlcf	fsr2h,f,c
  4043  001218  5013               	movf	??_gamepadPressed^0,w,c
  4044  00121A  26D9               	addwf	fsr2l,f,c
  4045  00121C  5014               	movf	(??_gamepadPressed+1)^0,w,c
  4046  00121E  22DA               	addwfc	fsr2h,f,c
  4047  001220  04DE               	decf	postinc2,w,c
  4048  001222  10DE               	iorwf	postinc2,w,c
  4049  001224  A4D8               	btfss	status,2,c
  4050  001226  EF17  F009         	goto	i2u139_41
  4051  00122A  EF19  F009         	goto	i2u139_40
  4052  00122E                     i2u139_41:
  4053  00122E  EF1B  F009         	goto	i2l2192
  4054  001232                     i2u139_40:
  4055  001232  EFF3  F009         	goto	i2l237
  4056  001236                     i2l2192:
  4057                           
  4058                           ;newmain.c: 234:         if (isThereOtherPlayer(oldX-1,oldY)){
  4059  001236  0EFF               	movlw	255
  4060  001238  2417               	addwf	gamepadPressed@oldX^0,w,c
  4061  00123A  6E01               	movwf	isThereOtherPlayer@oldX^0,c
  4062  00123C  0EFF               	movlw	255
  4063  00123E  2018               	addwfc	(gamepadPressed@oldX+1)^0,w,c
  4064  001240  6E02               	movwf	(isThereOtherPlayer@oldX+1)^0,c
  4065  001242  C019  F003         	movff	gamepadPressed@oldY,isThereOtherPlayer@oldY
  4066  001246  C01A  F004         	movff	gamepadPressed@oldY+1,isThereOtherPlayer@oldY+1
  4067  00124A  EC89  F00F         	call	_isThereOtherPlayer	;wreg free
  4068  00124E  5001               	movf	?_isThereOtherPlayer^0,w,c
  4069  001250  1002               	iorwf	(?_isThereOtherPlayer+1)^0,w,c
  4070  001252  B4D8               	btfsc	status,2,c
  4071  001254  EF2E  F009         	goto	i2u140_41
  4072  001258  EF30  F009         	goto	i2u140_40
  4073  00125C                     i2u140_41:
  4074  00125C  EF32  F009         	goto	i2l2196
  4075  001260                     i2u140_40:
  4076  001260  EFF3  F009         	goto	i2l237
  4077  001264                     i2l2196:
  4078                           
  4079                           ;newmain.c: 237:         gameState.player_positions[gameState.selected_player].x--;
  4080  001264  0E40               	movlw	low _gameState
  4081  001266  6E13               	movwf	??_gamepadPressed^0,c
  4082  001268  0E00               	movlw	high _gameState
  4083  00126A  6E14               	movwf	(??_gamepadPressed+1)^0,c
  4084  00126C  90D8               	bcf	status,0,c
  4085  00126E  3454               	rlcf	(_gameState+20)^0,w,c
  4086  001270  6ED9               	movwf	fsr2l,c
  4087  001272  3455               	rlcf	(_gameState+21)^0,w,c
  4088  001274  6EDA               	movwf	fsr2h,c
  4089  001276  90D8               	bcf	status,0,c
  4090  001278  36D9               	rlcf	fsr2l,f,c
  4091  00127A  36DA               	rlcf	fsr2h,f,c
  4092  00127C  5013               	movf	??_gamepadPressed^0,w,c
  4093  00127E  26D9               	addwf	fsr2l,f,c
  4094  001280  5014               	movf	(??_gamepadPressed+1)^0,w,c
  4095  001282  22DA               	addwfc	fsr2h,f,c
  4096  001284  06DE               	decf	postinc2,f,c
  4097  001286  0E00               	movlw	0
  4098  001288  5ADD               	subwfb	postdec2,f,c
  4099                           
  4100                           ;newmain.c: 238:     } else if (((previous_portb & 0b00100000) == 0b00100000) && ((curre
      +                          nt_portb & 0b00100000) == 0))
  4101  00128A  EF9D  F009         	goto	i2l239
  4102  00128E                     i2l244:
  4103  00128E  AA76               	btfss	_previous_portb^0,5,c
  4104  001290  EF4C  F009         	goto	i2u141_41
  4105  001294  EF4E  F009         	goto	i2u141_40
  4106  001298                     i2u141_41:
  4107  001298  EF9D  F009         	goto	i2l247
  4108  00129C                     i2u141_40:
  4109  00129C  BA1B               	btfsc	gamepadPressed@current_portb^0,5,c
  4110  00129E  EF53  F009         	goto	i2u142_41
  4111  0012A2  EF55  F009         	goto	i2u142_40
  4112  0012A6                     i2u142_41:
  4113  0012A6  EF9D  F009         	goto	i2l247
  4114  0012AA                     i2u142_40:
  4115  0012AA                     
  4116                           ;newmain.c: 239:     {;newmain.c: 240:         if (gameState.player_positions[gameState.
      +                          selected_player].x == 16) {
  4117  0012AA  0E40               	movlw	low _gameState
  4118  0012AC  6E13               	movwf	??_gamepadPressed^0,c
  4119  0012AE  0E00               	movlw	high _gameState
  4120  0012B0  6E14               	movwf	(??_gamepadPressed+1)^0,c
  4121  0012B2  90D8               	bcf	status,0,c
  4122  0012B4  3454               	rlcf	(_gameState+20)^0,w,c
  4123  0012B6  6ED9               	movwf	fsr2l,c
  4124  0012B8  3455               	rlcf	(_gameState+21)^0,w,c
  4125  0012BA  6EDA               	movwf	fsr2h,c
  4126  0012BC  90D8               	bcf	status,0,c
  4127  0012BE  36D9               	rlcf	fsr2l,f,c
  4128  0012C0  36DA               	rlcf	fsr2h,f,c
  4129  0012C2  5013               	movf	??_gamepadPressed^0,w,c
  4130  0012C4  26D9               	addwf	fsr2l,f,c
  4131  0012C6  5014               	movf	(??_gamepadPressed+1)^0,w,c
  4132  0012C8  22DA               	addwfc	fsr2h,f,c
  4133  0012CA  0E10               	movlw	16
  4134  0012CC  18DE               	xorwf	postinc2,w,c
  4135  0012CE  10DE               	iorwf	postinc2,w,c
  4136  0012D0  A4D8               	btfss	status,2,c
  4137  0012D2  EF6D  F009         	goto	i2u143_41
  4138  0012D6  EF6F  F009         	goto	i2u143_40
  4139  0012DA                     i2u143_41:
  4140  0012DA  EF71  F009         	goto	i2l2204
  4141  0012DE                     i2u143_40:
  4142  0012DE  EFF3  F009         	goto	i2l237
  4143  0012E2                     i2l2204:
  4144                           
  4145                           ;newmain.c: 243:         if (isThereOtherPlayer(oldX+1,oldY)){
  4146  0012E2  0E01               	movlw	1
  4147  0012E4  2417               	addwf	gamepadPressed@oldX^0,w,c
  4148  0012E6  6E01               	movwf	isThereOtherPlayer@oldX^0,c
  4149  0012E8  0E00               	movlw	0
  4150  0012EA  2018               	addwfc	(gamepadPressed@oldX+1)^0,w,c
  4151  0012EC  6E02               	movwf	(isThereOtherPlayer@oldX+1)^0,c
  4152  0012EE  C019  F003         	movff	gamepadPressed@oldY,isThereOtherPlayer@oldY
  4153  0012F2  C01A  F004         	movff	gamepadPressed@oldY+1,isThereOtherPlayer@oldY+1
  4154  0012F6  EC89  F00F         	call	_isThereOtherPlayer	;wreg free
  4155  0012FA  5001               	movf	?_isThereOtherPlayer^0,w,c
  4156  0012FC  1002               	iorwf	(?_isThereOtherPlayer+1)^0,w,c
  4157  0012FE  B4D8               	btfsc	status,2,c
  4158  001300  EF84  F009         	goto	i2u144_41
  4159  001304  EF86  F009         	goto	i2u144_40
  4160  001308                     i2u144_41:
  4161  001308  EF88  F009         	goto	i2l2208
  4162  00130C                     i2u144_40:
  4163  00130C  EFF3  F009         	goto	i2l237
  4164  001310                     i2l2208:
  4165                           
  4166                           ;newmain.c: 246:         gameState.player_positions[gameState.selected_player].x++;
  4167  001310  0E40               	movlw	low _gameState
  4168  001312  6E13               	movwf	??_gamepadPressed^0,c
  4169  001314  0E00               	movlw	high _gameState
  4170  001316  6E14               	movwf	(??_gamepadPressed+1)^0,c
  4171  001318  90D8               	bcf	status,0,c
  4172  00131A  3454               	rlcf	(_gameState+20)^0,w,c
  4173  00131C  6ED9               	movwf	fsr2l,c
  4174  00131E  3455               	rlcf	(_gameState+21)^0,w,c
  4175  001320  6EDA               	movwf	fsr2h,c
  4176  001322  90D8               	bcf	status,0,c
  4177  001324  36D9               	rlcf	fsr2l,f,c
  4178  001326  36DA               	rlcf	fsr2h,f,c
  4179  001328  5013               	movf	??_gamepadPressed^0,w,c
  4180  00132A  26D9               	addwf	fsr2l,f,c
  4181  00132C  5014               	movf	(??_gamepadPressed+1)^0,w,c
  4182  00132E  22DA               	addwfc	fsr2h,f,c
  4183  001330  2ADE               	incf	postinc2,f,c
  4184  001332  0E00               	movlw	0
  4185  001334  22DD               	addwfc	postdec2,f,c
  4186                           
  4187                           ;newmain.c: 247:     }
  4188  001336  EF9D  F009         	goto	i2l239
  4189  00133A                     i2l247:
  4190  00133A                     i2l239:
  4191                           
  4192                           ;newmain.c: 251:     previous_portb = current_portb;
  4193  00133A  C01B  F076         	movff	gamepadPressed@current_portb,_previous_portb
  4194  00133E                     
  4195                           ;newmain.c: 254:     moveSelectedPlayerPositionOnLCD(oldX, oldY,
  4196  00133E  C017  F007         	movff	gamepadPressed@oldX,moveSelectedPlayerPositionOnLCD@oldX
  4197  001342  C018  F008         	movff	gamepadPressed@oldX+1,moveSelectedPlayerPositionOnLCD@oldX+1
  4198  001346  C019  F009         	movff	gamepadPressed@oldY,moveSelectedPlayerPositionOnLCD@oldY
  4199  00134A  C01A  F00A         	movff	gamepadPressed@oldY+1,moveSelectedPlayerPositionOnLCD@oldY+1
  4200  00134E  0E40               	movlw	low _gameState
  4201  001350  6E13               	movwf	??_gamepadPressed^0,c
  4202  001352  0E00               	movlw	high _gameState
  4203  001354  6E14               	movwf	(??_gamepadPressed+1)^0,c
  4204  001356  90D8               	bcf	status,0,c
  4205  001358  3454               	rlcf	(_gameState+20)^0,w,c
  4206  00135A  6ED9               	movwf	fsr2l,c
  4207  00135C  3455               	rlcf	(_gameState+21)^0,w,c
  4208  00135E  6EDA               	movwf	fsr2h,c
  4209  001360  90D8               	bcf	status,0,c
  4210  001362  36D9               	rlcf	fsr2l,f,c
  4211  001364  36DA               	rlcf	fsr2h,f,c
  4212  001366  5013               	movf	??_gamepadPressed^0,w,c
  4213  001368  26D9               	addwf	fsr2l,f,c
  4214  00136A  5014               	movf	(??_gamepadPressed+1)^0,w,c
  4215  00136C  22DA               	addwfc	fsr2h,f,c
  4216  00136E  CFDE F00B          	movff	postinc2,moveSelectedPlayerPositionOnLCD@newX
  4217  001372  CFDD F00C          	movff	postdec2,moveSelectedPlayerPositionOnLCD@newX+1
  4218  001376  0E40               	movlw	low _gameState
  4219  001378  6E15               	movwf	(??_gamepadPressed+2)^0,c
  4220  00137A  0E00               	movlw	high _gameState
  4221  00137C  6E16               	movwf	(??_gamepadPressed+3)^0,c
  4222  00137E  0E02               	movlw	2
  4223  001380  2615               	addwf	(??_gamepadPressed+2)^0,f,c
  4224  001382  0E00               	movlw	0
  4225  001384  2216               	addwfc	(??_gamepadPressed+3)^0,f,c
  4226  001386  90D8               	bcf	status,0,c
  4227  001388  3454               	rlcf	(_gameState+20)^0,w,c
  4228  00138A  6ED9               	movwf	fsr2l,c
  4229  00138C  3455               	rlcf	(_gameState+21)^0,w,c
  4230  00138E  6EDA               	movwf	fsr2h,c
  4231  001390  90D8               	bcf	status,0,c
  4232  001392  36D9               	rlcf	fsr2l,f,c
  4233  001394  36DA               	rlcf	fsr2h,f,c
  4234  001396  5015               	movf	(??_gamepadPressed+2)^0,w,c
  4235  001398  26D9               	addwf	fsr2l,f,c
  4236  00139A  5016               	movf	(??_gamepadPressed+3)^0,w,c
  4237  00139C  22DA               	addwfc	fsr2h,f,c
  4238  00139E  CFDE F00D          	movff	postinc2,moveSelectedPlayerPositionOnLCD@newY
  4239  0013A2  CFDD F00E          	movff	postdec2,moveSelectedPlayerPositionOnLCD@newY+1
  4240  0013A6  C054  F00F         	movff	_gameState+20,moveSelectedPlayerPositionOnLCD@selectedPlayer
  4241  0013AA  C055  F010         	movff	_gameState+21,moveSelectedPlayerPositionOnLCD@selectedPlayer+1
  4242  0013AE  EC97  F012         	call	_moveSelectedPlayerPositionOnLCD	;wreg free
  4243  0013B2                     
  4244                           ;newmain.c: 258:     if (frisbeeHeld()) {
  4245  0013B2  EC3C  F010         	call	_frisbeeHeld	;wreg free
  4246  0013B6  5001               	movf	?_frisbeeHeld^0,w,c
  4247  0013B8  1002               	iorwf	(?_frisbeeHeld+1)^0,w,c
  4248  0013BA  B4D8               	btfsc	status,2,c
  4249  0013BC  EFE2  F009         	goto	i2u145_41
  4250  0013C0  EFE4  F009         	goto	i2u145_40
  4251  0013C4                     i2u145_41:
  4252  0013C4  EFE6  F009         	goto	i2l2216
  4253  0013C8                     i2u145_40:
  4254  0013C8                     
  4255                           ;newmain.c: 259:         frisbeeHeldOnLCD();
  4256  0013C8  ECC4  F011         	call	_frisbeeHeldOnLCD	;wreg free
  4257  0013CC                     i2l2216:
  4258                           
  4259                           ;newmain.c: 261:     if (hasPlayerLeftFrisbeeLocation()) {
  4260  0013CC  ECE4  F00F         	call	_hasPlayerLeftFrisbeeLocation	;wreg free
  4261  0013D0  5001               	movf	?_hasPlayerLeftFrisbeeLocation^0,w,c
  4262  0013D2  1002               	iorwf	(?_hasPlayerLeftFrisbeeLocation+1)^0,w,c
  4263  0013D4  B4D8               	btfsc	status,2,c
  4264  0013D6  EFEF  F009         	goto	i2u146_41
  4265  0013DA  EFF1  F009         	goto	i2u146_40
  4266  0013DE                     i2u146_41:
  4267  0013DE  EFF3  F009         	goto	i2l237
  4268  0013E2                     i2u146_40:
  4269  0013E2                     
  4270                           ;newmain.c: 262:         frisbeeReleasedOnLCD();
  4271  0013E2  EC55  F013         	call	_frisbeeReleasedOnLCD	;wreg free
  4272  0013E6                     i2l237:
  4273  0013E6  0012               	return		;funcret
  4274  0013E8                     __end_of_gamepadPressed:
  4275                           	callstack 0
  4276                           
  4277 ;; *************** function _moveSelectedPlayerPositionOnLCD *****************
  4278 ;; Defined at:
  4279 ;;		line 81 in file "newmain.c"
  4280 ;; Parameters:    Size  Location     Type
  4281 ;;  oldX            2    6[COMRAM] int 
  4282 ;;  oldY            2    8[COMRAM] int 
  4283 ;;  newX            2   10[COMRAM] int 
  4284 ;;  newY            2   12[COMRAM] int 
  4285 ;;  selectedPlay    2   14[COMRAM] int 
  4286 ;; Auto vars:     Size  Location     Type
  4287 ;;		None
  4288 ;; Return value:  Size  Location     Type
  4289 ;;                  1    wreg      void 
  4290 ;; Registers used:
  4291 ;;		wreg, status,2, status,0, tblptrl, tblptrh, tblptru, cstack
  4292 ;; Tracked objects:
  4293 ;;		On entry : 0/0
  4294 ;;		On exit  : 0/0
  4295 ;;		Unchanged: 0/0
  4296 ;; Data sizes:     COMRAM   BANK0   BANK1   BANK2   BANK3   BANK4   BANK5   BANK6   BANK7   BANK8   BANK9  BANK10  BANK1
      +1  BANK12  BANK13  BANK14  BANK15
  4297 ;;      Params:        10       0       0       0       0       0       0       0       0       0       0       0       
      +0       0       0       0       0
  4298 ;;      Locals:         2       0       0       0       0       0       0       0       0       0       0       0       
      +0       0       0       0       0
  4299 ;;      Temps:          0       0       0       0       0       0       0       0       0       0       0       0       
      +0       0       0       0       0
  4300 ;;      Totals:        12       0       0       0       0       0       0       0       0       0       0       0       
      +0       0       0       0       0
  4301 ;;Total ram usage:       12 bytes
  4302 ;; Hardware stack levels used:    1
  4303 ;; Hardware stack levels required when called:    2
  4304 ;; This function calls:
  4305 ;;		_LCDStr
  4306 ;;		i2_LCDDat
  4307 ;;		i2_LCDGoto
  4308 ;; This function is called by:
  4309 ;;		_gamepadPressed
  4310 ;; This function uses a non-reentrant model
  4311 ;;
  4312                           
  4313                           	psect	text20
  4314  00252E                     __ptext20:
  4315                           	callstack 0
  4316  00252E                     _moveSelectedPlayerPositionOnLCD:
  4317                           	callstack 23
  4318  00252E                     
  4319                           ;newmain.c: 81: void moveSelectedPlayerPositionOnLCD(int oldX, int oldY, int newX, int n
      +                          ewY, int selectedPlayer);newmain.c: 82: {;newmain.c: 83:     LATA = 0;
  4320  00252E  0E00               	movlw	0
  4321  002530  6E89               	movwf	137,c	;volatile
  4322  002532                     
  4323                           ;newmain.c: 85:     LCDGoto(oldX, oldY);
  4324  002532  C009  F002         	movff	moveSelectedPlayerPositionOnLCD@oldY,i2LCDGoto@p_1
  4325  002536  5007               	movf	moveSelectedPlayerPositionOnLCD@oldX^0,w,c
  4326  002538  EC8A  F011         	call	i2_LCDGoto
  4327  00253C                     
  4328                           ;newmain.c: 86:     LCDStr(" ");
  4329  00253C  0E01               	movlw	low STR_1
  4330  00253E  6E02               	movwf	LCDStr@str^0,c
  4331  002540  0E10               	movlw	high STR_1
  4332  002542  6E03               	movwf	(LCDStr@str+1)^0,c
  4333  002544  ECD3  F010         	call	_LCDStr	;wreg free
  4334  002548                     
  4335                           ;newmain.c: 89:     LCDGoto(newX, newY);
  4336  002548  C00D  F002         	movff	moveSelectedPlayerPositionOnLCD@newY,i2LCDGoto@p_1
  4337  00254C  500B               	movf	moveSelectedPlayerPositionOnLCD@newX^0,w,c
  4338  00254E  EC8A  F011         	call	i2_LCDGoto
  4339  002552                     
  4340                           ;newmain.c: 90:     LCDDat(selectedPlayer < 2 ? 0:2);
  4341  002552  BE10               	btfsc	(moveSelectedPlayerPositionOnLCD@selectedPlayer+1)^0,7,c
  4342  002554  EFB5  F012         	goto	i2u114_41
  4343  002558  5010               	movf	(moveSelectedPlayerPositionOnLCD@selectedPlayer+1)^0,w,c
  4344  00255A  E109               	bnz	i2u114_40
  4345  00255C  0E02               	movlw	2
  4346  00255E  5C0F               	subwf	moveSelectedPlayerPositionOnLCD@selectedPlayer^0,w,c
  4347  002560  A0D8               	btfss	status,0,c
  4348  002562  EFB5  F012         	goto	i2u114_41
  4349  002566  EFB7  F012         	goto	i2u114_40
  4350  00256A                     i2u114_41:
  4351  00256A  EFBD  F012         	goto	i2l1974
  4352  00256E                     i2u114_40:
  4353  00256E  0E00               	movlw	0
  4354  002570  6E12               	movwf	(_moveSelectedPlayerPositionOnLCD$762+1)^0,c
  4355  002572  0E02               	movlw	2
  4356  002574  6E11               	movwf	_moveSelectedPlayerPositionOnLCD$762^0,c
  4357  002576  EFC1  F012         	goto	i2l1976
  4358  00257A                     i2l1974:
  4359  00257A  0E00               	movlw	0
  4360  00257C  6E12               	movwf	(_moveSelectedPlayerPositionOnLCD$762+1)^0,c
  4361  00257E  0E00               	movlw	0
  4362  002580  6E11               	movwf	_moveSelectedPlayerPositionOnLCD$762^0,c
  4363  002582                     i2l1976:
  4364  002582  5011               	movf	_moveSelectedPlayerPositionOnLCD$762^0,w,c
  4365  002584  ECD2  F013         	call	i2_LCDDat
  4366  002588  0012               	return		;funcret
  4367  00258A                     __end_of_moveSelectedPlayerPositionOnLCD:
  4368                           	callstack 0
  4369                           
  4370 ;; *************** function _isThereOtherPlayer *****************
  4371 ;; Defined at:
  4372 ;;		line 137 in file "newmain.c"
  4373 ;; Parameters:    Size  Location     Type
  4374 ;;  oldX            2    0[COMRAM] int 
  4375 ;;  oldY            2    2[COMRAM] int 
  4376 ;; Auto vars:     Size  Location     Type
  4377 ;;  i               2    8[COMRAM] int 
  4378 ;; Return value:  Size  Location     Type
  4379 ;;                  2    0[COMRAM] int 
  4380 ;; Registers used:
  4381 ;;		wreg, fsr2l, fsr2h, status,2, status,0
  4382 ;; Tracked objects:
  4383 ;;		On entry : 0/0
  4384 ;;		On exit  : 0/0
  4385 ;;		Unchanged: 0/0
  4386 ;; Data sizes:     COMRAM   BANK0   BANK1   BANK2   BANK3   BANK4   BANK5   BANK6   BANK7   BANK8   BANK9  BANK10  BANK1
      +1  BANK12  BANK13  BANK14  BANK15
  4387 ;;      Params:         4       0       0       0       0       0       0       0       0       0       0       0       
      +0       0       0       0       0
  4388 ;;      Locals:         2       0       0       0       0       0       0       0       0       0       0       0       
      +0       0       0       0       0
  4389 ;;      Temps:          4       0       0       0       0       0       0       0       0       0       0       0       
      +0       0       0       0       0
  4390 ;;      Totals:        10       0       0       0       0       0       0       0       0       0       0       0       
      +0       0       0       0       0
  4391 ;;Total ram usage:       10 bytes
  4392 ;; Hardware stack levels used:    1
  4393 ;; This function calls:
  4394 ;;		Nothing
  4395 ;; This function is called by:
  4396 ;;		_gamepadPressed
  4397 ;; This function uses a non-reentrant model
  4398 ;;
  4399                           
  4400                           	psect	text21
  4401  001F12                     __ptext21:
  4402                           	callstack 0
  4403  001F12                     _isThereOtherPlayer:
  4404                           	callstack 25
  4405  001F12                     
  4406                           ;newmain.c: 138:     for (int i = 0; i < 4; i++) {
  4407  001F12  0E00               	movlw	0
  4408  001F14  6E0A               	movwf	(isThereOtherPlayer@i+1)^0,c
  4409  001F16  0E00               	movlw	0
  4410  001F18  6E09               	movwf	isThereOtherPlayer@i^0,c
  4411  001F1A                     i2l1984:
  4412                           
  4413                           ;newmain.c: 139:         if (gameState.player_positions[i].x == oldX && gameState.player
      +                          _positions[i].y == oldY) {
  4414  001F1A  0E40               	movlw	low _gameState
  4415  001F1C  6E05               	movwf	??_isThereOtherPlayer^0,c
  4416  001F1E  0E00               	movlw	high _gameState
  4417  001F20  6E06               	movwf	(??_isThereOtherPlayer+1)^0,c
  4418  001F22  90D8               	bcf	status,0,c
  4419  001F24  3409               	rlcf	isThereOtherPlayer@i^0,w,c
  4420  001F26  6ED9               	movwf	fsr2l,c
  4421  001F28  340A               	rlcf	(isThereOtherPlayer@i+1)^0,w,c
  4422  001F2A  6EDA               	movwf	fsr2h,c
  4423  001F2C  90D8               	bcf	status,0,c
  4424  001F2E  36D9               	rlcf	fsr2l,f,c
  4425  001F30  36DA               	rlcf	fsr2h,f,c
  4426  001F32  5005               	movf	??_isThereOtherPlayer^0,w,c
  4427  001F34  26D9               	addwf	fsr2l,f,c
  4428  001F36  5006               	movf	(??_isThereOtherPlayer+1)^0,w,c
  4429  001F38  22DA               	addwfc	fsr2h,f,c
  4430  001F3A  5001               	movf	isThereOtherPlayer@oldX^0,w,c
  4431  001F3C  18DE               	xorwf	postinc2,w,c
  4432  001F3E  E107               	bnz	i2u115_41
  4433  001F40  5002               	movf	(isThereOtherPlayer@oldX+1)^0,w,c
  4434  001F42  18DE               	xorwf	postinc2,w,c
  4435  001F44  A4D8               	btfss	status,2,c
  4436  001F46  EFA7  F00F         	goto	i2u115_41
  4437  001F4A  EFA9  F00F         	goto	i2u115_40
  4438  001F4E                     i2u115_41:
  4439  001F4E  EFCF  F00F         	goto	i2l1992
  4440  001F52                     i2u115_40:
  4441  001F52  0E40               	movlw	low _gameState
  4442  001F54  6E05               	movwf	??_isThereOtherPlayer^0,c
  4443  001F56  0E00               	movlw	high _gameState
  4444  001F58  6E06               	movwf	(??_isThereOtherPlayer+1)^0,c
  4445  001F5A  0E02               	movlw	2
  4446  001F5C  2605               	addwf	??_isThereOtherPlayer^0,f,c
  4447  001F5E  0E00               	movlw	0
  4448  001F60  2206               	addwfc	(??_isThereOtherPlayer+1)^0,f,c
  4449  001F62  90D8               	bcf	status,0,c
  4450  001F64  3409               	rlcf	isThereOtherPlayer@i^0,w,c
  4451  001F66  6ED9               	movwf	fsr2l,c
  4452  001F68  340A               	rlcf	(isThereOtherPlayer@i+1)^0,w,c
  4453  001F6A  6EDA               	movwf	fsr2h,c
  4454  001F6C  90D8               	bcf	status,0,c
  4455  001F6E  36D9               	rlcf	fsr2l,f,c
  4456  001F70  36DA               	rlcf	fsr2h,f,c
  4457  001F72  5005               	movf	??_isThereOtherPlayer^0,w,c
  4458  001F74  26D9               	addwf	fsr2l,f,c
  4459  001F76  5006               	movf	(??_isThereOtherPlayer+1)^0,w,c
  4460  001F78  22DA               	addwfc	fsr2h,f,c
  4461  001F7A  5003               	movf	isThereOtherPlayer@oldY^0,w,c
  4462  001F7C  18DE               	xorwf	postinc2,w,c
  4463  001F7E  E107               	bnz	i2u116_41
  4464  001F80  5004               	movf	(isThereOtherPlayer@oldY+1)^0,w,c
  4465  001F82  18DE               	xorwf	postinc2,w,c
  4466  001F84  A4D8               	btfss	status,2,c
  4467  001F86  EFC7  F00F         	goto	i2u116_41
  4468  001F8A  EFC9  F00F         	goto	i2u116_40
  4469  001F8E                     i2u116_41:
  4470  001F8E  EFCF  F00F         	goto	i2l1992
  4471  001F92                     i2u116_40:
  4472  001F92                     
  4473                           ;newmain.c: 140:             return 1;
  4474  001F92  0E00               	movlw	0
  4475  001F94  6E02               	movwf	(?_isThereOtherPlayer+1)^0,c
  4476  001F96  0E01               	movlw	1
  4477  001F98  6E01               	movwf	?_isThereOtherPlayer^0,c
  4478  001F9A  EFE3  F00F         	goto	i2l211
  4479  001F9E                     i2l1992:
  4480                           
  4481                           ;newmain.c: 142:     }
  4482  001F9E  4A09               	infsnz	isThereOtherPlayer@i^0,f,c
  4483  001FA0  2A0A               	incf	(isThereOtherPlayer@i+1)^0,f,c
  4484  001FA2  BE0A               	btfsc	(isThereOtherPlayer@i+1)^0,7,c
  4485  001FA4  EFDD  F00F         	goto	i2u117_41
  4486  001FA8  500A               	movf	(isThereOtherPlayer@i+1)^0,w,c
  4487  001FAA  E109               	bnz	i2u117_40
  4488  001FAC  0E04               	movlw	4
  4489  001FAE  5C09               	subwf	isThereOtherPlayer@i^0,w,c
  4490  001FB0  A0D8               	btfss	status,0,c
  4491  001FB2  EFDD  F00F         	goto	i2u117_41
  4492  001FB6  EFDF  F00F         	goto	i2u117_40
  4493  001FBA                     i2u117_41:
  4494  001FBA  EF8D  F00F         	goto	i2l1984
  4495  001FBE                     i2u117_40:
  4496  001FBE                     
  4497                           ;newmain.c: 143:     return 0;
  4498  001FBE  0E00               	movlw	0
  4499  001FC0  6E02               	movwf	(?_isThereOtherPlayer+1)^0,c
  4500  001FC2  0E00               	movlw	0
  4501  001FC4  6E01               	movwf	?_isThereOtherPlayer^0,c
  4502  001FC6                     i2l211:
  4503  001FC6  0012               	return		;funcret
  4504  001FC8                     __end_of_isThereOtherPlayer:
  4505                           	callstack 0
  4506                           
  4507 ;; *************** function _hasPlayerLeftFrisbeeLocation *****************
  4508 ;; Defined at:
  4509 ;;		line 159 in file "newmain.c"
  4510 ;; Parameters:    Size  Location     Type
  4511 ;;		None
  4512 ;; Auto vars:     Size  Location     Type
  4513 ;;  selected_pla    2    6[COMRAM] int 
  4514 ;; Return value:  Size  Location     Type
  4515 ;;                  2    0[COMRAM] int 
  4516 ;; Registers used:
  4517 ;;		wreg, fsr2l, fsr2h, status,2, status,0
  4518 ;; Tracked objects:
  4519 ;;		On entry : 0/0
  4520 ;;		On exit  : 0/0
  4521 ;;		Unchanged: 0/0
  4522 ;; Data sizes:     COMRAM   BANK0   BANK1   BANK2   BANK3   BANK4   BANK5   BANK6   BANK7   BANK8   BANK9  BANK10  BANK1
      +1  BANK12  BANK13  BANK14  BANK15
  4523 ;;      Params:         2       0       0       0       0       0       0       0       0       0       0       0       
      +0       0       0       0       0
  4524 ;;      Locals:         2       0       0       0       0       0       0       0       0       0       0       0       
      +0       0       0       0       0
  4525 ;;      Temps:          4       0       0       0       0       0       0       0       0       0       0       0       
      +0       0       0       0       0
  4526 ;;      Totals:         8       0       0       0       0       0       0       0       0       0       0       0       
      +0       0       0       0       0
  4527 ;;Total ram usage:        8 bytes
  4528 ;; Hardware stack levels used:    1
  4529 ;; This function calls:
  4530 ;;		Nothing
  4531 ;; This function is called by:
  4532 ;;		_gamepadPressed
  4533 ;; This function uses a non-reentrant model
  4534 ;;
  4535                           
  4536                           	psect	text22
  4537  001FC8                     __ptext22:
  4538                           	callstack 0
  4539  001FC8                     _hasPlayerLeftFrisbeeLocation:
  4540                           	callstack 25
  4541  001FC8                     
  4542                           ;newmain.c: 160:     if (!frisbee_held){
  4543  001FC8  506F               	movf	_frisbee_held^0,w,c
  4544  001FCA  1070               	iorwf	(_frisbee_held+1)^0,w,c
  4545  001FCC  A4D8               	btfss	status,2,c
  4546  001FCE  EFEB  F00F         	goto	i2u120_41
  4547  001FD2  EFED  F00F         	goto	i2u120_40
  4548  001FD6                     i2u120_41:
  4549  001FD6  EFF3  F00F         	goto	i2l218
  4550  001FDA                     i2u120_40:
  4551  001FDA                     i2l2016:
  4552                           
  4553                           ;newmain.c: 161:         return 0;
  4554  001FDA  0E00               	movlw	0
  4555  001FDC  6E02               	movwf	(?_hasPlayerLeftFrisbeeLocation+1)^0,c
  4556  001FDE  0E00               	movlw	0
  4557  001FE0  6E01               	movwf	?_hasPlayerLeftFrisbeeLocation^0,c
  4558  001FE2  EF3B  F010         	goto	i2l219
  4559  001FE6                     i2l218:
  4560                           
  4561                           ;newmain.c: 164:     int selected_player = gameState.selected_player;
  4562  001FE6  C054  F007         	movff	_gameState+20,hasPlayerLeftFrisbeeLocation@selected_player
  4563  001FEA  C055  F008         	movff	_gameState+21,hasPlayerLeftFrisbeeLocation@selected_player+1
  4564  001FEE                     
  4565                           ;newmain.c: 166:     if (gameState.player_positions[selected_player].x != gameState.fris
      +                          bee_position.x ||
  4566  001FEE  0E40               	movlw	low _gameState
  4567  001FF0  6E03               	movwf	??_hasPlayerLeftFrisbeeLocation^0,c
  4568  001FF2  0E00               	movlw	high _gameState
  4569  001FF4  6E04               	movwf	(??_hasPlayerLeftFrisbeeLocation+1)^0,c
  4570  001FF6  90D8               	bcf	status,0,c
  4571  001FF8  3407               	rlcf	hasPlayerLeftFrisbeeLocation@selected_player^0,w,c
  4572  001FFA  6ED9               	movwf	fsr2l,c
  4573  001FFC  3408               	rlcf	(hasPlayerLeftFrisbeeLocation@selected_player+1)^0,w,c
  4574  001FFE  6EDA               	movwf	fsr2h,c
  4575  002000  90D8               	bcf	status,0,c
  4576  002002  36D9               	rlcf	fsr2l,f,c
  4577  002004  36DA               	rlcf	fsr2h,f,c
  4578  002006  5003               	movf	??_hasPlayerLeftFrisbeeLocation^0,w,c
  4579  002008  26D9               	addwf	fsr2l,f,c
  4580  00200A  5004               	movf	(??_hasPlayerLeftFrisbeeLocation+1)^0,w,c
  4581  00200C  22DA               	addwfc	fsr2h,f,c
  4582  00200E  5050               	movf	(_gameState+16)^0,w,c
  4583  002010  18DE               	xorwf	postinc2,w,c
  4584  002012  E107               	bnz	i2u121_41
  4585  002014  5051               	movf	(_gameState+17)^0,w,c
  4586  002016  18DE               	xorwf	postinc2,w,c
  4587  002018  A4D8               	btfss	status,2,c
  4588  00201A  EF11  F010         	goto	i2u121_41
  4589  00201E  EF13  F010         	goto	i2u121_40
  4590  002022                     i2u121_41:
  4591  002022  EF33  F010         	goto	i2l2024
  4592  002026                     i2u121_40:
  4593  002026  0E40               	movlw	low _gameState
  4594  002028  6E03               	movwf	??_hasPlayerLeftFrisbeeLocation^0,c
  4595  00202A  0E00               	movlw	high _gameState
  4596  00202C  6E04               	movwf	(??_hasPlayerLeftFrisbeeLocation+1)^0,c
  4597  00202E  0E02               	movlw	2
  4598  002030  2603               	addwf	??_hasPlayerLeftFrisbeeLocation^0,f,c
  4599  002032  0E00               	movlw	0
  4600  002034  2204               	addwfc	(??_hasPlayerLeftFrisbeeLocation+1)^0,f,c
  4601  002036  90D8               	bcf	status,0,c
  4602  002038  3407               	rlcf	hasPlayerLeftFrisbeeLocation@selected_player^0,w,c
  4603  00203A  6ED9               	movwf	fsr2l,c
  4604  00203C  3408               	rlcf	(hasPlayerLeftFrisbeeLocation@selected_player+1)^0,w,c
  4605  00203E  6EDA               	movwf	fsr2h,c
  4606  002040  90D8               	bcf	status,0,c
  4607  002042  36D9               	rlcf	fsr2l,f,c
  4608  002044  36DA               	rlcf	fsr2h,f,c
  4609  002046  5003               	movf	??_hasPlayerLeftFrisbeeLocation^0,w,c
  4610  002048  26D9               	addwf	fsr2l,f,c
  4611  00204A  5004               	movf	(??_hasPlayerLeftFrisbeeLocation+1)^0,w,c
  4612  00204C  22DA               	addwfc	fsr2h,f,c
  4613  00204E  5052               	movf	(_gameState+18)^0,w,c
  4614  002050  18DE               	xorwf	postinc2,w,c
  4615  002052  E109               	bnz	i2u122_40
  4616  002054  5053               	movf	(_gameState+19)^0,w,c
  4617  002056  18DE               	xorwf	postinc2,w,c
  4618  002058  B4D8               	btfsc	status,2,c
  4619  00205A  EF31  F010         	goto	i2u122_41
  4620  00205E  EF33  F010         	goto	i2u122_40
  4621  002062                     i2u122_41:
  4622  002062  EFED  F00F         	goto	i2l2016
  4623  002066                     i2u122_40:
  4624  002066                     i2l2024:
  4625                           
  4626                           ;newmain.c: 167:         gameState.player_positions[selected_player].y != gameState.fris
      +                          bee_position.y){;newmain.c: 168:         frisbee_held = 0;
  4627  002066  0E00               	movlw	0
  4628  002068  6E70               	movwf	(_frisbee_held+1)^0,c
  4629  00206A  0E00               	movlw	0
  4630  00206C  6E6F               	movwf	_frisbee_held^0,c
  4631                           
  4632                           ;newmain.c: 169:         return 1;
  4633  00206E  0E00               	movlw	0
  4634  002070  6E02               	movwf	(?_hasPlayerLeftFrisbeeLocation+1)^0,c
  4635  002072  0E01               	movlw	1
  4636  002074  6E01               	movwf	?_hasPlayerLeftFrisbeeLocation^0,c
  4637  002076                     i2l219:
  4638  002076  0012               	return		;funcret
  4639  002078                     __end_of_hasPlayerLeftFrisbeeLocation:
  4640                           	callstack 0
  4641                           
  4642 ;; *************** function _frisbeeReleasedOnLCD *****************
  4643 ;; Defined at:
  4644 ;;		line 189 in file "newmain.c"
  4645 ;; Parameters:    Size  Location     Type
  4646 ;;		None
  4647 ;; Auto vars:     Size  Location     Type
  4648 ;;  frisbeeY        2   10[COMRAM] int 
  4649 ;;  frisbeeX        2    8[COMRAM] int 
  4650 ;;  selected_pla    2    0        int 
  4651 ;; Return value:  Size  Location     Type
  4652 ;;                  1    wreg      void 
  4653 ;; Registers used:
  4654 ;;		wreg, status,2, status,0, tblptrl, tblptrh, tblptru, cstack
  4655 ;; Tracked objects:
  4656 ;;		On entry : 0/0
  4657 ;;		On exit  : 0/0
  4658 ;;		Unchanged: 0/0
  4659 ;; Data sizes:     COMRAM   BANK0   BANK1   BANK2   BANK3   BANK4   BANK5   BANK6   BANK7   BANK8   BANK9  BANK10  BANK1
      +1  BANK12  BANK13  BANK14  BANK15
  4660 ;;      Params:         0       0       0       0       0       0       0       0       0       0       0       0       
      +0       0       0       0       0
  4661 ;;      Locals:         6       0       0       0       0       0       0       0       0       0       0       0       
      +0       0       0       0       0
  4662 ;;      Temps:          0       0       0       0       0       0       0       0       0       0       0       0       
      +0       0       0       0       0
  4663 ;;      Totals:         6       0       0       0       0       0       0       0       0       0       0       0       
      +0       0       0       0       0
  4664 ;;Total ram usage:        6 bytes
  4665 ;; Hardware stack levels used:    1
  4666 ;; Hardware stack levels required when called:    2
  4667 ;; This function calls:
  4668 ;;		_LCDStr
  4669 ;;		i2_LCDDat
  4670 ;;		i2_LCDGoto
  4671 ;; This function is called by:
  4672 ;;		_gamepadPressed
  4673 ;; This function uses a non-reentrant model
  4674 ;;
  4675                           
  4676                           	psect	text23
  4677  0026AA                     __ptext23:
  4678                           	callstack 0
  4679  0026AA                     _frisbeeReleasedOnLCD:
  4680                           	callstack 23
  4681  0026AA                     
  4682                           ;newmain.c: 190:     int frisbeeX, frisbeeY, selected_player;;newmain.c: 191:     frisbe
      +                          eX = gameState.frisbee_position.x;
  4683  0026AA  C050  F009         	movff	_gameState+16,frisbeeReleasedOnLCD@frisbeeX
  4684  0026AE  C051  F00A         	movff	_gameState+17,frisbeeReleasedOnLCD@frisbeeX+1
  4685                           
  4686                           ;newmain.c: 192:     frisbeeY = gameState.frisbee_position.y;
  4687  0026B2  C052  F00B         	movff	_gameState+18,frisbeeReleasedOnLCD@frisbeeY
  4688  0026B6  C053  F00C         	movff	_gameState+19,frisbeeReleasedOnLCD@frisbeeY+1
  4689  0026BA                     
  4690                           ;newmain.c: 194:     LCDGoto(frisbeeX,frisbeeY);
  4691  0026BA  C00B  F002         	movff	frisbeeReleasedOnLCD@frisbeeY,i2LCDGoto@p_1
  4692  0026BE  5009               	movf	frisbeeReleasedOnLCD@frisbeeX^0,w,c
  4693  0026C0  EC8A  F011         	call	i2_LCDGoto
  4694  0026C4                     
  4695                           ;newmain.c: 195:     LCDStr(" ");
  4696  0026C4  0E01               	movlw	low STR_1
  4697  0026C6  6E02               	movwf	LCDStr@str^0,c
  4698  0026C8  0E10               	movlw	high STR_1
  4699  0026CA  6E03               	movwf	(LCDStr@str+1)^0,c
  4700  0026CC  ECD3  F010         	call	_LCDStr	;wreg free
  4701  0026D0                     
  4702                           ;newmain.c: 197:     LCDGoto(frisbeeX,frisbeeY);
  4703  0026D0  C00B  F002         	movff	frisbeeReleasedOnLCD@frisbeeY,i2LCDGoto@p_1
  4704  0026D4  5009               	movf	frisbeeReleasedOnLCD@frisbeeX^0,w,c
  4705  0026D6  EC8A  F011         	call	i2_LCDGoto
  4706  0026DA                     
  4707                           ;newmain.c: 198:     LCDDat(4);
  4708  0026DA  0E04               	movlw	4
  4709  0026DC  ECD2  F013         	call	i2_LCDDat
  4710  0026E0  0012               	return		;funcret
  4711  0026E2                     __end_of_frisbeeReleasedOnLCD:
  4712                           	callstack 0
  4713                           
  4714 ;; *************** function _frisbeeHeldOnLCD *****************
  4715 ;; Defined at:
  4716 ;;		line 175 in file "newmain.c"
  4717 ;; Parameters:    Size  Location     Type
  4718 ;;		None
  4719 ;; Auto vars:     Size  Location     Type
  4720 ;;  frisbeeY        2   12[COMRAM] int 
  4721 ;;  frisbeeX        2   10[COMRAM] int 
  4722 ;;  selected_pla    2    6[COMRAM] int 
  4723 ;; Return value:  Size  Location     Type
  4724 ;;                  1    wreg      void 
  4725 ;; Registers used:
  4726 ;;		wreg, status,2, status,0, tblptrl, tblptrh, tblptru, cstack
  4727 ;; Tracked objects:
  4728 ;;		On entry : 0/0
  4729 ;;		On exit  : 0/0
  4730 ;;		Unchanged: 0/0
  4731 ;; Data sizes:     COMRAM   BANK0   BANK1   BANK2   BANK3   BANK4   BANK5   BANK6   BANK7   BANK8   BANK9  BANK10  BANK1
      +1  BANK12  BANK13  BANK14  BANK15
  4732 ;;      Params:         0       0       0       0       0       0       0       0       0       0       0       0       
      +0       0       0       0       0
  4733 ;;      Locals:         8       0       0       0       0       0       0       0       0       0       0       0       
      +0       0       0       0       0
  4734 ;;      Temps:          0       0       0       0       0       0       0       0       0       0       0       0       
      +0       0       0       0       0
  4735 ;;      Totals:         8       0       0       0       0       0       0       0       0       0       0       0       
      +0       0       0       0       0
  4736 ;;Total ram usage:        8 bytes
  4737 ;; Hardware stack levels used:    1
  4738 ;; Hardware stack levels required when called:    2
  4739 ;; This function calls:
  4740 ;;		_LCDStr
  4741 ;;		i2_LCDDat
  4742 ;;		i2_LCDGoto
  4743 ;; This function is called by:
  4744 ;;		_gamepadPressed
  4745 ;; This function uses a non-reentrant model
  4746 ;;
  4747                           
  4748                           	psect	text24
  4749  002388                     __ptext24:
  4750                           	callstack 0
  4751  002388                     _frisbeeHeldOnLCD:
  4752                           	callstack 23
  4753  002388                     
  4754                           ;newmain.c: 176:     int frisbeeX, frisbeeY, selected_player;;newmain.c: 177:     frisbe
      +                          eX = gameState.frisbee_position.x;
  4755  002388  C050  F00B         	movff	_gameState+16,frisbeeHeldOnLCD@frisbeeX
  4756  00238C  C051  F00C         	movff	_gameState+17,frisbeeHeldOnLCD@frisbeeX+1
  4757                           
  4758                           ;newmain.c: 178:     frisbeeY = gameState.frisbee_position.y;
  4759  002390  C052  F00D         	movff	_gameState+18,frisbeeHeldOnLCD@frisbeeY
  4760  002394  C053  F00E         	movff	_gameState+19,frisbeeHeldOnLCD@frisbeeY+1
  4761                           
  4762                           ;newmain.c: 179:     selected_player = gameState.selected_player;
  4763  002398  C054  F007         	movff	_gameState+20,frisbeeHeldOnLCD@selected_player
  4764  00239C  C055  F008         	movff	_gameState+21,frisbeeHeldOnLCD@selected_player+1
  4765  0023A0                     
  4766                           ;newmain.c: 180:     LCDGoto(frisbeeX,frisbeeY);
  4767  0023A0  C00D  F002         	movff	frisbeeHeldOnLCD@frisbeeY,i2LCDGoto@p_1
  4768  0023A4  500B               	movf	frisbeeHeldOnLCD@frisbeeX^0,w,c
  4769  0023A6  EC8A  F011         	call	i2_LCDGoto
  4770  0023AA                     
  4771                           ;newmain.c: 181:     LCDStr(" ");
  4772  0023AA  0E01               	movlw	low STR_1
  4773  0023AC  6E02               	movwf	LCDStr@str^0,c
  4774  0023AE  0E10               	movlw	high STR_1
  4775  0023B0  6E03               	movwf	(LCDStr@str+1)^0,c
  4776  0023B2  ECD3  F010         	call	_LCDStr	;wreg free
  4777  0023B6                     
  4778                           ;newmain.c: 183:     LCDGoto(frisbeeX,frisbeeY);
  4779  0023B6  C00D  F002         	movff	frisbeeHeldOnLCD@frisbeeY,i2LCDGoto@p_1
  4780  0023BA  500B               	movf	frisbeeHeldOnLCD@frisbeeX^0,w,c
  4781  0023BC  EC8A  F011         	call	i2_LCDGoto
  4782  0023C0                     
  4783                           ;newmain.c: 184:     LCDDat(selected_player < 2 ? 5:6);
  4784  0023C0  BE08               	btfsc	(frisbeeHeldOnLCD@selected_player+1)^0,7,c
  4785  0023C2  EFEC  F011         	goto	i2u123_41
  4786  0023C6  5008               	movf	(frisbeeHeldOnLCD@selected_player+1)^0,w,c
  4787  0023C8  E109               	bnz	i2u123_40
  4788  0023CA  0E02               	movlw	2
  4789  0023CC  5C07               	subwf	frisbeeHeldOnLCD@selected_player^0,w,c
  4790  0023CE  A0D8               	btfss	status,0,c
  4791  0023D0  EFEC  F011         	goto	i2u123_41
  4792  0023D4  EFEE  F011         	goto	i2u123_40
  4793  0023D8                     i2u123_41:
  4794  0023D8  EFF4  F011         	goto	i2l2044
  4795  0023DC                     i2u123_40:
  4796  0023DC  0E00               	movlw	0
  4797  0023DE  6E0A               	movwf	(_frisbeeHeldOnLCD$779+1)^0,c
  4798  0023E0  0E06               	movlw	6
  4799  0023E2  6E09               	movwf	_frisbeeHeldOnLCD$779^0,c
  4800  0023E4  EFF8  F011         	goto	i2l2046
  4801  0023E8                     i2l2044:
  4802  0023E8  0E00               	movlw	0
  4803  0023EA  6E0A               	movwf	(_frisbeeHeldOnLCD$779+1)^0,c
  4804  0023EC  0E05               	movlw	5
  4805  0023EE  6E09               	movwf	_frisbeeHeldOnLCD$779^0,c
  4806  0023F0                     i2l2046:
  4807  0023F0  5009               	movf	_frisbeeHeldOnLCD$779^0,w,c
  4808  0023F2  ECD2  F013         	call	i2_LCDDat
  4809  0023F6  0012               	return		;funcret
  4810  0023F8                     __end_of_frisbeeHeldOnLCD:
  4811                           	callstack 0
  4812                           
  4813 ;; *************** function _frisbeeHeld *****************
  4814 ;; Defined at:
  4815 ;;		line 147 in file "newmain.c"
  4816 ;; Parameters:    Size  Location     Type
  4817 ;;		None
  4818 ;; Auto vars:     Size  Location     Type
  4819 ;;  selected_pla    2    6[COMRAM] int 
  4820 ;; Return value:  Size  Location     Type
  4821 ;;                  2    0[COMRAM] int 
  4822 ;; Registers used:
  4823 ;;		wreg, fsr2l, fsr2h, status,2, status,0
  4824 ;; Tracked objects:
  4825 ;;		On entry : 0/0
  4826 ;;		On exit  : 0/0
  4827 ;;		Unchanged: 0/0
  4828 ;; Data sizes:     COMRAM   BANK0   BANK1   BANK2   BANK3   BANK4   BANK5   BANK6   BANK7   BANK8   BANK9  BANK10  BANK1
      +1  BANK12  BANK13  BANK14  BANK15
  4829 ;;      Params:         2       0       0       0       0       0       0       0       0       0       0       0       
      +0       0       0       0       0
  4830 ;;      Locals:         2       0       0       0       0       0       0       0       0       0       0       0       
      +0       0       0       0       0
  4831 ;;      Temps:          4       0       0       0       0       0       0       0       0       0       0       0       
      +0       0       0       0       0
  4832 ;;      Totals:         8       0       0       0       0       0       0       0       0       0       0       0       
      +0       0       0       0       0
  4833 ;;Total ram usage:        8 bytes
  4834 ;; Hardware stack levels used:    1
  4835 ;; This function calls:
  4836 ;;		Nothing
  4837 ;; This function is called by:
  4838 ;;		_gamepadPressed
  4839 ;; This function uses a non-reentrant model
  4840 ;;
  4841                           
  4842                           	psect	text25
  4843  002078                     __ptext25:
  4844                           	callstack 0
  4845  002078                     _frisbeeHeld:
  4846                           	callstack 25
  4847  002078                     
  4848                           ;newmain.c: 148:     int selected_player = gameState.selected_player;
  4849  002078  C054  F007         	movff	_gameState+20,frisbeeHeld@selected_player
  4850  00207C  C055  F008         	movff	_gameState+21,frisbeeHeld@selected_player+1
  4851  002080                     
  4852                           ;newmain.c: 149:     if (gameState.frisbee_position.x == gameState.player_positions[sele
      +                          cted_player].x
  4853  002080  0E40               	movlw	low _gameState
  4854  002082  6E03               	movwf	??_frisbeeHeld^0,c
  4855  002084  0E00               	movlw	high _gameState
  4856  002086  6E04               	movwf	(??_frisbeeHeld+1)^0,c
  4857  002088  90D8               	bcf	status,0,c
  4858  00208A  3407               	rlcf	frisbeeHeld@selected_player^0,w,c
  4859  00208C  6ED9               	movwf	fsr2l,c
  4860  00208E  3408               	rlcf	(frisbeeHeld@selected_player+1)^0,w,c
  4861  002090  6EDA               	movwf	fsr2h,c
  4862  002092  90D8               	bcf	status,0,c
  4863  002094  36D9               	rlcf	fsr2l,f,c
  4864  002096  36DA               	rlcf	fsr2h,f,c
  4865  002098  5003               	movf	??_frisbeeHeld^0,w,c
  4866  00209A  26D9               	addwf	fsr2l,f,c
  4867  00209C  5004               	movf	(??_frisbeeHeld+1)^0,w,c
  4868  00209E  22DA               	addwfc	fsr2h,f,c
  4869  0020A0  50DE               	movf	postinc2,w,c
  4870  0020A2  1850               	xorwf	(_gameState+16)^0,w,c
  4871  0020A4  E107               	bnz	i2u118_41
  4872  0020A6  50DE               	movf	postinc2,w,c
  4873  0020A8  1851               	xorwf	(_gameState+17)^0,w,c
  4874  0020AA  A4D8               	btfss	status,2,c
  4875  0020AC  EF5A  F010         	goto	i2u118_41
  4876  0020B0  EF5C  F010         	goto	i2u118_40
  4877  0020B4                     i2u118_41:
  4878  0020B4  EF86  F010         	goto	i2l2010
  4879  0020B8                     i2u118_40:
  4880  0020B8  0E40               	movlw	low _gameState
  4881  0020BA  6E03               	movwf	??_frisbeeHeld^0,c
  4882  0020BC  0E00               	movlw	high _gameState
  4883  0020BE  6E04               	movwf	(??_frisbeeHeld+1)^0,c
  4884  0020C0  0E02               	movlw	2
  4885  0020C2  2603               	addwf	??_frisbeeHeld^0,f,c
  4886  0020C4  0E00               	movlw	0
  4887  0020C6  2204               	addwfc	(??_frisbeeHeld+1)^0,f,c
  4888  0020C8  90D8               	bcf	status,0,c
  4889  0020CA  3407               	rlcf	frisbeeHeld@selected_player^0,w,c
  4890  0020CC  6ED9               	movwf	fsr2l,c
  4891  0020CE  3408               	rlcf	(frisbeeHeld@selected_player+1)^0,w,c
  4892  0020D0  6EDA               	movwf	fsr2h,c
  4893  0020D2  90D8               	bcf	status,0,c
  4894  0020D4  36D9               	rlcf	fsr2l,f,c
  4895  0020D6  36DA               	rlcf	fsr2h,f,c
  4896  0020D8  5003               	movf	??_frisbeeHeld^0,w,c
  4897  0020DA  26D9               	addwf	fsr2l,f,c
  4898  0020DC  5004               	movf	(??_frisbeeHeld+1)^0,w,c
  4899  0020DE  22DA               	addwfc	fsr2h,f,c
  4900  0020E0  50DE               	movf	postinc2,w,c
  4901  0020E2  1852               	xorwf	(_gameState+18)^0,w,c
  4902  0020E4  E107               	bnz	i2u119_41
  4903  0020E6  50DE               	movf	postinc2,w,c
  4904  0020E8  1853               	xorwf	(_gameState+19)^0,w,c
  4905  0020EA  A4D8               	btfss	status,2,c
  4906  0020EC  EF7A  F010         	goto	i2u119_41
  4907  0020F0  EF7C  F010         	goto	i2u119_40
  4908  0020F4                     i2u119_41:
  4909  0020F4  EF86  F010         	goto	i2l2010
  4910  0020F8                     i2u119_40:
  4911  0020F8                     
  4912                           ;newmain.c: 150:             && gameState.frisbee_position.y == gameState.player_positio
      +                          ns[selected_player].y) {;newmain.c: 151:         frisbee_held = 1;
  4913  0020F8  0E00               	movlw	0
  4914  0020FA  6E70               	movwf	(_frisbee_held+1)^0,c
  4915  0020FC  0E01               	movlw	1
  4916  0020FE  6E6F               	movwf	_frisbee_held^0,c
  4917                           
  4918                           ;newmain.c: 152:         return 1;
  4919  002100  0E00               	movlw	0
  4920  002102  6E02               	movwf	(?_frisbeeHeld+1)^0,c
  4921  002104  0E01               	movlw	1
  4922  002106  6E01               	movwf	?_frisbeeHeld^0,c
  4923  002108  EF8A  F010         	goto	i2l215
  4924  00210C                     i2l2010:
  4925                           
  4926                           ;newmain.c: 155:     return 0;
  4927  00210C  0E00               	movlw	0
  4928  00210E  6E02               	movwf	(?_frisbeeHeld+1)^0,c
  4929  002110  0E00               	movlw	0
  4930  002112  6E01               	movwf	?_frisbeeHeld^0,c
  4931  002114                     i2l215:
  4932  002114  0012               	return		;funcret
  4933  002116                     __end_of_frisbeeHeld:
  4934                           	callstack 0
  4935                           
  4936 ;; *************** function _blink *****************
  4937 ;; Defined at:
  4938 ;;		line 448 in file "newmain.c"
  4939 ;; Parameters:    Size  Location     Type
  4940 ;;		None
  4941 ;; Auto vars:     Size  Location     Type
  4942 ;;		None
  4943 ;; Return value:  Size  Location     Type
  4944 ;;                  1    wreg      void 
  4945 ;; Registers used:
  4946 ;;		wreg, status,2, status,0, tblptrl, tblptrh, tblptru, cstack
  4947 ;; Tracked objects:
  4948 ;;		On entry : 0/0
  4949 ;;		On exit  : 0/0
  4950 ;;		Unchanged: 0/0
  4951 ;; Data sizes:     COMRAM   BANK0   BANK1   BANK2   BANK3   BANK4   BANK5   BANK6   BANK7   BANK8   BANK9  BANK10  BANK1
      +1  BANK12  BANK13  BANK14  BANK15
  4952 ;;      Params:         0       0       0       0       0       0       0       0       0       0       0       0       
      +0       0       0       0       0
  4953 ;;      Locals:         0       0       0       0       0       0       0       0       0       0       0       0       
      +0       0       0       0       0
  4954 ;;      Temps:          0       0       0       0       0       0       0       0       0       0       0       0       
      +0       0       0       0       0
  4955 ;;      Totals:         0       0       0       0       0       0       0       0       0       0       0       0       
      +0       0       0       0       0
  4956 ;;Total ram usage:        0 bytes
  4957 ;; Hardware stack levels used:    1
  4958 ;; Hardware stack levels required when called:    2
  4959 ;; This function calls:
  4960 ;;		_LCDStr
  4961 ;;		i2_LCDDat
  4962 ;;		i2_LCDGoto
  4963 ;; This function is called by:
  4964 ;;		_FNC
  4965 ;; This function uses a non-reentrant model
  4966 ;;
  4967                           
  4968                           	psect	text26
  4969  0025DC                     __ptext26:
  4970                           	callstack 0
  4971  0025DC                     _blink:
  4972                           	callstack 24
  4973  0025DC                     
  4974                           ;newmain.c: 449:     if (blink_flag){
  4975  0025DC  506B               	movf	_blink_flag^0,w,c
  4976  0025DE  106C               	iorwf	(_blink_flag+1)^0,w,c
  4977  0025E0  B4D8               	btfsc	status,2,c
  4978  0025E2  EFF5  F012         	goto	i2u163_41
  4979  0025E6  EFF7  F012         	goto	i2u163_40
  4980  0025EA                     i2u163_41:
  4981  0025EA  EF05  F013         	goto	i2l2372
  4982  0025EE                     i2u163_40:
  4983  0025EE                     
  4984                           ;newmain.c: 450:         LCDGoto(target_x,target_y);
  4985  0025EE  C071  F002         	movff	_target_y,i2LCDGoto@p_1
  4986  0025F2  5073               	movf	_target_x^0,w,c
  4987  0025F4  EC8A  F011         	call	i2_LCDGoto
  4988  0025F8                     
  4989                           ;newmain.c: 451:         LCDDat(7);
  4990  0025F8  0E07               	movlw	7
  4991  0025FA  ECD2  F013         	call	i2_LCDDat
  4992  0025FE                     
  4993                           ;newmain.c: 452:         blink_flag = 0;
  4994  0025FE  0E00               	movlw	0
  4995  002600  6E6C               	movwf	(_blink_flag+1)^0,c
  4996  002602  0E00               	movlw	0
  4997  002604  6E6B               	movwf	_blink_flag^0,c
  4998                           
  4999                           ;newmain.c: 453:     }
  5000  002606  EF14  F013         	goto	i2l305
  5001  00260A                     i2l2372:
  5002                           
  5003                           ;newmain.c: 455:         LCDGoto(target_x,target_y);
  5004  00260A  C071  F002         	movff	_target_y,i2LCDGoto@p_1
  5005  00260E  5073               	movf	_target_x^0,w,c
  5006  002610  EC8A  F011         	call	i2_LCDGoto
  5007  002614                     
  5008                           ;newmain.c: 456:         LCDStr(" ");
  5009  002614  0E01               	movlw	low STR_1
  5010  002616  6E02               	movwf	LCDStr@str^0,c
  5011  002618  0E10               	movlw	high STR_1
  5012  00261A  6E03               	movwf	(LCDStr@str+1)^0,c
  5013  00261C  ECD3  F010         	call	_LCDStr	;wreg free
  5014  002620                     
  5015                           ;newmain.c: 457:         blink_flag = 1;
  5016  002620  0E00               	movlw	0
  5017  002622  6E6C               	movwf	(_blink_flag+1)^0,c
  5018  002624  0E01               	movlw	1
  5019  002626  6E6B               	movwf	_blink_flag^0,c
  5020  002628                     i2l305:
  5021  002628  0012               	return		;funcret
  5022  00262A                     __end_of_blink:
  5023                           	callstack 0
  5024                           
  5025 ;; *************** function i2_LCDGoto *****************
  5026 ;; Defined at:
  5027 ;;		line 72 in file "./LCD.h"
  5028 ;; Parameters:    Size  Location     Type
  5029 ;;  p_2             1    wreg     unsigned char 
  5030 ;;  p_1             1    1[COMRAM] unsigned char 
  5031 ;; Auto vars:     Size  Location     Type
  5032 ;;  p_2             1    2[COMRAM] unsigned char 
  5033 ;; Return value:  Size  Location     Type
  5034 ;;                  1    wreg      void 
  5035 ;; Registers used:
  5036 ;;		wreg, status,2, status,0, cstack
  5037 ;; Tracked objects:
  5038 ;;		On entry : 0/0
  5039 ;;		On exit  : 0/0
  5040 ;;		Unchanged: 0/0
  5041 ;; Data sizes:     COMRAM   BANK0   BANK1   BANK2   BANK3   BANK4   BANK5   BANK6   BANK7   BANK8   BANK9  BANK10  BANK1
      +1  BANK12  BANK13  BANK14  BANK15
  5042 ;;      Params:         1       0       0       0       0       0       0       0       0       0       0       0       
      +0       0       0       0       0
  5043 ;;      Locals:         1       0       0       0       0       0       0       0       0       0       0       0       
      +0       0       0       0       0
  5044 ;;      Temps:          0       0       0       0       0       0       0       0       0       0       0       0       
      +0       0       0       0       0
  5045 ;;      Totals:         2       0       0       0       0       0       0       0       0       0       0       0       
      +0       0       0       0       0
  5046 ;;Total ram usage:        2 bytes
  5047 ;; Hardware stack levels used:    1
  5048 ;; Hardware stack levels required when called:    1
  5049 ;; This function calls:
  5050 ;;		i2_LCDCmd
  5051 ;; This function is called by:
  5052 ;;		_moveSelectedPlayerPositionOnLCD
  5053 ;;		_frisbeeHeldOnLCD
  5054 ;;		_frisbeeReleasedOnLCD
  5055 ;;		_switchSelectedPlayer
  5056 ;;		_throwFrisbee
  5057 ;;		_moveFrisbee
  5058 ;;		_blink
  5059 ;; This function uses a non-reentrant model
  5060 ;;
  5061                           
  5062                           	psect	text27
  5063  002314                     __ptext27:
  5064                           	callstack 0
  5065  002314                     i2_LCDGoto:
  5066                           	callstack 24
  5067                           
  5068                           ;incstack = 0
  5069                           ;i2LCDGoto@p_2 stored from wreg
  5070  002314  6E03               	movwf	i2LCDGoto@p_2^0,c
  5071  002316                     
  5072                           ;./LCD.h: 73:   if(p_1==1) {
  5073  002316  0402               	decf	i2LCDGoto@p_1^0,w,c
  5074  002318  A4D8               	btfss	status,2,c
  5075  00231A  EF91  F011         	goto	i2u94_41
  5076  00231E  EF93  F011         	goto	i2u94_40
  5077  002322                     i2u94_41:
  5078  002322  EF9A  F011         	goto	i2l1840
  5079  002326                     i2u94_40:
  5080  002326                     
  5081                           ;./LCD.h: 74:     LCDCmd(0x80 +((p_2-1)%16));
  5082  002326  0403               	decf	i2LCDGoto@p_2^0,w,c
  5083  002328  0B0F               	andlw	15
  5084  00232A  0F80               	addlw	128
  5085  00232C  ECDB  F013         	call	i2_LCDCmd
  5086                           
  5087                           ;./LCD.h: 75:   }
  5088  002330  EFBF  F011         	goto	i2l1850
  5089  002334                     i2l1840:
  5090  002334  0E02               	movlw	2
  5091  002336  1802               	xorwf	i2LCDGoto@p_1^0,w,c
  5092  002338  A4D8               	btfss	status,2,c
  5093  00233A  EFA1  F011         	goto	i2u95_41
  5094  00233E  EFA3  F011         	goto	i2u95_40
  5095  002342                     i2u95_41:
  5096  002342  EFAA  F011         	goto	i2l1844
  5097  002346                     i2u95_40:
  5098  002346                     
  5099                           ;./LCD.h: 77:     LCDCmd(0xC0 +((p_2-1)%16));
  5100  002346  0403               	decf	i2LCDGoto@p_2^0,w,c
  5101  002348  0B0F               	andlw	15
  5102  00234A  0FC0               	addlw	192
  5103  00234C  ECDB  F013         	call	i2_LCDCmd
  5104                           
  5105                           ;./LCD.h: 78:   }
  5106  002350  EFBF  F011         	goto	i2l1850
  5107  002354                     i2l1844:
  5108  002354  0E03               	movlw	3
  5109  002356  1802               	xorwf	i2LCDGoto@p_1^0,w,c
  5110  002358  A4D8               	btfss	status,2,c
  5111  00235A  EFB1  F011         	goto	i2u96_41
  5112  00235E  EFB3  F011         	goto	i2u96_40
  5113  002362                     i2u96_41:
  5114  002362  EFBA  F011         	goto	i2l1848
  5115  002366                     i2u96_40:
  5116  002366                     
  5117                           ;./LCD.h: 80:     LCDCmd(0x90 +((p_2-1)%16));
  5118  002366  0403               	decf	i2LCDGoto@p_2^0,w,c
  5119  002368  0B0F               	andlw	15
  5120  00236A  0F90               	addlw	144
  5121  00236C  ECDB  F013         	call	i2_LCDCmd
  5122                           
  5123                           ;./LCD.h: 81:   }
  5124  002370  EFBF  F011         	goto	i2l1850
  5125  002374                     i2l1848:
  5126                           
  5127                           ;./LCD.h: 83:     LCDCmd(0xD0 +((p_2-1)%16));
  5128  002374  0403               	decf	i2LCDGoto@p_2^0,w,c
  5129  002376  0B0F               	andlw	15
  5130  002378  0FD0               	addlw	208
  5131  00237A  ECDB  F013         	call	i2_LCDCmd
  5132  00237E                     i2l1850:
  5133                           
  5134                           ;./LCD.h: 85:   lcd_x = p_2;
  5135  00237E  C003  F068         	movff	i2LCDGoto@p_2,_lcd_x
  5136  002382                     
  5137                           ;./LCD.h: 86:   lcd_y = p_1;
  5138  002382  C002  F067         	movff	i2LCDGoto@p_1,_lcd_y
  5139  002386  0012               	return		;funcret
  5140  002388                     __end_ofi2_LCDGoto:
  5141                           	callstack 0
  5142                           
  5143 ;; *************** function i2_LCDCmd *****************
  5144 ;; Defined at:
  5145 ;;		line 48 in file "./LCD.h"
  5146 ;; Parameters:    Size  Location     Type
  5147 ;;  cmd             1    wreg     unsigned char 
  5148 ;; Auto vars:     Size  Location     Type
  5149 ;;  cmd             1    0[COMRAM] unsigned char 
  5150 ;; Return value:  Size  Location     Type
  5151 ;;                  1    wreg      void 
  5152 ;; Registers used:
  5153 ;;		wreg
  5154 ;; Tracked objects:
  5155 ;;		On entry : 0/0
  5156 ;;		On exit  : 0/0
  5157 ;;		Unchanged: 0/0
  5158 ;; Data sizes:     COMRAM   BANK0   BANK1   BANK2   BANK3   BANK4   BANK5   BANK6   BANK7   BANK8   BANK9  BANK10  BANK1
      +1  BANK12  BANK13  BANK14  BANK15
  5159 ;;      Params:         0       0       0       0       0       0       0       0       0       0       0       0       
      +0       0       0       0       0
  5160 ;;      Locals:         1       0       0       0       0       0       0       0       0       0       0       0       
      +0       0       0       0       0
  5161 ;;      Temps:          0       0       0       0       0       0       0       0       0       0       0       0       
      +0       0       0       0       0
  5162 ;;      Totals:         1       0       0       0       0       0       0       0       0       0       0       0       
      +0       0       0       0       0
  5163 ;;Total ram usage:        1 bytes
  5164 ;; Hardware stack levels used:    1
  5165 ;; This function calls:
  5166 ;;		Nothing
  5167 ;; This function is called by:
  5168 ;;		i2_LCDGoto
  5169 ;; This function uses a non-reentrant model
  5170 ;;
  5171                           
  5172                           	psect	text28
  5173  0027B6                     __ptext28:
  5174                           	callstack 0
  5175  0027B6                     i2_LCDCmd:
  5176                           	callstack 24
  5177                           
  5178                           ;incstack = 0
  5179                           ;i2LCDCmd@cmd stored from wreg
  5180  0027B6  6E01               	movwf	i2LCDCmd@cmd^0,c
  5181  0027B8                     
  5182                           ;./LCD.h: 49:   PORTEbits.RE1 = 0;
  5183  0027B8  9284               	bcf	132,1,c	;volatile
  5184                           
  5185                           ;./LCD.h: 50:   PORTEbits.RE2 = 0;
  5186  0027BA  9484               	bcf	132,2,c	;volatile
  5187  0027BC                     
  5188                           ;./LCD.h: 51:   PORTD = cmd;
  5189  0027BC  C001  FF83         	movff	i2LCDCmd@cmd,3971	;volatile
  5190  0027C0                     
  5191                           ;./LCD.h: 52:   PORTEbits.RE1 = 1;
  5192  0027C0  8284               	bsf	132,1,c	;volatile
  5193  0027C2                     
  5194                           ;./LCD.h: 54:   PORTEbits.RE1 = 0;
  5195  0027C2  9284               	bcf	132,1,c	;volatile
  5196  0027C4  0012               	return		;funcret
  5197  0027C6                     __end_ofi2_LCDCmd:
  5198                           	callstack 0
  5199                           
  5200 ;; *************** function _LCDStr *****************
  5201 ;; Defined at:
  5202 ;;		line 91 in file "./LCD.h"
  5203 ;; Parameters:    Size  Location     Type
  5204 ;;  str             2    1[COMRAM] PTR const unsigned char 
  5205 ;;		 -> STR_9(2), STR_8(2), STR_7(2), STR_6(2), 
  5206 ;;		 -> STR_5(2), STR_4(2), STR_3(2), STR_2(2), 
  5207 ;;		 -> STR_1(2), 
  5208 ;; Auto vars:     Size  Location     Type
  5209 ;;  i               1    5[COMRAM] unsigned char 
  5210 ;; Return value:  Size  Location     Type
  5211 ;;                  1    wreg      void 
  5212 ;; Registers used:
  5213 ;;		wreg, status,2, status,0, tblptrl, tblptrh, tblptru, cstack
  5214 ;; Tracked objects:
  5215 ;;		On entry : 0/0
  5216 ;;		On exit  : 0/0
  5217 ;;		Unchanged: 0/0
  5218 ;; Data sizes:     COMRAM   BANK0   BANK1   BANK2   BANK3   BANK4   BANK5   BANK6   BANK7   BANK8   BANK9  BANK10  BANK1
      +1  BANK12  BANK13  BANK14  BANK15
  5219 ;;      Params:         2       0       0       0       0       0       0       0       0       0       0       0       
      +0       0       0       0       0
  5220 ;;      Locals:         1       0       0       0       0       0       0       0       0       0       0       0       
      +0       0       0       0       0
  5221 ;;      Temps:          2       0       0       0       0       0       0       0       0       0       0       0       
      +0       0       0       0       0
  5222 ;;      Totals:         5       0       0       0       0       0       0       0       0       0       0       0       
      +0       0       0       0       0
  5223 ;;Total ram usage:        5 bytes
  5224 ;; Hardware stack levels used:    1
  5225 ;; Hardware stack levels required when called:    1
  5226 ;; This function calls:
  5227 ;;		i2_LCDDat
  5228 ;; This function is called by:
  5229 ;;		_moveSelectedPlayerPositionOnLCD
  5230 ;;		_frisbeeHeldOnLCD
  5231 ;;		_frisbeeReleasedOnLCD
  5232 ;;		_switchSelectedPlayer
  5233 ;;		_throwFrisbee
  5234 ;;		_moveFrisbee
  5235 ;;		_blink
  5236 ;; This function uses a non-reentrant model
  5237 ;;
  5238                           
  5239                           	psect	text29
  5240  0021A6                     __ptext29:
  5241                           	callstack 0
  5242  0021A6                     _LCDStr:
  5243                           	callstack 24
  5244  0021A6                     
  5245                           ;./LCD.h: 92:   for (unsigned char i = 0; str[i] != 0; i++) {
  5246  0021A6  0E00               	movlw	0
  5247  0021A8  6E06               	movwf	LCDStr@i^0,c
  5248  0021AA  EFFE  F010         	goto	i2l1820
  5249  0021AE                     i2l1804:
  5250                           
  5251                           ;./LCD.h: 93:     LCDDat(str[i]);
  5252  0021AE  5006               	movf	LCDStr@i^0,w,c
  5253  0021B0  2402               	addwf	LCDStr@str^0,w,c
  5254  0021B2  6E04               	movwf	??_LCDStr^0,c
  5255  0021B4  0E00               	movlw	0
  5256  0021B6  2003               	addwfc	(LCDStr@str+1)^0,w,c
  5257  0021B8  6E05               	movwf	(??_LCDStr+1)^0,c
  5258  0021BA  C004  FFF6         	movff	??_LCDStr,tblptrl
  5259  0021BE  C005  FFF7         	movff	??_LCDStr+1,tblptrh
  5260  0021C2                     	if	0	;tblptru may be non-zero
  5261  0021C2                     	endif
  5262  0021C2                     	if	0	;tblptru may be non-zero
  5263  0021C2                     	endif
  5264  0021C2  0008               	tblrd		*
  5265  0021C4  50F5               	movf	tablat,w,c
  5266  0021C6  ECD2  F013         	call	i2_LCDDat
  5267  0021CA                     
  5268                           ;./LCD.h: 94:     lcd_x ++;
  5269  0021CA  2A68               	incf	_lcd_x^0,f,c
  5270  0021CC                     
  5271                           ;./LCD.h: 95:     if(lcd_x == 17) {
  5272  0021CC  0E11               	movlw	17
  5273  0021CE  1868               	xorwf	_lcd_x^0,w,c
  5274  0021D0  A4D8               	btfss	status,2,c
  5275  0021D2  EFED  F010         	goto	i2u91_41
  5276  0021D6  EFEF  F010         	goto	i2u91_40
  5277  0021DA                     i2u91_41:
  5278  0021DA  EFFD  F010         	goto	i2l1818
  5279  0021DE                     i2u91_40:
  5280  0021DE                     
  5281                           ;./LCD.h: 96:       lcd_x = 1;
  5282  0021DE  0E01               	movlw	1
  5283  0021E0  6E68               	movwf	_lcd_x^0,c
  5284  0021E2                     
  5285                           ;./LCD.h: 97:       lcd_y++;
  5286  0021E2  2A67               	incf	_lcd_y^0,f,c
  5287  0021E4                     
  5288                           ;./LCD.h: 98:       if (lcd_y == 5) {
  5289  0021E4  0E05               	movlw	5
  5290  0021E6  1867               	xorwf	_lcd_y^0,w,c
  5291  0021E8  A4D8               	btfss	status,2,c
  5292  0021EA  EFF9  F010         	goto	i2u92_41
  5293  0021EE  EFFB  F010         	goto	i2u92_40
  5294  0021F2                     i2u92_41:
  5295  0021F2  EFFD  F010         	goto	i2l1818
  5296  0021F6                     i2u92_40:
  5297  0021F6                     
  5298                           ;./LCD.h: 99:          lcd_y = 1;
  5299  0021F6  0E01               	movlw	1
  5300  0021F8  6E67               	movwf	_lcd_y^0,c
  5301  0021FA                     i2l1818:
  5302                           
  5303                           ;./LCD.h: 103:   }
  5304  0021FA  2A06               	incf	LCDStr@i^0,f,c
  5305  0021FC                     i2l1820:
  5306  0021FC  5006               	movf	LCDStr@i^0,w,c
  5307  0021FE  2402               	addwf	LCDStr@str^0,w,c
  5308  002200  6E04               	movwf	??_LCDStr^0,c
  5309  002202  0E00               	movlw	0
  5310  002204  2003               	addwfc	(LCDStr@str+1)^0,w,c
  5311  002206  6E05               	movwf	(??_LCDStr+1)^0,c
  5312  002208  C004  FFF6         	movff	??_LCDStr,tblptrl
  5313  00220C  C005  FFF7         	movff	??_LCDStr+1,tblptrh
  5314  002210                     	if	0	;tblptru may be non-zero
  5315  002210                     	endif
  5316  002210                     	if	0	;tblptru may be non-zero
  5317  002210                     	endif
  5318  002210  0008               	tblrd		*
  5319  002212  50F5               	movf	tablat,w,c
  5320  002214  0900               	iorlw	0
  5321  002216  A4D8               	btfss	status,2,c
  5322  002218  EF10  F011         	goto	i2u93_41
  5323  00221C  EF12  F011         	goto	i2u93_40
  5324  002220                     i2u93_41:
  5325  002220  EFD7  F010         	goto	i2l1804
  5326  002224                     i2u93_40:
  5327  002224  0012               	return		;funcret
  5328  002226                     __end_of_LCDStr:
  5329                           	callstack 0
  5330                           
  5331 ;; *************** function i2_LCDDat *****************
  5332 ;; Defined at:
  5333 ;;		line 58 in file "./LCD.h"
  5334 ;; Parameters:    Size  Location     Type
  5335 ;;  dat             1    wreg     unsigned char 
  5336 ;; Auto vars:     Size  Location     Type
  5337 ;;  dat             1    0[COMRAM] unsigned char 
  5338 ;; Return value:  Size  Location     Type
  5339 ;;                  1    wreg      void 
  5340 ;; Registers used:
  5341 ;;		wreg
  5342 ;; Tracked objects:
  5343 ;;		On entry : 0/0
  5344 ;;		On exit  : 0/0
  5345 ;;		Unchanged: 0/0
  5346 ;; Data sizes:     COMRAM   BANK0   BANK1   BANK2   BANK3   BANK4   BANK5   BANK6   BANK7   BANK8   BANK9  BANK10  BANK1
      +1  BANK12  BANK13  BANK14  BANK15
  5347 ;;      Params:         0       0       0       0       0       0       0       0       0       0       0       0       
      +0       0       0       0       0
  5348 ;;      Locals:         1       0       0       0       0       0       0       0       0       0       0       0       
      +0       0       0       0       0
  5349 ;;      Temps:          0       0       0       0       0       0       0       0       0       0       0       0       
      +0       0       0       0       0
  5350 ;;      Totals:         1       0       0       0       0       0       0       0       0       0       0       0       
      +0       0       0       0       0
  5351 ;;Total ram usage:        1 bytes
  5352 ;; Hardware stack levels used:    1
  5353 ;; This function calls:
  5354 ;;		Nothing
  5355 ;; This function is called by:
  5356 ;;		_LCDStr
  5357 ;;		_moveSelectedPlayerPositionOnLCD
  5358 ;;		_frisbeeHeldOnLCD
  5359 ;;		_frisbeeReleasedOnLCD
  5360 ;;		_switchSelectedPlayer
  5361 ;;		_throwFrisbee
  5362 ;;		_moveFrisbee
  5363 ;;		_blink
  5364 ;; This function uses a non-reentrant model
  5365 ;;
  5366                           
  5367                           	psect	text30
  5368  0027A4                     __ptext30:
  5369                           	callstack 0
  5370  0027A4                     i2_LCDDat:
  5371                           	callstack 25
  5372                           
  5373                           ;incstack = 0
  5374                           ;i2LCDDat@dat stored from wreg
  5375  0027A4  6E01               	movwf	i2LCDDat@dat^0,c
  5376  0027A6                     
  5377                           ;./LCD.h: 59:   PORTEbits.RE1 = 0;
  5378  0027A6  9284               	bcf	132,1,c	;volatile
  5379                           
  5380                           ;./LCD.h: 60:   PORTEbits.RE2 = 1;
  5381  0027A8  8484               	bsf	132,2,c	;volatile
  5382  0027AA                     
  5383                           ;./LCD.h: 61:   PORTD = dat;
  5384  0027AA  C001  FF83         	movff	i2LCDDat@dat,3971	;volatile
  5385  0027AE                     
  5386                           ;./LCD.h: 62:   PORTEbits.RE1 = 1;
  5387  0027AE  8284               	bsf	132,1,c	;volatile
  5388  0027B0                     
  5389                           ;./LCD.h: 64:   PORTEbits.RE1 = 0;
  5390  0027B0  9284               	bcf	132,1,c	;volatile
  5391  0027B2                     
  5392                           ;./LCD.h: 66:   PORTEbits.RE2 = 0;
  5393  0027B2  9484               	bcf	132,2,c	;volatile
  5394  0027B4  0012               	return		;funcret
  5395  0027B6                     __end_ofi2_LCDDat:
  5396                           	callstack 0
  5397                           
  5398                           	psect	rparam
  5399  0000                     
  5400                           	psect	temp
  5401  000079                     btemp:
  5402                           	callstack 0
  5403  000079                     	ds	1
  5404  0000                     int$flags	set	btemp
  5405  0000                     wtemp8	set	btemp+1
  5406  0000                     ttemp5	set	btemp+1
  5407  0000                     ttemp6	set	btemp+4
  5408  0000                     ttemp7	set	btemp+8
  5409                           
  5410                           	psect	idloc
  5411                           
  5412                           ;Config register IDLOC0 @ 0x200000
  5413                           ;	unspecified, using default values
  5414  200000                     	org	2097152
  5415  200000  FF                 	db	255
  5416                           
  5417                           ;Config register IDLOC1 @ 0x200001
  5418                           ;	unspecified, using default values
  5419  200001                     	org	2097153
  5420  200001  FF                 	db	255
  5421                           
  5422                           ;Config register IDLOC2 @ 0x200002
  5423                           ;	unspecified, using default values
  5424  200002                     	org	2097154
  5425  200002  FF                 	db	255
  5426                           
  5427                           ;Config register IDLOC3 @ 0x200003
  5428                           ;	unspecified, using default values
  5429  200003                     	org	2097155
  5430  200003  FF                 	db	255
  5431                           
  5432                           ;Config register IDLOC4 @ 0x200004
  5433                           ;	unspecified, using default values
  5434  200004                     	org	2097156
  5435  200004  FF                 	db	255
  5436                           
  5437                           ;Config register IDLOC5 @ 0x200005
  5438                           ;	unspecified, using default values
  5439  200005                     	org	2097157
  5440  200005  FF                 	db	255
  5441                           
  5442                           ;Config register IDLOC6 @ 0x200006
  5443                           ;	unspecified, using default values
  5444  200006                     	org	2097158
  5445  200006  FF                 	db	255
  5446                           
  5447                           ;Config register IDLOC7 @ 0x200007
  5448                           ;	unspecified, using default values
  5449  200007                     	org	2097159
  5450  200007  FF                 	db	255
  5451                           
  5452                           	psect	config
  5453                           
  5454                           ; Padding undefined space
  5455  300000                     	org	3145728
  5456  300000  FF                 	db	255
  5457                           
  5458                           ;Config register CONFIG1H @ 0x300001
  5459                           ;	Oscillator Selection bits
  5460                           ;	OSC = INTIO67, Internal oscillator block, port function on RA6 and RA7
  5461                           ;	Fail-Safe Clock Monitor Enable bit
  5462                           ;	FCMEN = OFF, Fail-Safe Clock Monitor disabled
  5463                           ;	Internal/External Oscillator Switchover bit
  5464                           ;	IESO = OFF, Oscillator Switchover mode disabled
  5465  300001                     	org	3145729
  5466  300001  08                 	db	8
  5467                           
  5468                           ;Config register CONFIG2L @ 0x300002
  5469                           ;	Power-up Timer Enable bit
  5470                           ;	PWRT = OFF, PWRT disabled
  5471                           ;	Brown-out Reset Enable bits
  5472                           ;	BOREN = SBORDIS, Brown-out Reset enabled in hardware only (SBOREN is disabled)
  5473                           ;	Brown Out Reset Voltage bits
  5474                           ;	BORV = 3, Minimum setting
  5475  300002                     	org	3145730
  5476  300002  1F                 	db	31
  5477                           
  5478                           ;Config register CONFIG2H @ 0x300003
  5479                           ;	Watchdog Timer Enable bit
  5480                           ;	WDT = OFF, WDT disabled (control is placed on the SWDTEN bit)
  5481                           ;	Watchdog Timer Postscale Select bits
  5482                           ;	WDTPS = 32768, 1:32768
  5483  300003                     	org	3145731
  5484  300003  1E                 	db	30
  5485                           
  5486                           ; Padding undefined space
  5487  300004                     	org	3145732
  5488  300004  FF                 	db	255
  5489                           
  5490                           ;Config register CONFIG3H @ 0x300005
  5491                           ;	CCP2 MUX bit
  5492                           ;	CCP2MX = PORTC, CCP2 input/output is multiplexed with RC1
  5493                           ;	PORTB A/D Enable bit
  5494                           ;	PBADEN = OFF, PORTB<4:0> pins are configured as digital I/O on Reset
  5495                           ;	Low-Power Timer1 Oscillator Enable bit
  5496                           ;	LPT1OSC = OFF, Timer1 configured for higher power operation
  5497                           ;	MCLR Pin Enable bit
  5498                           ;	MCLRE = ON, MCLR pin enabled; RE3 input pin disabled
  5499  300005                     	org	3145733
  5500  300005  81                 	db	129
  5501                           
  5502                           ;Config register CONFIG4L @ 0x300006
  5503                           ;	Stack Full/Underflow Reset Enable bit
  5504                           ;	STVREN = ON, Stack full/underflow will cause Reset
  5505                           ;	Single-Supply ICSP Enable bit
  5506                           ;	LVP = OFF, Single-Supply ICSP disabled
  5507                           ;	Extended Instruction Set Enable bit
  5508                           ;	XINST = OFF, Instruction set extension and Indexed Addressing mode disabled (Legacy mo
      +                          de)
  5509                           ;	Background Debugger Enable bit
  5510                           ;	DEBUG = 0x1, unprogrammed default
  5511  300006                     	org	3145734
  5512  300006  81                 	db	129
  5513                           
  5514                           ; Padding undefined space
  5515  300007                     	org	3145735
  5516  300007  FF                 	db	255
  5517                           
  5518                           ;Config register CONFIG5L @ 0x300008
  5519                           ;	Code Protection bit
  5520                           ;	CP0 = OFF, Block 0 (000800-003FFFh) not code-protected
  5521                           ;	Code Protection bit
  5522                           ;	CP1 = OFF, Block 1 (004000-007FFFh) not code-protected
  5523                           ;	Code Protection bit
  5524                           ;	CP2 = OFF, Block 2 (008000-00BFFFh) not code-protected
  5525                           ;	Code Protection bit
  5526                           ;	CP3 = OFF, Block 3 (00C000-00FFFFh) not code-protected
  5527  300008                     	org	3145736
  5528  300008  0F                 	db	15
  5529                           
  5530                           ;Config register CONFIG5H @ 0x300009
  5531                           ;	Boot Block Code Protection bit
  5532                           ;	CPB = OFF, Boot block (000000-0007FFh) not code-protected
  5533                           ;	Data EEPROM Code Protection bit
  5534                           ;	CPD = OFF, Data EEPROM not code-protected
  5535  300009                     	org	3145737
  5536  300009  C0                 	db	192
  5537                           
  5538                           ;Config register CONFIG6L @ 0x30000A
  5539                           ;	Write Protection bit
  5540                           ;	WRT0 = OFF, Block 0 (000800-003FFFh) not write-protected
  5541                           ;	Write Protection bit
  5542                           ;	WRT1 = OFF, Block 1 (004000-007FFFh) not write-protected
  5543                           ;	Write Protection bit
  5544                           ;	WRT2 = OFF, Block 2 (008000-00BFFFh) not write-protected
  5545                           ;	Write Protection bit
  5546                           ;	WRT3 = OFF, Block 3 (00C000-00FFFFh) not write-protected
  5547  30000A                     	org	3145738
  5548  30000A  0F                 	db	15
  5549                           
  5550                           ;Config register CONFIG6H @ 0x30000B
  5551                           ;	Configuration Register Write Protection bit
  5552                           ;	WRTC = OFF, Configuration registers (300000-3000FFh) not write-protected
  5553                           ;	Boot Block Write Protection bit
  5554                           ;	WRTB = OFF, Boot Block (000000-0007FFh) not write-protected
  5555                           ;	Data EEPROM Write Protection bit
  5556                           ;	WRTD = OFF, Data EEPROM not write-protected
  5557  30000B                     	org	3145739
  5558  30000B  E0                 	db	224
  5559                           
  5560                           ;Config register CONFIG7L @ 0x30000C
  5561                           ;	Table Read Protection bit
  5562                           ;	EBTR0 = OFF, Block 0 (000800-003FFFh) not protected from table reads executed in other
      +                           blocks
  5563                           ;	Table Read Protection bit
  5564                           ;	EBTR1 = OFF, Block 1 (004000-007FFFh) not protected from table reads executed in other
      +                           blocks
  5565                           ;	Table Read Protection bit
  5566                           ;	EBTR2 = OFF, Block 2 (008000-00BFFFh) not protected from table reads executed in other
      +                           blocks
  5567                           ;	Table Read Protection bit
  5568                           ;	EBTR3 = OFF, Block 3 (00C000-00FFFFh) not protected from table reads executed in other
      +                           blocks
  5569  30000C                     	org	3145740
  5570  30000C  0F                 	db	15
  5571                           
  5572                           ;Config register CONFIG7H @ 0x30000D
  5573                           ;	Boot Block Table Read Protection bit
  5574                           ;	EBTRB = OFF, Boot Block (000000-0007FFh) not protected from table reads executed in ot
      +                          her blocks
  5575  30000D                     	org	3145741
  5576  30000D  40                 	db	64
  5577                           tosu	equ	0xFFF
  5578                           tosh	equ	0xFFE
  5579                           tosl	equ	0xFFD
  5580                           stkptr	equ	0xFFC
  5581                           pclatu	equ	0xFFB
  5582                           pclath	equ	0xFFA
  5583                           pcl	equ	0xFF9
  5584                           tblptru	equ	0xFF8
  5585                           tblptrh	equ	0xFF7
  5586                           tblptrl	equ	0xFF6
  5587                           tablat	equ	0xFF5
  5588                           prodh	equ	0xFF4
  5589                           prodl	equ	0xFF3
  5590                           indf0	equ	0xFEF
  5591                           postinc0	equ	0xFEE
  5592                           postdec0	equ	0xFED
  5593                           preinc0	equ	0xFEC
  5594                           plusw0	equ	0xFEB
  5595                           fsr0h	equ	0xFEA
  5596                           fsr0l	equ	0xFE9
  5597                           wreg	equ	0xFE8
  5598                           indf1	equ	0xFE7
  5599                           postinc1	equ	0xFE6
  5600                           postdec1	equ	0xFE5
  5601                           preinc1	equ	0xFE4
  5602                           plusw1	equ	0xFE3
  5603                           fsr1h	equ	0xFE2
  5604                           fsr1l	equ	0xFE1
  5605                           bsr	equ	0xFE0
  5606                           indf2	equ	0xFDF
  5607                           postinc2	equ	0xFDE
  5608                           postdec2	equ	0xFDD
  5609                           preinc2	equ	0xFDC
  5610                           plusw2	equ	0xFDB
  5611                           fsr2h	equ	0xFDA
  5612                           fsr2l	equ	0xFD9
  5613                           status	equ	0xFD8

Data Sizes:
    Strings     2
    Constant    0
    Data        105
    BSS         84
    Persistent  0
    Stack       0

Auto Spaces:
    Space          Size  Autos    Used
    COMRAM          126     63     120
    BANK0           128      5      77
    BANK1           256      0      60
    BANK2           256      0       0
    BANK3           256      0       0
    BANK4           256      0       0
    BANK5           256      0       0
    BANK6           256      0       0
    BANK7           256      0       0
    BANK8           256      0       0
    BANK9           256      0       0
    BANK10          256      0       0
    BANK11          256      0       0
    BANK12          256      0       0
    BANK13          256      0       0
    BANK14          256      0       0
    BANK15          128      0       0

Pointer List with Targets:

    LCDAddSpecialCharacter@data	PTR unsigned char  size(2) Largest target is 8
		 -> frisbee_target(BANK0[8]), selected_teamB_player_with_frisbee(BANK0[8]), selected_teamA_player_with_frisbee(BANK0[8]), frisbee(BANK0[8]), 
		 -> teamB_player(BANK0[8]), selected_teamB_player(BANK0[8]), teamA_player(BANK0[8]), selected_teamA_player(BANK0[8]), 

    LCDStr@str	PTR const unsigned char  size(2) Largest target is 2
		 -> STR_9(CODE[2]), STR_8(CODE[2]), STR_7(CODE[2]), STR_6(CODE[2]), 
		 -> STR_5(CODE[2]), STR_4(CODE[2]), STR_3(CODE[2]), STR_2(CODE[2]), 
		 -> STR_1(CODE[2]), 


Critical Paths under _main in COMRAM

    None.

Critical Paths under _FNC in COMRAM

    _FNC->_throwFrisbee
    _throwFrisbee->_compute_frisbee_target_and_route
    _compute_frisbee_target_and_route->_random_generator
    _random_generator->___lwmod
    _switchSelectedPlayer->_LCDStr
    _moveFrisbee->_isThereAnyPlayer
    _gamepadPressed->_moveSelectedPlayerPositionOnLCD
    _moveSelectedPlayerPositionOnLCD->_LCDStr
    _frisbeeReleasedOnLCD->_LCDStr
    _frisbeeHeldOnLCD->_LCDStr
    _blink->_LCDStr
    i2_LCDGoto->i2_LCDCmd
    _LCDStr->i2_LCDDat

Critical Paths under _main in BANK0

    _setInitialState->_LCDAddSpecialCharacter
    _LCDGoto->_LCDCmd
    _LCDAddSpecialCharacter->_LCDCmd
    _LCDAddSpecialCharacter->_LCDDat
    _InitLCD->_LCDCmd

Critical Paths under _FNC in BANK0

    None.

Critical Paths under _main in BANK1

    None.

Critical Paths under _FNC in BANK1

    None.

Critical Paths under _main in BANK2

    None.

Critical Paths under _FNC in BANK2

    None.

Critical Paths under _main in BANK3

    None.

Critical Paths under _FNC in BANK3

    None.

Critical Paths under _main in BANK4

    None.

Critical Paths under _FNC in BANK4

    None.

Critical Paths under _main in BANK5

    None.

Critical Paths under _FNC in BANK5

    None.

Critical Paths under _main in BANK6

    None.

Critical Paths under _FNC in BANK6

    None.

Critical Paths under _main in BANK7

    None.

Critical Paths under _FNC in BANK7

    None.

Critical Paths under _main in BANK8

    None.

Critical Paths under _FNC in BANK8

    None.

Critical Paths under _main in BANK9

    None.

Critical Paths under _FNC in BANK9

    None.

Critical Paths under _main in BANK10

    None.

Critical Paths under _FNC in BANK10

    None.

Critical Paths under _main in BANK11

    None.

Critical Paths under _FNC in BANK11

    None.

Critical Paths under _main in BANK12

    None.

Critical Paths under _FNC in BANK12

    None.

Critical Paths under _main in BANK13

    None.

Critical Paths under _FNC in BANK13

    None.

Critical Paths under _main in BANK14

    None.

Critical Paths under _FNC in BANK14

    None.

Critical Paths under _main in BANK15

    None.

Critical Paths under _FNC in BANK15

    None.

Call Graph Tables:

 ---------------------------------------------------------------------------------
 (Depth) Function   	        Calls       Base Space   Used Autos Params    Refs
 ---------------------------------------------------------------------------------
 (0) _main                                                 0     0      0    2865
                            _InitLCD
                       _display_7seg
                            _initADC
                      _initRegisters
                    _setInitialState
 ---------------------------------------------------------------------------------
 (1) _setInitialState                                      0     0      0    2834
             _LCDAddSpecialCharacter
                             _LCDDat
                            _LCDGoto
 ---------------------------------------------------------------------------------
 (2) _LCDGoto                                              2     1      1    1860
                                              1 BANK0      2     1      1
                             _LCDCmd
 ---------------------------------------------------------------------------------
 (2) _LCDAddSpecialCharacter                               4     2      2     943
                                              1 BANK0      4     2      2
                             _LCDCmd
                             _LCDDat
 ---------------------------------------------------------------------------------
 (2) _LCDDat                                               1     1      0      31
                                              0 BANK0      1     1      0
 ---------------------------------------------------------------------------------
 (1) _initRegisters                                        0     0      0       0
 ---------------------------------------------------------------------------------
 (1) _initADC                                              0     0      0       0
 ---------------------------------------------------------------------------------
 (1) _display_7seg                                         1     1      0       0
                                              0 BANK0      1     1      0
 ---------------------------------------------------------------------------------
 (1) _InitLCD                                              0     0      0      31
                             _LCDCmd
 ---------------------------------------------------------------------------------
 (3) _LCDCmd                                               1     1      0      31
                                              0 BANK0      1     1      0
 ---------------------------------------------------------------------------------
 Estimated maximum stack depth 3
 ---------------------------------------------------------------------------------
 (Depth) Function   	        Calls       Base Space   Used Autos Params    Refs
 ---------------------------------------------------------------------------------
 (4) _FNC                                                  8     8      0   15876
                                             55 COMRAM     8     8      0
                              _blink
                     _gamepadPressed
                        _moveFrisbee
               _switchSelectedPlayer
                       _throwFrisbee
 ---------------------------------------------------------------------------------
 (5) _throwFrisbee                                        10    10      0    3532
                                             45 COMRAM    10    10      0
                             _LCDStr
   _compute_frisbee_target_and_route
                           i2_LCDDat
                          i2_LCDGoto
 ---------------------------------------------------------------------------------
 (6) _compute_frisbee_target_and_route                    28    24      4    1793
                                             17 COMRAM    28    24      4
                   _random_generator
 ---------------------------------------------------------------------------------
 (7) _random_generator                                    12    10      2     599
                                              5 COMRAM    12    10      2
                            ___lwmod
 ---------------------------------------------------------------------------------
 (8) ___lwmod                                              5     1      4     311
                                              0 COMRAM     5     1      4
 ---------------------------------------------------------------------------------
 (5) _switchSelectedPlayer                                16    16      0    1964
                                              6 COMRAM    16    16      0
                             _LCDStr
                           i2_LCDDat
                          i2_LCDGoto
 ---------------------------------------------------------------------------------
 (5) _moveFrisbee                                          6     6      0    2241
                                             10 COMRAM     6     6      0
                             _LCDStr
               _ifSelectedPlayerHold
                   _isThereAnyPlayer
                           i2_LCDDat
                          i2_LCDGoto
 ---------------------------------------------------------------------------------
 (6) _isThereAnyPlayer                                    10     6      4     590
                                              0 COMRAM    10     6      4
 ---------------------------------------------------------------------------------
 (6) _ifSelectedPlayerHold                                 9     7      2      69
                                              0 COMRAM     9     7      2
 ---------------------------------------------------------------------------------
 (5) _gamepadPressed                                       9     9      0    6581
                                             18 COMRAM     9     9      0
                        _frisbeeHeld
                   _frisbeeHeldOnLCD
               _frisbeeReleasedOnLCD
       _hasPlayerLeftFrisbeeLocation
                 _isThereOtherPlayer
    _moveSelectedPlayerPositionOnLCD
 ---------------------------------------------------------------------------------
 (6) _moveSelectedPlayerPositionOnLCD                     12     2     10    2072
                                              6 COMRAM    12     2     10
                             _LCDStr
                           i2_LCDDat
                          i2_LCDGoto
 ---------------------------------------------------------------------------------
 (6) _isThereOtherPlayer                                  10     6      4     742
                                              0 COMRAM    10     6      4
 ---------------------------------------------------------------------------------
 (6) _hasPlayerLeftFrisbeeLocation                         8     6      2      45
                                              0 COMRAM     8     6      2
 ---------------------------------------------------------------------------------
 (6) _frisbeeReleasedOnLCD                                 6     6      0    1649
                                              6 COMRAM     6     6      0
                             _LCDStr
                           i2_LCDDat
                          i2_LCDGoto
 ---------------------------------------------------------------------------------
 (6) _frisbeeHeldOnLCD                                     8     8      0    1695
                                              6 COMRAM     8     8      0
                             _LCDStr
                           i2_LCDDat
                          i2_LCDGoto
 ---------------------------------------------------------------------------------
 (6) _frisbeeHeld                                          8     6      2      45
                                              0 COMRAM     8     6      2
 ---------------------------------------------------------------------------------
 (5) _blink                                                0     0      0    1558
                             _LCDStr
                           i2_LCDDat
                          i2_LCDGoto
 ---------------------------------------------------------------------------------
 (6) i2_LCDGoto                                            2     1      1     740
                                              1 COMRAM     2     1      1
                           i2_LCDCmd
 ---------------------------------------------------------------------------------
 (7) i2_LCDCmd                                             1     1      0      22
                                              0 COMRAM     1     1      0
 ---------------------------------------------------------------------------------
 (6) _LCDStr                                               5     3      2     796
                                              1 COMRAM     5     3      2
                           i2_LCDDat
 ---------------------------------------------------------------------------------
 (6) i2_LCDDat                                             1     1      0      22
                                              0 COMRAM     1     1      0
 ---------------------------------------------------------------------------------
 Estimated maximum stack depth 8
 ---------------------------------------------------------------------------------

 Call Graph Graphs:

 _main (ROOT)
   _InitLCD
     _LCDCmd
   _display_7seg
   _initADC
   _initRegisters
   _setInitialState
     _LCDAddSpecialCharacter
       _LCDCmd
       _LCDDat
     _LCDDat
     _LCDGoto
       _LCDCmd

 _FNC (ROOT)
   _blink
     _LCDStr
       i2_LCDDat
     i2_LCDDat
     i2_LCDGoto
       i2_LCDCmd
   _gamepadPressed
     _frisbeeHeld
     _frisbeeHeldOnLCD
       _LCDStr
         i2_LCDDat
       i2_LCDDat
       i2_LCDGoto
         i2_LCDCmd
     _frisbeeReleasedOnLCD
       _LCDStr
         i2_LCDDat
       i2_LCDDat
       i2_LCDGoto
         i2_LCDCmd
     _hasPlayerLeftFrisbeeLocation
     _isThereOtherPlayer
     _moveSelectedPlayerPositionOnLCD
       _LCDStr
         i2_LCDDat
       i2_LCDDat
       i2_LCDGoto
         i2_LCDCmd
   _moveFrisbee
     _LCDStr
       i2_LCDDat
     _ifSelectedPlayerHold
     _isThereAnyPlayer
     i2_LCDDat
     i2_LCDGoto
       i2_LCDCmd
   _switchSelectedPlayer
     _LCDStr
       i2_LCDDat
     i2_LCDDat
     i2_LCDGoto
       i2_LCDCmd
   _throwFrisbee
     _LCDStr
       i2_LCDDat
     _compute_frisbee_target_and_route
       _random_generator
         ___lwmod
     i2_LCDDat
     i2_LCDGoto
       i2_LCDCmd

 Address spaces:
Name               Size   Autos  Total    Cost      Usage
BIGRAM             F7F      0       0      37        0.0%
EEDATA             400      0       0       0        0.0%
BITBANK14          100      0       0      32        0.0%
BANK14             100      0       0      33        0.0%
BITBANK13          100      0       0      30        0.0%
BANK13             100      0       0      31        0.0%
BITBANK12          100      0       0      28        0.0%
BANK12             100      0       0      29        0.0%
BITBANK11          100      0       0      26        0.0%
BANK11             100      0       0      27        0.0%
BITBANK10          100      0       0      24        0.0%
BANK10             100      0       0      25        0.0%
BITBANK9           100      0       0      22        0.0%
BANK9              100      0       0      23        0.0%
BITBANK8           100      0       0      20        0.0%
BANK8              100      0       0      21        0.0%
BITBANK7           100      0       0      18        0.0%
BANK7              100      0       0      19        0.0%
BITBANK6           100      0       0      16        0.0%
BANK6              100      0       0      17        0.0%
BITBANK5           100      0       0      14        0.0%
BANK5              100      0       0      15        0.0%
BITBANK4           100      0       0      12        0.0%
BANK4              100      0       0      13        0.0%
BITBANK3           100      0       0      10        0.0%
BANK3              100      0       0      11        0.0%
BITBANK2           100      0       0       8        0.0%
BANK2              100      0       0       9        0.0%
BITBANK1           100      0       0       6        0.0%
BANK1              100      0      3C       7       23.4%
BITBANK15           80      0       0      35        0.0%
BANK15              80      0       0      36        0.0%
BITBANK0            80      0       0       4        0.0%
BANK0               80      5      4D       5       60.2%
BITCOMRAM           7E      0       0       0        0.0%
COMRAM              7E     3F      78       1       95.2%
BITSFR               0      0       0     200        0.0%
SFR                  0      0       0     200        0.0%
STACK                0      0       0       2        0.0%
NULL                 0      0       0       0        0.0%
ABS                  0      0     101      34        0.0%
DATA                 0      0     101       3        0.0%
CODE                 0      0       0       0        0.0%


Microchip Technology PIC18 Macro Assembler V2.30 build 20200825195618 
Symbol Table                                                                                   Thu Jun  1 01:46:13 2023

                                   ??_ifSelectedPlayerHold 0003  
                                                       l80 27A2  
                                                       l73 2760  
                                                       l83 2790  
                                                       l92 229C  
                            __size_of_frisbeeReleasedOnLCD 0038  
                               LCDAddSpecialCharacter@data 00C9  
                    LCDAddSpecialCharacter@character_index 00CB  
                                            ?_display_7seg 0001  
                                                      l103 2712  
                                                      l202 1E5A  
                                                      l108 26A8  
                                                      l205 2462  
                                                      l256 24C8  
                                                      _FNC 0008  
                              throwFrisbee@selected_player 0036  
                                                      wreg 000FE8  
                                          __end_of_LCDGoto 229E  
                                                     ?_FNC 0001  
                                        ??_setInitialState 00CD  
                                                     l2140 2410  
                                                     l2150 2450  
                                                     l2142 2422  
                                                     l2144 2426  
                                                     l2136 23F8  
                                                     l2146 242A  
                                                     l2138 2400  
                                                     l2500 26EE  
                                                     l2148 243C  
                                                     l2510 270C  
                                                     l2502 26F4  
                                                     l2440 2796  
                                                     l2504 26FA  
                                                     l2520 1E1E  
                                                     l2512 1D80  
                                                     l2442 279A  
                                                     l2506 2700  
                                                     l2450 2786  
                                                     l2530 1E48  
                                                     l2522 1E24  
                                                     l2514 1E00  
                                                     l2444 279E  
                                                     l2508 2706  
                                                     l2540 246C  
                                                     l2452 278A  
                                                     l2460 223C  
                                                     l2532 1E54  
                                                     l2524 1E30  
                                                     l2516 1E0C  
                                                     l2446 27A0  
                                                     l2550 247A  
                                                     l2542 246E  
                                                     l2534 2464  
                                                     l2454 278C  
                                                     l2470 228A  
                                                     l2462 224A  
                                                     l2526 1E36  
                                                     l2518 1E12  
                                                     l2560 248C  
                                                     l2552 2480  
                                                     l2544 2470  
                                                     l2536 2468  
                                                     l2456 278E  
                                                     l2448 2782  
                                                     l2464 225C  
                                                     l2472 2294  
                                                     l2528 1E42  
                                                     l2490 273E  
                                                     l2570 24BA  
                                                     l2562 248E  
                                                     l2554 2482  
                                                     l2546 2472  
                                                     l2538 246A  
                                                     l2474 2298  
                                                     l2466 226A  
                                                     l2458 222A  
                                                     l2492 26E2  
                                                     l2572 24BC  
                                                     l2564 2490  
                                                     l2556 2488  
                                                     l2548 2478  
                                                     l2484 2682  
                                                     l2476 266E  
                                                     l2468 227C  
                                                     l2580 2762  
                                                     l2494 26E6  
                                                     l2574 24BE  
                                                     l2566 24AA  
                                                     l2558 248A  
                                                     l2486 2694  
                                                     l2478 267C  
                                                     l2582 2766  
                                                     l2496 26EA  
                                                     l2576 24C0  
                                                     l2568 24B8  
                                                     l2488 2698  
                                                     l2584 276A  
                                                     l2498 26EC  
                                                     l2578 24C6  
                                                     l2586 276E  
                                                     l2588 2772  
                                                     STR_1 1001  
                                                     STR_2 1001  
                                                     STR_3 1001  
                                                     STR_4 1001  
                                                     STR_5 1001  
                                                     STR_6 1001  
                                                     STR_7 1001  
                                                     STR_8 1001  
                                                     STR_9 1001  
                                                     _LATA 000F89  
                                                     _LATB 000F8A  
                                                     _LATD 000F8C  
                                                     u1740 223C  
                                                     u1741 2238  
                                                     u1750 225C  
                                                     u1807 2458  
                                                     u1751 2258  
                                                     u1760 227C  
                                                     u1761 2278  
                                                     u1770 26A8  
                                                     u1771 26A4  
                                                     u1787 2418  
                                                     u1797 2432  
                                                     i2l80 27C4  
                                                     i2l83 27B4  
                                                     i2l92 2386  
                                                     _TMR0 000FD6  
                                                     _TMR1 000FCE  
                                                     _TMR2 000FCC  
                                                     _dash 0066  
                                                     _main 2762  
                                                     fsr2h 000FDA  
                                                     indf2 000FDF  
                                                     fsr1l 000FE1  
                                                     fsr2l 000FD9  
                                                     btemp 0079  
                                                     prodl 000FF3  
                                                     start 000E  
                                 _ifSelectedPlayerHold$874 0007  
                                 _switchSelectedPlayer$852 0009  
                                 _switchSelectedPlayer$854 000B  
                                             ?_frisbeeHeld 0001  
                                             ___param_bank 000000  
                                          __end_of_InitLCD 2714  
                                                    ??_FNC 0038  
                                       __size_ofi2_LCDGoto 0074  
                                           ??_display_7seg 00C8  
                                      isThereOtherPlayer@i 0009  
                             __end_of_switchSelectedPlayer 1B62  
                                                    ?_main 0001  
                                                    _T0CON 000FD5  
                                                    _T1CON 000FCD  
                                                    _T2CON 000FCA  
                                         __end_ofi2_LCDDat 27B6  
                                         __end_ofi2_LCDCmd 27C6  
                                                    i2l100 2224  
                                          __end_of___lwmod 252E  
                                                    i2l211 1FC6  
                                                    i2l300 19C8  
                                                    i2l140 14CE  
                                                    i2l133 13E8  
                                                    i2l142 14D6  
                                                    i2l215 2114  
                                                    i2l135 144A  
                                                    i2l232 26E0  
                                                    i2l240 11E4  
                                                    i2l312 1BBA  
                                                    i2l305 2628  
                                                    i2l153 15FA  
                                                    i2l137 147C  
                                                    i2l218 1FE6  
                                                    i2l219 2076  
                                                    i2l235 1128  
                                                    i2l147 15AC  
                                                    i2l244 128E  
                                                    i2l229 23F6  
                                                    i2l237 13E6  
                                                    i2l165 1736  
                                                    i2l158 16E0  
                                                    i2l247 133A  
                                                    i2l239 133A  
                                                    i2l319 1C76  
                                                    i2l168 25DA  
                                                    i2l280 1D7E  
                                                    i2l273 1F10  
                                                    i2l267 1B60  
                                                    i2l285 21A4  
                                                    i2l199 2588  
                                                    i2l298 19CC  
                                                    i2l832 2524  
                                                    i2l839 252C  
                                                    _PORTB 000F81  
                                                    _PORTD 000F83  
                                                    _TRISA 000F92  
                                                    _TRISB 000F93  
                                                    _TRISD 000F95  
                                __size_of_isThereAnyPlayer 00B6  
                                          __end_of_initADC 2762  
                                                    _blink 25DC  
                                                    _lcd_x 0068  
                                                    _lcd_y 0067  
                                                    _empty 00C0  
                                                    tablat 000FF5  
                                                    ttemp5 007A  
                                                    ttemp6 007D  
                                                    ttemp7 0081  
                                                    status 000FD8  
                                                    wtemp8 007A  
                                 __end_of_random_generator 25DC  
                                          __initialization 229E  
                          frisbeeHeldOnLCD@selected_player 0007  
                                             __end_of_main 277E  
                                   __size_of_initRegisters 0066  
                                                   ??_main 00CD  
                                            __activetblptr 000001  
                               __end_of_isThereOtherPlayer 1FC8  
                                                ??_LCDGoto 00CA  
                                             ?_moveFrisbee 0001  
                                        ?_frisbeeHeldOnLCD 0001  
                                                   ?_blink 0001  
                                                   _ADRESH 000FC4  
                                                   _ADRESL 000FC3  
                                       ??_frisbeeHeldOnLCD 0007  
                                                   _LCDDat 277E  
                                                   _LCDCmd 2792  
                                        __end_ofi2_LCDGoto 2388  
                                                   i2l2000 2078  
                                                   i2l2010 210C  
                                                   i2l2002 2080  
                                                   i2l2004 20B8  
                                                   i2l2020 1FEE  
                                                   i2l2006 20F8  
                                                   i2l2022 2026  
                                                   i2l2014 1FC8  
                                                   i2l2040 23C0  
                                                   i2l2032 2388  
                                                   i2l2024 2066  
                                                   i2l2016 1FDA  
                                                   i2l2200 12AA  
                                                   i2l2042 23DC  
                                                   i2l2034 23A0  
                                                   i2l2050 26BA  
                                                   i2l2210 133E  
                                                   i2l2044 23E8  
                                                   i2l2036 23AA  
                                                   i2l2052 26C4  
                                                   i2l2212 13B2  
                                                   i2l2204 12E2  
                                                   i2l2220 19CE  
                                                   i2l2300 1D7C  
                                                   i2l2046 23F0  
                                                   i2l2038 23B6  
                                                   i2l2054 26D0  
                                                   i2l2214 13C8  
                                                   i2l2310 17D4  
                                                   i2l2302 1738  
                                                   i2l2230 19E4  
                                                   i2l2222 19D0  
                                                   i2l2056 26DA  
                                                   i2l2048 26AA  
                                                   i2l2216 13CC  
                                                   i2l2208 1310  
                                                   i2l2160 106E  
                                                   i2l2152 1004  
                                                   i2l2080 2116  
                                                   i2l2072 1EE8  
                                                   i2l2064 1E64  
                                                   i2l2320 1820  
                                                   i2l2312 17FA  
                                                   i2l2304 174C  
                                                   i2l2240 1A5C  
                                                   i2l2232 1A0C  
                                                   i2l2224 19D4  
                                                   i2l2400 1BE4  
                                                   i2l2218 13E2  
                                                   i2l2162 107C  
                                                   i2l2154 1008  
                                                   i2l2090 219E  
                                                   i2l2082 211E  
                                                   i2l2074 1EEC  
                                                   i2l2066 1E9C  
                                                   i2l2058 1E5C  
                                                   i2l2330 18B4  
                                                   i2l2322 1836  
                                                   i2l2314 1804  
                                                   i2l2306 1784  
                                                   i2l2250 1AA6  
                                                   i2l2242 1A78  
                                                   i2l2234 1A3C  
                                                   i2l2226 19D8  
                                                   i2l2402 1BF2  
                                                   i2l2410 1C20  
                                                   i2l2180 1184  
                                                   i2l2172 10F6  
                                                   i2l2164 108A  
                                                   i2l2156 1016  
                                                   i2l2084 2122  
                                                   i2l2076 1F08  
                                                   i2l2068 1EDC  
                                                   i2l2340 18DE  
                                                   i2l2332 18BC  
                                                   i2l2324 1882  
                                                   i2l2316 1810  
                                                   i2l2308 17C4  
                                                   i2l2260 1B26  
                                                   i2l2252 1AAE  
                                                   i2l2244 1A84  
                                                   i2l2236 1A46  
                                                   i2l2228 19DC  
                                                   i2l2420 1C5C  
                                                   i2l2412 1C2E  
                                                   i2l2404 1C08  
                                                   i2l2174 1136  
                                                   i2l2158 103E  
                                                   i2l2086 215A  
                                                   i2l2350 1924  
                                                   i2l2342 18E6  
                                                   i2l2334 18C2  
                                                   i2l2326 188C  
                                                   i2l2318 1818  
                                                   i2l2262 1B42  
                                                   i2l2254 1AD6  
                                                   i2l2246 1A8C  
                                                   i2l2238 1A52  
                                                   i2l2270 1C92  
                                                   i2l2414 1C44  
                                                   i2l2422 1C60  
                                                   i2l2406 1C0A  
                                                   _LCDStr 21A6  
                                                   i2l2192 1236  
                                                   i2l2184 11B2  
                                                   i2l2176 1144  
                                                   i2l2168 10C8  
                                                   i2l2088 219A  
                                                   i2l2360 19B8  
                                                   i2l2352 192E  
                                                   i2l2328 18A8  
                                                   i2l2336 18CE  
                                                   i2l2264 1B4E  
                                                   i2l2256 1B10  
                                                   i2l2248 1A92  
                                                   i2l2280 1D04  
                                                   i2l2272 1C9A  
                                                   i2l2424 1C6E  
                                                   i2l2416 1C46  
                                                   i2l2408 1C1C  
                                                   i2l1810 21DE  
                                                   i2l1802 21A6  
                                                   i2l2370 25FE  
                                                   i2l2186 11F2  
                                                   i2l2362 19C2  
                                                   i2l2354 193A  
                                                   i2l2338 18D8  
                                                   i2l2346 18EC  
                                                   i2l2266 1B56  
                                                   i2l2258 1B1C  
                                                   i2l2290 1D4A  
                                                   i2l2282 1D10  
                                                   i2l2274 1CA2  
                                                   i2l2426 1C70  
                                                   i2l1812 21E2  
                                                   i2l1804 21AE  
                                                   i2l1820 21FC  
                                                   i2l2372 260A  
                                                   i2l2364 25DC  
                                                   i2l2196 1264  
                                                   i2l2188 1200  
                                                   i2l2356 1962  
                                                   i2l2348 18FE  
                                                   i2l2268 1B5C  
                                                   i2l2292 1D50  
                                                   i2l2284 1D1A  
                                                   i2l2276 1CCA  
                                                   i2l2428 1C72  
                                                   i2l2380 1B8A  
                                                   i2l1814 21E4  
                                                   i2l1806 21CA  
                                                   i2l2374 2614  
                                                   i2l2366 25EE  
                                                   i2l2198 129C  
                                                   i2l2358 1992  
                                                   i2l1750 24CA  
                                                   i2l1830 25CA  
                                                   i2l1822 258A  
                                                   i2l1910 1500  
                                                   i2l1902 14AC  
                                                   i2l2294 1D64  
                                                   i2l2286 1D36  
                                                   i2l2278 1CFA  
                                                   i2l2390 1BB8  
                                                   i2l2382 1B8C  
                                                   i2l1816 21F6  
                                                   i2l1808 21CC  
                                                   i2l1840 2334  
                                                   i2l2376 2620  
                                                   i2l2368 25F8  
                                                   i2l1760 2510  
                                                   i2l1752 24DC  
                                                   i2l1832 25D2  
                                                   i2l1824 258A  
                                                   i2l1920 155E  
                                                   i2l1912 150C  
                                                   i2l1904 14C2  
                                                   i2l2296 1D6E  
                                                   i2l2288 1D42  
                                                   i2l2392 1BC8  
                                                   i2l2384 1B9E  
                                                   i2l1818 21FA  
                                                   i2l1770 27C0  
                                                   i2l1842 2346  
                                                   i2l1850 237E  
                                                   i2l1762 2518  
                                                   i2l1754 24E4  
                                                   i2l1826 2592  
                                                   i2l1930 15E0  
                                                   i2l1922 156A  
                                                   i2l1914 1534  
                                                   i2l1906 14DE  
                                                   i2l2298 1D74  
                                                   i2l2394 1BCA  
                                                   i2l2386 1BA2  
                                                   i2l2378 1B7C  
                                                   i2l1780 27B0  
                                                   i2l1772 27C2  
                                                   i2l1852 2382  
                                                   i2l1844 2354  
                                                   i2l1836 2316  
                                                   i2l1764 251E  
                                                   i2l1756 24EC  
                                                   i2l1828 25AE  
                                                   i2l1940 1630  
                                                   i2l1932 15E4  
                                                   i2l1924 1592  
                                                   i2l1916 1538  
                                                   i2l1908 14F4  
                                                   i2l2396 1BDC  
                                                   i2l2388 1BAA  
                                                   i2l1782 27B2  
                                                   i2l1774 27A6  
                                                   i2l1766 27B8  
                                                   i2l1846 2366  
                                                   i2l1838 2326  
                                                   i2l1758 24FA  
                                                   i2l1950 1696  
                                                   i2l1942 1660  
                                                   i2l1934 1602  
                                                   i2l1926 1596  
                                                   i2l1918 1552  
                                                   i2l2398 1BE0  
                                                   i2l1776 27AA  
                                                   i2l1768 27BC  
                                                   i2l1848 2374  
                                                   i2l1960 1720  
                                                   i2l1952 16C6  
                                                   i2l1944 1664  
                                                   i2l1936 1618  
                                                   i2l1928 15B8  
                                                   i2l1778 27AE  
                                                   i2l1970 2552  
                                                   i2l1962 252E  
                                                   i2l1954 16CA  
                                                   i2l1938 1624  
                                                   i2l1946 167E  
                                                   i2l1890 142E  
                                                   i2l1972 256E  
                                                   i2l1964 2532  
                                                   i2l1956 16EC  
                                                   i2l1948 168A  
                                                   i2l1892 143E  
                                                   i2l1974 257A  
                                                   i2l1966 253C  
                                                   i2l1958 171C  
                                                   i2l1894 1460  
                                                   i2l1886 13E8  
                                                   i2l1992 1F9E  
                                                   i2l1984 1F1A  
                                                   i2l1976 2582  
                                                   i2l1968 2548  
                                                   i2l1896 1470  
                                                   i2l1888 1418  
                                                   i2l1994 1FA2  
                                                   i2l1986 1F52  
                                                   i2l1978 1F12  
                                                   i2l1898 1492  
                                                   i2l1996 1FBE  
                                                   i2l1988 1F92  
                                                   _TMR0IF 007F92  
                                                ??_InitLCD 00C9  
                             frisbeeReleasedOnLCD@frisbeeX 0009  
                             frisbeeReleasedOnLCD@frisbeeY 000B  
                                 frisbeeHeldOnLCD@frisbeeX 000B  
                                 frisbeeHeldOnLCD@frisbeeY 000D  
                                                   _digits 005C  
                                                ??___lwmod 0005  
                                                   clear_0 22E4  
                                                   clear_1 22F0  
                                                   clear_2 22FC  
compute_frisbee_target_and_route@current_fisbee_x_position 0012  
                                  __size_of_gamepadPressed 03E4  
                                                ??_initADC 00C8  
compute_frisbee_target_and_route@current_fisbee_y_position 0014  
                                             __pdataCOMRAM 0040  
                                            _frisbee_steps 0100  
                                             __mediumconst 0000  
                                                   tblptrh 000FF7  
                                                   tblptrl 000FF6  
                                                   tblptru 000FF8  
                     __end_of_hasPlayerLeftFrisbeeLocation 2078  
                    __size_of_hasPlayerLeftFrisbeeLocation 00B0  
                             _hasPlayerLeftFrisbeeLocation 1FC8  
                                            _initRegisters 2464  
                                                LCDDat@dat 00C8  
                                                LCDCmd@cmd 00C8  
                                     __end_of_display_7seg 2464  
                                               __accesstop 0080  
                                  __end_of__initialization 2302  
                                     _switchSelectedPlayer 19CE  
                                            ___rparam_used 000001  
                                                ?i2_LCDDat 0001  
                                                ?i2_LCDCmd 0001  
                                           __pcstackCOMRAM 0001  
                                             __pidataBANK0 262A  
                                                LCDStr@str 0002  
                                            __end_of_blink 262A  
                                 ??_LCDAddSpecialCharacter 00CB  
                                     __size_of_frisbeeHeld 009E  
                            random_generator@pseudo_random 000C  
                                 switchSelectedPlayer@oldX 000D  
                                 switchSelectedPlayer@oldY 000F  
                                 switchSelectedPlayer@newX 0011  
                                 switchSelectedPlayer@newY 0013  
                                          _setInitialState 1D80  
                                         _isThereAnyPlayer 1E5C  
                                                  ??_blink 0007  
                                           ?_initRegisters 0001  
                             __end_of_frisbeeReleasedOnLCD 26E2  
                                                  ?_LCDDat 0001  
                                                  ?_LCDCmd 0001  
                                               __pbssBANK0 00C0  
                                               __pbssBANK1 0100  
                                                  ?_LCDStr 0002  
                            ?_hasPlayerLeftFrisbeeLocation 0001  
                                                  LCDStr@i 0006  
                                    ?_switchSelectedPlayer 0001  
                                             i2LCDGoto@p_1 0002  
                                             i2LCDGoto@p_2 0003  
                                               ??i2_LCDDat 0001  
                                               ??i2_LCDCmd 0001  
              compute_frisbee_target_and_route@x_step_size 002A  
                                               _blink_flag 006B  
                            __size_of_ifSelectedPlayerHold 0090  
              compute_frisbee_target_and_route@y_step_size 002C  
                                                  _CONVERT 0078  
                                                  _LCDGoto 2226  
                                                  i2u90_40 2510  
                                                  i2u90_41 250C  
                                                  i2u91_40 21DE  
                                                  i2u91_41 21DA  
                                                  i2u92_40 21F6  
                                                  i2u92_41 21F2  
                                                  i2u93_40 2224  
                                                  i2u93_41 2220  
                                                  i2u94_40 2326  
                                                  i2u94_41 2322  
                                                  i2u95_40 2346  
                                                  i2u95_41 2342  
                                                  i2u96_40 2366  
                                                  i2u88_40 24DC  
                                                  i2u96_41 2362  
                                                  i2u88_41 24D8  
                                                  i2u89_40 24FA  
                                                  i2u89_41 24F6  
                                     __size_of_moveFrisbee 0296  
                                          __size_of_LCDDat 0014  
                                          __size_of_LCDCmd 0012  
                                          __size_of_LCDStr 0080  
                                                  _InitLCD 26E2  
                                                  __Hparam 0000  
                                                  __Lparam 0000  
                                        ?_random_generator 0006  
                                  __end_of_setInitialState 1E5C  
                                       ??_random_generator 0008  
                            random_generator@rotated_value 000E  
                                                  ___lwmod 24CA  
                                             __psmallconst 1000  
                          __size_of_LCDAddSpecialCharacter 0040  
                                                  __pcinit 229E  
                                                  __ramtop 1000  
                                           _gamepadPressed 1004  
                                                  __ptext0 2762  
                                                  __ptext1 1D80  
                                                  __ptext2 2226  
                                                  __ptext3 266A  
                                                  __ptext4 277E  
                                                  __ptext5 2464  
                                                  __ptext6 273E  
                                                  __ptext7 23F8  
                                                  __ptext8 26E2  
                                                  __ptext9 2792  
                                                _T0CONbits 000FD5  
                                                  _initADC 273E  
                                             __size_of_FNC 1C8A  
                                                _T1CONbits 000FCD  
                                                  _frisbee 0088  
                                                _T2CONbits 000FCA  
                                          ??_initRegisters 00C8  
                      _moveSelectedPlayerPositionOnLCD$762 0011  
                                    __size_of_display_7seg 006C  
                                           __pintcode_body 1B62  
                                     end_of_initialization 2302  
                                   ??_switchSelectedPlayer 0007  
                                       _isThereOtherPlayer 1F12  
                                           _frisbee_target 0080  
                                                  int_func 1B62  
                                          _moveFrisbee$879 000F  
                                                i2_LCDGoto 2314  
                                      ?_isThereOtherPlayer 0001  
                                __size_of_frisbeeHeldOnLCD 0070  
                                                  postdec1 000FE5  
                                                  postdec2 000FDD  
                                                  postinc0 000FEE  
                                                  postinc2 000FDE  
                                   __end_of_gamepadPressed 13E8  
                                     _frisbeeReleasedOnLCD 26AA  
                                             _display_7seg 23F8  
                                                _PORTEbits 000F84  
                    compute_frisbee_target_and_route@i_720 001C  
                    compute_frisbee_target_and_route@i_722 001E  
                    compute_frisbee_target_and_route@i_723 0020  
                    compute_frisbee_target_and_route@i_724 0022  
                    compute_frisbee_target_and_route@i_719 001A  
                  __end_of_moveSelectedPlayerPositionOnLCD 258A  
                 __size_of_moveSelectedPlayerPositionOnLCD 005C  
                        ??_moveSelectedPlayerPositionOnLCD 0011  
                         ?_moveSelectedPlayerPositionOnLCD 0007  
                          _moveSelectedPlayerPositionOnLCD 252E  
                                     ??_isThereOtherPlayer 0005  
                                                _TRISAbits 000F92  
                                                _TRISBbits 000F93  
                                                _TRISEbits 000F96  
                                   _LCDAddSpecialCharacter 266A  
                                        isThereAnyPlayer@i 0009  
                                        isThereAnyPlayer@x 0001  
                                        isThereAnyPlayer@y 0003  
                              random_generator@timer_value 0010  
                                           __end_of_LCDDat 2792  
                                           __end_of_LCDCmd 27A4  
                                           __end_of_LCDStr 2226  
                                               LCDGoto@p_1 00C9  
                                               LCDGoto@p_2 00CA  
                                               ?i2_LCDGoto 0002  
                                            ?_throwFrisbee 0001  
          compute_frisbee_target_and_route@number_of_steps 0024  
                       _selected_teamA_player_with_frisbee 0098  
                                 __end_of_isThereAnyPlayer 1F12  
                                         ?_setInitialState 0001  
                                        __size_ofi2_LCDDat 0012  
                                        __size_ofi2_LCDCmd 0010  
                                          ?_gamepadPressed 0001  
                                    ?_frisbeeReleasedOnLCD 0001  
                                            __pidataCOMRAM 2714  
                 __end_of_compute_frisbee_target_and_route 1738  
                __size_of_compute_frisbee_target_and_route 0350  
                       ??_compute_frisbee_target_and_route 0016  
                        ?_compute_frisbee_target_and_route 0012  
                         _compute_frisbee_target_and_route 13E8  
                                      start_initialization 229E  
                                              __end_of_FNC 1C92  
                                                 ??_LCDDat 00C8  
                                                 ??_LCDCmd 00C8  
                                                 ??_LCDStr 0004  
                                           ??_throwFrisbee 002E  
                                            _debounce_flag 0075  
                                            ??_frisbeeHeld 0003  
                                  LCDAddSpecialCharacter@i 00CC  
                                             _frisbee_held 006F  
                                              __pdataBANK0 0080  
                                                 ?_LCDGoto 00C9  
                                              __pbssCOMRAM 0069  
                                            __pcstackBANK0 00C8  
                                   isThereOtherPlayer@oldX 0001  
                                   isThereOtherPlayer@oldY 0003  
                             __end_of_ifSelectedPlayerHold 21A6  
                                              i2LCDDat@dat 0001  
                                              i2LCDCmd@cmd 0001  
                                     _frisbeeHeldOnLCD$779 0009  
                                                 ?_InitLCD 0001  
                                             _current_step 006D  
                                              ??i2_LCDGoto 0003  
                                                _gameState 0040  
                                         _frisbeeHeldOnLCD 2388  
                                                __pintcode 0008  
                                   ??_frisbeeReleasedOnLCD 0007  
                                                 ?___lwmod 0001  
                                      __end_of_frisbeeHeld 2116  
                                                 ?_initADC 0001  
                                              __smallconst 1000  
                                __size_of_random_generator 0052  
                                            ??_moveFrisbee 000B  
                                             _teamA_player 00B8  
                                           __size_of_blink 004E  
                                             _teamB_player 00B0  
                               frisbeeHeld@selected_player 0007  
                                    _selected_teamA_player 00A8  
                                    _selected_teamB_player 00A0  
                                                 i2_LCDDat 27A4  
                                                 i2_LCDCmd 27B6  
                                                 i2u101_40 142E  
                                                 i2u101_41 142A  
                                                 i2u110_40 1618  
                                                 i2u102_40 1460  
                                                 i2u110_41 1614  
                                                 i2u102_41 145C  
                                                 i2u111_40 167A  
                                                 i2u103_40 1492  
                                                 i2u111_41 1676  
                                                 i2u103_41 148E  
                                                 i2u120_40 1FDA  
                                                 i2u112_40 16E0  
                                                 i2u104_40 14A8  
                                                 i2u120_41 1FD6  
                                                 i2u112_41 16DC  
                                                 i2u104_41 14A4  
                                                 i2u121_40 2026  
                                                 i2u113_40 1736  
                                                 i2u105_40 14C2  
                                                 i2u121_41 2022  
                                                 i2u113_41 1732  
                                                 i2u105_41 14BE  
                                                 i2u122_40 2066  
                                                 i2u114_40 256E  
                                                 i2u130_40 108A  
                                                 i2u106_40 14F4  
                                                 i2u122_41 2062  
                                                 i2u114_41 256A  
                                                 i2u130_41 1086  
                                                 i2u106_41 14F0  
                                                 i2u123_40 23DC  
                                                 i2u115_40 1F52  
                                                 i2u131_40 10C4  
                                                 i2u107_40 154E  
                                                 i2u123_41 23D8  
                                                 i2u115_41 1F4E  
                                                 i2u131_41 10C0  
                                                 i2u107_41 154A  
                                                 i2u116_40 1F92  
                                                 i2u140_40 1260  
                                                 i2u132_40 10F2  
                                                 i2u124_40 1E9C  
                                                 i2u108_40 15AC  
                                                 i2u116_41 1F8E  
                                                 i2u140_41 125C  
                                                 i2u132_41 10EE  
                                                 i2u124_41 1E98  
                                                 i2u108_41 15A8  
                                                 i2u117_40 1FBE  
                                                 i2u141_40 129C  
                                                 i2u133_40 1136  
                                                 i2u125_40 1EDC  
                                                 i2u109_40 15FA  
                                                 i2u117_41 1FBA  
                                                 i2u141_41 1298  
                                                 i2u133_41 1132  
                                                 i2u125_41 1ED8  
                                                 i2u109_41 15F6  
                                                 i2u118_40 20B8  
                                                 i2u142_40 12AA  
                                                 i2u134_40 1144  
                                                 i2u126_40 1F08  
                                                 i2u150_40 174C  
                                                 i2u118_41 20B4  
                                                 i2u142_41 12A6  
                                                 i2u134_41 1140  
                                                 i2u126_41 1F04  
                                                 i2u150_41 1748  
                                                 i2u119_40 20F8  
                                                 i2u143_40 12DE  
                                                 i2u135_40 1180  
                                                 i2u127_40 215A  
                                                 i2u151_40 1784  
                                                 i2u119_41 20F4  
                                                 i2u143_41 12DA  
                                                 i2u135_41 117C  
                                                 i2u127_41 2156  
                                                 i2u151_41 1780  
                                                 i2u144_40 130C  
                                                 i2u136_40 11AE  
                                                 i2u128_40 219A  
                                                 i2u160_40 18FE  
                                                 i2u152_40 17C4  
                                                 i2u144_41 1308  
                                                 i2u136_41 11AA  
                                                 i2u128_41 2196  
                                                 i2u160_41 18FA  
                                                 i2u152_41 17C0  
                                                 i2u145_40 13C8  
                                                 i2u137_40 11F2  
                                                 i2u129_40 107C  
                                                 i2u161_40 1924  
                                                 i2u153_40 17FA  
                                                 i2u145_41 13C4  
                                                 i2u137_41 11EE  
                                                 i2u129_41 1078  
                                                 i2u161_41 1920  
                                                 i2u153_41 17F6  
                                                 i2u146_40 13E2  
                                                 i2u138_40 1200  
                                                 i2u162_40 19B8  
                                                 i2u154_40 1836  
                                                 i2u170_40 1C1C  
                                                 i2u146_41 13DE  
                                                 i2u138_41 11FC  
                                                 i2u162_41 19B4  
                                                 i2u154_41 1832  
                                                 i2u170_41 1C18  
                                                 i2u163_40 25EE  
                                                 i2u139_40 1232  
                                                 i2u155_40 1854  
                                                 i2u147_40 1A78  
                                                 i2u171_40 1C2E  
                                                 i2u163_41 25EA  
                                                 i2u139_41 122E  
                                                 i2u155_41 184E  
                                                 i2u147_41 1A74  
                                                 i2u171_41 1C2A  
                                                 i2u156_40 1856  
                                                 i2u148_40 1B42  
                                                 i2u172_40 1C58  
                                                 i2u164_40 1B8A  
                                                 i2u148_41 1B3E  
                                                 i2u172_41 1C54  
                                                 i2u164_41 1B86  
                                                 i2u157_40 187A  
                                                 i2u149_40 1D36  
                                                 i2u173_40 1C6E  
                                                 i2u165_40 1B9E  
                                                 i2u157_41 1874  
                                                 i2u149_41 1D32  
                                                 i2u173_41 1C6A  
                                                 i2u165_41 1B9A  
                                                 i2u181_47 1BFC  
                                                 i2u158_40 187C  
                                                 i2u166_40 1BB8  
                                                 i2u166_41 1BB4  
                                                 i2u182_47 1C38  
                                                 i2u159_40 18A8  
                                                 i2u167_40 1BC8  
                                                 i2u159_41 18A4  
                                                 i2u167_41 1BC4  
                                                 i2u183_47 100E  
                                                 i2u168_40 1BDC  
                                                 i2u168_41 1BD8  
                                                 i2u169_40 1BF2  
                                                 i2u169_41 1BEE  
                                                 _PIR1bits 000F9E  
                                               _ADCON0bits 000FC2  
                                               _ADCON1bits 000FC1  
                                               _ADCON2bits 000FC0  
                                     __end_of_throwFrisbee 1D80  
              hasPlayerLeftFrisbeeLocation@selected_player 0007  
                                         __size_of_LCDGoto 0078  
                                  ?_LCDAddSpecialCharacter 00C9  
                                    __end_of_initRegisters 24CA  
                                              _INTCON3bits 000FF0  
                                                copy_data0 22B2  
                                                copy_data1 22D2  
                                   random_generator@modulo 0006  
                                      __end_of_moveFrisbee 19CE  
                            __size_of_switchSelectedPlayer 0194  
                                         __size_of_InitLCD 0032  
                                         ??_gamepadPressed 0013  
                                                 __Hrparam 0000  
                              gamepadPressed@current_portb 001B  
                                                 __Lrparam 0000  
                                             __Lsmallconst 1000  
                                              _frisbeeHeld 2078  
                                        ?_isThereAnyPlayer 0001  
                                       ??_isThereAnyPlayer 0005  
                                         __size_of___lwmod 0064  
                                     _ifSelectedPlayerHold 2116  
                           __end_of_LCDAddSpecialCharacter 26AA  
                                         __size_of_initADC 0024  
                      ifSelectedPlayerHold@selected_player 0008  
                              __size_of_isThereOtherPlayer 00B6  
                                                 __ptext11 1C92  
                                                 __ptext20 252E  
                                                 __ptext12 13E8  
                                                 __ptext21 1F12  
                                                 __ptext13 258A  
                                                 __ptext30 27A4  
                                                 __ptext22 1FC8  
                                                 __ptext14 24CA  
                                                 __ptext23 26AA  
                                                 __ptext15 19CE  
                                                 __ptext24 2388  
                                                 __ptext16 1738  
                                                 __ptext25 2078  
                                                 __ptext17 1E5C  
                                                 __ptext26 25DC  
                                                 __ptext18 2116  
                                                 __ptext27 2314  
                                                 __ptext19 1004  
                                                 __ptext28 27B6  
                                                 __ptext29 21A6  
                                            __size_of_main 001C  
                            throwFrisbee@selected_player_x 0032  
                            throwFrisbee@selected_player_y 0034  
                                                 _target_x 0073  
                                                 _target_y 0071  
                       _selected_teamB_player_with_frisbee 0090  
                                           _previous_portb 0076  
                           ??_hasPlayerLeftFrisbeeLocation 0003  
                                                 int$flags 0079  
                                    ?_ifSelectedPlayerHold 0001  
                      moveSelectedPlayerPositionOnLCD@oldX 0007  
                      moveSelectedPlayerPositionOnLCD@oldY 0009  
                      moveSelectedPlayerPositionOnLCD@newX 000B  
                      moveSelectedPlayerPositionOnLCD@newY 000D  
                                 __size_of_setInitialState 00DC  
                                               _INTCONbits 000FF2  
                                         _random_generator 258A  
                                 __end_of_frisbeeHeldOnLCD 23F8  
                                              _moveFrisbee 1738  
                                                 intlevel2 0000  
                                         ___lwmod@dividend 0001  
            moveSelectedPlayerPositionOnLCD@selectedPlayer 000F  
                                         _throwFrisbee$864 0030  
                                    __size_of_throwFrisbee 00EE  
                                          ___lwmod@divisor 0003  
                                          ___lwmod@counter 0005  
                      switchSelectedPlayer@selected_player 0015  
                                   _gamepad_button_pressed 0077  
                        compute_frisbee_target_and_route@i 0018  
                        compute_frisbee_target_and_route@x 0026  
                        compute_frisbee_target_and_route@y 0028  
                                       gamepadPressed@oldX 0017  
                                       gamepadPressed@oldY 0019  
                                            _display_state 0069  
                                             _throwFrisbee 1C92  
